
STM32F446RE_Template.elf:     file format elf32-littlearm

Sections:
Idx Name          Size      VMA       LMA       File off  Algn
  0 .isr_vector   000001c4  08000000  08000000  00001000  2**0
                  CONTENTS, ALLOC, LOAD, READONLY, DATA
  1 .text         0000b7dc  080001d0  080001d0  000011d0  2**4
                  CONTENTS, ALLOC, LOAD, READONLY, CODE
  2 .rodata       000004b8  0800b9b0  0800b9b0  0000c9b0  2**3
                  CONTENTS, ALLOC, LOAD, READONLY, DATA
  3 .ARM.extab    00000000  0800be68  0800be68  0000d1d8  2**0
                  CONTENTS, READONLY
  4 .ARM          00000008  0800be68  0800be68  0000ce68  2**2
                  CONTENTS, ALLOC, LOAD, READONLY, DATA
  5 .preinit_array 00000000  0800be70  0800be70  0000d1d8  2**0
                  CONTENTS, ALLOC, LOAD, DATA
  6 .init_array   00000004  0800be70  0800be70  0000ce70  2**2
                  CONTENTS, ALLOC, LOAD, READONLY, DATA
  7 .fini_array   00000004  0800be74  0800be74  0000ce74  2**2
                  CONTENTS, ALLOC, LOAD, READONLY, DATA
  8 .data         000001d8  20000000  0800be78  0000d000  2**2
                  CONTENTS, ALLOC, LOAD, DATA
  9 .bss          0000516c  200001d8  0800c050  0000d1d8  2**2
                  ALLOC
 10 ._user_heap_stack 00000604  20005344  0800c050  0000d344  2**0
                  ALLOC
 11 .ARM.attributes 00000030  00000000  00000000  0000d1d8  2**0
                  CONTENTS, READONLY
 12 .debug_info   00018424  00000000  00000000  0000d208  2**0
                  CONTENTS, READONLY, DEBUGGING, OCTETS
 13 .debug_abbrev 000037f6  00000000  00000000  0002562c  2**0
                  CONTENTS, READONLY, DEBUGGING, OCTETS
 14 .debug_aranges 000015a8  00000000  00000000  00028e28  2**3
                  CONTENTS, READONLY, DEBUGGING, OCTETS
 15 .debug_rnglists 000010cf  00000000  00000000  0002a3d0  2**0
                  CONTENTS, READONLY, DEBUGGING, OCTETS
 16 .debug_macro  00004f3a  00000000  00000000  0002b49f  2**0
                  CONTENTS, READONLY, DEBUGGING, OCTETS
 17 .debug_line   00017f63  00000000  00000000  000303d9  2**0
                  CONTENTS, READONLY, DEBUGGING, OCTETS
 18 .debug_str    000dd58d  00000000  00000000  0004833c  2**0
                  CONTENTS, READONLY, DEBUGGING, OCTETS
 19 .comment      00000043  00000000  00000000  001258c9  2**0
                  CONTENTS, READONLY
 20 .debug_frame  00006eb8  00000000  00000000  0012590c  2**2
                  CONTENTS, READONLY, DEBUGGING, OCTETS
 21 .debug_line_str 00000058  00000000  00000000  0012c7c4  2**0
                  CONTENTS, READONLY, DEBUGGING, OCTETS

Disassembly of section .text:

080001d0 <__do_global_dtors_aux>:
 80001d0:	b510      	push	{r4, lr}
 80001d2:	4c05      	ldr	r4, [pc, #20]	@ (80001e8 <__do_global_dtors_aux+0x18>)
 80001d4:	7823      	ldrb	r3, [r4, #0]
 80001d6:	b933      	cbnz	r3, 80001e6 <__do_global_dtors_aux+0x16>
 80001d8:	4b04      	ldr	r3, [pc, #16]	@ (80001ec <__do_global_dtors_aux+0x1c>)
 80001da:	b113      	cbz	r3, 80001e2 <__do_global_dtors_aux+0x12>
 80001dc:	4804      	ldr	r0, [pc, #16]	@ (80001f0 <__do_global_dtors_aux+0x20>)
 80001de:	f3af 8000 	nop.w
 80001e2:	2301      	movs	r3, #1
 80001e4:	7023      	strb	r3, [r4, #0]
 80001e6:	bd10      	pop	{r4, pc}
 80001e8:	200001d8 	.word	0x200001d8
 80001ec:	00000000 	.word	0x00000000
 80001f0:	0800b994 	.word	0x0800b994

080001f4 <frame_dummy>:
 80001f4:	b508      	push	{r3, lr}
 80001f6:	4b03      	ldr	r3, [pc, #12]	@ (8000204 <frame_dummy+0x10>)
 80001f8:	b11b      	cbz	r3, 8000202 <frame_dummy+0xe>
 80001fa:	4903      	ldr	r1, [pc, #12]	@ (8000208 <frame_dummy+0x14>)
 80001fc:	4803      	ldr	r0, [pc, #12]	@ (800020c <frame_dummy+0x18>)
 80001fe:	f3af 8000 	nop.w
 8000202:	bd08      	pop	{r3, pc}
 8000204:	00000000 	.word	0x00000000
 8000208:	200001dc 	.word	0x200001dc
 800020c:	0800b994 	.word	0x0800b994

08000210 <memchr>:
 8000210:	f001 01ff 	and.w	r1, r1, #255	@ 0xff
 8000214:	2a10      	cmp	r2, #16
 8000216:	db2b      	blt.n	8000270 <memchr+0x60>
 8000218:	f010 0f07 	tst.w	r0, #7
 800021c:	d008      	beq.n	8000230 <memchr+0x20>
 800021e:	f810 3b01 	ldrb.w	r3, [r0], #1
 8000222:	3a01      	subs	r2, #1
 8000224:	428b      	cmp	r3, r1
 8000226:	d02d      	beq.n	8000284 <memchr+0x74>
 8000228:	f010 0f07 	tst.w	r0, #7
 800022c:	b342      	cbz	r2, 8000280 <memchr+0x70>
 800022e:	d1f6      	bne.n	800021e <memchr+0xe>
 8000230:	b4f0      	push	{r4, r5, r6, r7}
 8000232:	ea41 2101 	orr.w	r1, r1, r1, lsl #8
 8000236:	ea41 4101 	orr.w	r1, r1, r1, lsl #16
 800023a:	f022 0407 	bic.w	r4, r2, #7
 800023e:	f07f 0700 	mvns.w	r7, #0
 8000242:	2300      	movs	r3, #0
 8000244:	e8f0 5602 	ldrd	r5, r6, [r0], #8
 8000248:	3c08      	subs	r4, #8
 800024a:	ea85 0501 	eor.w	r5, r5, r1
 800024e:	ea86 0601 	eor.w	r6, r6, r1
 8000252:	fa85 f547 	uadd8	r5, r5, r7
 8000256:	faa3 f587 	sel	r5, r3, r7
 800025a:	fa86 f647 	uadd8	r6, r6, r7
 800025e:	faa5 f687 	sel	r6, r5, r7
 8000262:	b98e      	cbnz	r6, 8000288 <memchr+0x78>
 8000264:	d1ee      	bne.n	8000244 <memchr+0x34>
 8000266:	bcf0      	pop	{r4, r5, r6, r7}
 8000268:	f001 01ff 	and.w	r1, r1, #255	@ 0xff
 800026c:	f002 0207 	and.w	r2, r2, #7
 8000270:	b132      	cbz	r2, 8000280 <memchr+0x70>
 8000272:	f810 3b01 	ldrb.w	r3, [r0], #1
 8000276:	3a01      	subs	r2, #1
 8000278:	ea83 0301 	eor.w	r3, r3, r1
 800027c:	b113      	cbz	r3, 8000284 <memchr+0x74>
 800027e:	d1f8      	bne.n	8000272 <memchr+0x62>
 8000280:	2000      	movs	r0, #0
 8000282:	4770      	bx	lr
 8000284:	3801      	subs	r0, #1
 8000286:	4770      	bx	lr
 8000288:	2d00      	cmp	r5, #0
 800028a:	bf06      	itte	eq
 800028c:	4635      	moveq	r5, r6
 800028e:	3803      	subeq	r0, #3
 8000290:	3807      	subne	r0, #7
 8000292:	f015 0f01 	tst.w	r5, #1
 8000296:	d107      	bne.n	80002a8 <memchr+0x98>
 8000298:	3001      	adds	r0, #1
 800029a:	f415 7f80 	tst.w	r5, #256	@ 0x100
 800029e:	bf02      	ittt	eq
 80002a0:	3001      	addeq	r0, #1
 80002a2:	f415 3fc0 	tsteq.w	r5, #98304	@ 0x18000
 80002a6:	3001      	addeq	r0, #1
 80002a8:	bcf0      	pop	{r4, r5, r6, r7}
 80002aa:	3801      	subs	r0, #1
 80002ac:	4770      	bx	lr
 80002ae:	bf00      	nop

080002b0 <strlen>:
 80002b0:	4603      	mov	r3, r0
 80002b2:	f813 2b01 	ldrb.w	r2, [r3], #1
 80002b6:	2a00      	cmp	r2, #0
 80002b8:	d1fb      	bne.n	80002b2 <strlen+0x2>
 80002ba:	1a18      	subs	r0, r3, r0
 80002bc:	3801      	subs	r0, #1
 80002be:	4770      	bx	lr

080002c0 <__aeabi_drsub>:
 80002c0:	f081 4100 	eor.w	r1, r1, #2147483648	@ 0x80000000
 80002c4:	e002      	b.n	80002cc <__adddf3>
 80002c6:	bf00      	nop

080002c8 <__aeabi_dsub>:
 80002c8:	f083 4300 	eor.w	r3, r3, #2147483648	@ 0x80000000

080002cc <__adddf3>:
 80002cc:	b530      	push	{r4, r5, lr}
 80002ce:	ea4f 0441 	mov.w	r4, r1, lsl #1
 80002d2:	ea4f 0543 	mov.w	r5, r3, lsl #1
 80002d6:	ea94 0f05 	teq	r4, r5
 80002da:	bf08      	it	eq
 80002dc:	ea90 0f02 	teqeq	r0, r2
 80002e0:	bf1f      	itttt	ne
 80002e2:	ea54 0c00 	orrsne.w	ip, r4, r0
 80002e6:	ea55 0c02 	orrsne.w	ip, r5, r2
 80002ea:	ea7f 5c64 	mvnsne.w	ip, r4, asr #21
 80002ee:	ea7f 5c65 	mvnsne.w	ip, r5, asr #21
 80002f2:	f000 80e2 	beq.w	80004ba <__adddf3+0x1ee>
 80002f6:	ea4f 5454 	mov.w	r4, r4, lsr #21
 80002fa:	ebd4 5555 	rsbs	r5, r4, r5, lsr #21
 80002fe:	bfb8      	it	lt
 8000300:	426d      	neglt	r5, r5
 8000302:	dd0c      	ble.n	800031e <__adddf3+0x52>
 8000304:	442c      	add	r4, r5
 8000306:	ea80 0202 	eor.w	r2, r0, r2
 800030a:	ea81 0303 	eor.w	r3, r1, r3
 800030e:	ea82 0000 	eor.w	r0, r2, r0
 8000312:	ea83 0101 	eor.w	r1, r3, r1
 8000316:	ea80 0202 	eor.w	r2, r0, r2
 800031a:	ea81 0303 	eor.w	r3, r1, r3
 800031e:	2d36      	cmp	r5, #54	@ 0x36
 8000320:	bf88      	it	hi
 8000322:	bd30      	pophi	{r4, r5, pc}
 8000324:	f011 4f00 	tst.w	r1, #2147483648	@ 0x80000000
 8000328:	ea4f 3101 	mov.w	r1, r1, lsl #12
 800032c:	f44f 1c80 	mov.w	ip, #1048576	@ 0x100000
 8000330:	ea4c 3111 	orr.w	r1, ip, r1, lsr #12
 8000334:	d002      	beq.n	800033c <__adddf3+0x70>
 8000336:	4240      	negs	r0, r0
 8000338:	eb61 0141 	sbc.w	r1, r1, r1, lsl #1
 800033c:	f013 4f00 	tst.w	r3, #2147483648	@ 0x80000000
 8000340:	ea4f 3303 	mov.w	r3, r3, lsl #12
 8000344:	ea4c 3313 	orr.w	r3, ip, r3, lsr #12
 8000348:	d002      	beq.n	8000350 <__adddf3+0x84>
 800034a:	4252      	negs	r2, r2
 800034c:	eb63 0343 	sbc.w	r3, r3, r3, lsl #1
 8000350:	ea94 0f05 	teq	r4, r5
 8000354:	f000 80a7 	beq.w	80004a6 <__adddf3+0x1da>
 8000358:	f1a4 0401 	sub.w	r4, r4, #1
 800035c:	f1d5 0e20 	rsbs	lr, r5, #32
 8000360:	db0d      	blt.n	800037e <__adddf3+0xb2>
 8000362:	fa02 fc0e 	lsl.w	ip, r2, lr
 8000366:	fa22 f205 	lsr.w	r2, r2, r5
 800036a:	1880      	adds	r0, r0, r2
 800036c:	f141 0100 	adc.w	r1, r1, #0
 8000370:	fa03 f20e 	lsl.w	r2, r3, lr
 8000374:	1880      	adds	r0, r0, r2
 8000376:	fa43 f305 	asr.w	r3, r3, r5
 800037a:	4159      	adcs	r1, r3
 800037c:	e00e      	b.n	800039c <__adddf3+0xd0>
 800037e:	f1a5 0520 	sub.w	r5, r5, #32
 8000382:	f10e 0e20 	add.w	lr, lr, #32
 8000386:	2a01      	cmp	r2, #1
 8000388:	fa03 fc0e 	lsl.w	ip, r3, lr
 800038c:	bf28      	it	cs
 800038e:	f04c 0c02 	orrcs.w	ip, ip, #2
 8000392:	fa43 f305 	asr.w	r3, r3, r5
 8000396:	18c0      	adds	r0, r0, r3
 8000398:	eb51 71e3 	adcs.w	r1, r1, r3, asr #31
 800039c:	f001 4500 	and.w	r5, r1, #2147483648	@ 0x80000000
 80003a0:	d507      	bpl.n	80003b2 <__adddf3+0xe6>
 80003a2:	f04f 0e00 	mov.w	lr, #0
 80003a6:	f1dc 0c00 	rsbs	ip, ip, #0
 80003aa:	eb7e 0000 	sbcs.w	r0, lr, r0
 80003ae:	eb6e 0101 	sbc.w	r1, lr, r1
 80003b2:	f5b1 1f80 	cmp.w	r1, #1048576	@ 0x100000
 80003b6:	d31b      	bcc.n	80003f0 <__adddf3+0x124>
 80003b8:	f5b1 1f00 	cmp.w	r1, #2097152	@ 0x200000
 80003bc:	d30c      	bcc.n	80003d8 <__adddf3+0x10c>
 80003be:	0849      	lsrs	r1, r1, #1
 80003c0:	ea5f 0030 	movs.w	r0, r0, rrx
 80003c4:	ea4f 0c3c 	mov.w	ip, ip, rrx
 80003c8:	f104 0401 	add.w	r4, r4, #1
 80003cc:	ea4f 5244 	mov.w	r2, r4, lsl #21
 80003d0:	f512 0f80 	cmn.w	r2, #4194304	@ 0x400000
 80003d4:	f080 809a 	bcs.w	800050c <__adddf3+0x240>
 80003d8:	f1bc 4f00 	cmp.w	ip, #2147483648	@ 0x80000000
 80003dc:	bf08      	it	eq
 80003de:	ea5f 0c50 	movseq.w	ip, r0, lsr #1
 80003e2:	f150 0000 	adcs.w	r0, r0, #0
 80003e6:	eb41 5104 	adc.w	r1, r1, r4, lsl #20
 80003ea:	ea41 0105 	orr.w	r1, r1, r5
 80003ee:	bd30      	pop	{r4, r5, pc}
 80003f0:	ea5f 0c4c 	movs.w	ip, ip, lsl #1
 80003f4:	4140      	adcs	r0, r0
 80003f6:	eb41 0101 	adc.w	r1, r1, r1
 80003fa:	3c01      	subs	r4, #1
 80003fc:	bf28      	it	cs
 80003fe:	f5b1 1f80 	cmpcs.w	r1, #1048576	@ 0x100000
 8000402:	d2e9      	bcs.n	80003d8 <__adddf3+0x10c>
 8000404:	f091 0f00 	teq	r1, #0
 8000408:	bf04      	itt	eq
 800040a:	4601      	moveq	r1, r0
 800040c:	2000      	moveq	r0, #0
 800040e:	fab1 f381 	clz	r3, r1
 8000412:	bf08      	it	eq
 8000414:	3320      	addeq	r3, #32
 8000416:	f1a3 030b 	sub.w	r3, r3, #11
 800041a:	f1b3 0220 	subs.w	r2, r3, #32
 800041e:	da0c      	bge.n	800043a <__adddf3+0x16e>
 8000420:	320c      	adds	r2, #12
 8000422:	dd08      	ble.n	8000436 <__adddf3+0x16a>
 8000424:	f102 0c14 	add.w	ip, r2, #20
 8000428:	f1c2 020c 	rsb	r2, r2, #12
 800042c:	fa01 f00c 	lsl.w	r0, r1, ip
 8000430:	fa21 f102 	lsr.w	r1, r1, r2
 8000434:	e00c      	b.n	8000450 <__adddf3+0x184>
 8000436:	f102 0214 	add.w	r2, r2, #20
 800043a:	bfd8      	it	le
 800043c:	f1c2 0c20 	rsble	ip, r2, #32
 8000440:	fa01 f102 	lsl.w	r1, r1, r2
 8000444:	fa20 fc0c 	lsr.w	ip, r0, ip
 8000448:	bfdc      	itt	le
 800044a:	ea41 010c 	orrle.w	r1, r1, ip
 800044e:	4090      	lslle	r0, r2
 8000450:	1ae4      	subs	r4, r4, r3
 8000452:	bfa2      	ittt	ge
 8000454:	eb01 5104 	addge.w	r1, r1, r4, lsl #20
 8000458:	4329      	orrge	r1, r5
 800045a:	bd30      	popge	{r4, r5, pc}
 800045c:	ea6f 0404 	mvn.w	r4, r4
 8000460:	3c1f      	subs	r4, #31
 8000462:	da1c      	bge.n	800049e <__adddf3+0x1d2>
 8000464:	340c      	adds	r4, #12
 8000466:	dc0e      	bgt.n	8000486 <__adddf3+0x1ba>
 8000468:	f104 0414 	add.w	r4, r4, #20
 800046c:	f1c4 0220 	rsb	r2, r4, #32
 8000470:	fa20 f004 	lsr.w	r0, r0, r4
 8000474:	fa01 f302 	lsl.w	r3, r1, r2
 8000478:	ea40 0003 	orr.w	r0, r0, r3
 800047c:	fa21 f304 	lsr.w	r3, r1, r4
 8000480:	ea45 0103 	orr.w	r1, r5, r3
 8000484:	bd30      	pop	{r4, r5, pc}
 8000486:	f1c4 040c 	rsb	r4, r4, #12
 800048a:	f1c4 0220 	rsb	r2, r4, #32
 800048e:	fa20 f002 	lsr.w	r0, r0, r2
 8000492:	fa01 f304 	lsl.w	r3, r1, r4
 8000496:	ea40 0003 	orr.w	r0, r0, r3
 800049a:	4629      	mov	r1, r5
 800049c:	bd30      	pop	{r4, r5, pc}
 800049e:	fa21 f004 	lsr.w	r0, r1, r4
 80004a2:	4629      	mov	r1, r5
 80004a4:	bd30      	pop	{r4, r5, pc}
 80004a6:	f094 0f00 	teq	r4, #0
 80004aa:	f483 1380 	eor.w	r3, r3, #1048576	@ 0x100000
 80004ae:	bf06      	itte	eq
 80004b0:	f481 1180 	eoreq.w	r1, r1, #1048576	@ 0x100000
 80004b4:	3401      	addeq	r4, #1
 80004b6:	3d01      	subne	r5, #1
 80004b8:	e74e      	b.n	8000358 <__adddf3+0x8c>
 80004ba:	ea7f 5c64 	mvns.w	ip, r4, asr #21
 80004be:	bf18      	it	ne
 80004c0:	ea7f 5c65 	mvnsne.w	ip, r5, asr #21
 80004c4:	d029      	beq.n	800051a <__adddf3+0x24e>
 80004c6:	ea94 0f05 	teq	r4, r5
 80004ca:	bf08      	it	eq
 80004cc:	ea90 0f02 	teqeq	r0, r2
 80004d0:	d005      	beq.n	80004de <__adddf3+0x212>
 80004d2:	ea54 0c00 	orrs.w	ip, r4, r0
 80004d6:	bf04      	itt	eq
 80004d8:	4619      	moveq	r1, r3
 80004da:	4610      	moveq	r0, r2
 80004dc:	bd30      	pop	{r4, r5, pc}
 80004de:	ea91 0f03 	teq	r1, r3
 80004e2:	bf1e      	ittt	ne
 80004e4:	2100      	movne	r1, #0
 80004e6:	2000      	movne	r0, #0
 80004e8:	bd30      	popne	{r4, r5, pc}
 80004ea:	ea5f 5c54 	movs.w	ip, r4, lsr #21
 80004ee:	d105      	bne.n	80004fc <__adddf3+0x230>
 80004f0:	0040      	lsls	r0, r0, #1
 80004f2:	4149      	adcs	r1, r1
 80004f4:	bf28      	it	cs
 80004f6:	f041 4100 	orrcs.w	r1, r1, #2147483648	@ 0x80000000
 80004fa:	bd30      	pop	{r4, r5, pc}
 80004fc:	f514 0480 	adds.w	r4, r4, #4194304	@ 0x400000
 8000500:	bf3c      	itt	cc
 8000502:	f501 1180 	addcc.w	r1, r1, #1048576	@ 0x100000
 8000506:	bd30      	popcc	{r4, r5, pc}
 8000508:	f001 4500 	and.w	r5, r1, #2147483648	@ 0x80000000
 800050c:	f045 41fe 	orr.w	r1, r5, #2130706432	@ 0x7f000000
 8000510:	f441 0170 	orr.w	r1, r1, #15728640	@ 0xf00000
 8000514:	f04f 0000 	mov.w	r0, #0
 8000518:	bd30      	pop	{r4, r5, pc}
 800051a:	ea7f 5c64 	mvns.w	ip, r4, asr #21
 800051e:	bf1a      	itte	ne
 8000520:	4619      	movne	r1, r3
 8000522:	4610      	movne	r0, r2
 8000524:	ea7f 5c65 	mvnseq.w	ip, r5, asr #21
 8000528:	bf1c      	itt	ne
 800052a:	460b      	movne	r3, r1
 800052c:	4602      	movne	r2, r0
 800052e:	ea50 3401 	orrs.w	r4, r0, r1, lsl #12
 8000532:	bf06      	itte	eq
 8000534:	ea52 3503 	orrseq.w	r5, r2, r3, lsl #12
 8000538:	ea91 0f03 	teqeq	r1, r3
 800053c:	f441 2100 	orrne.w	r1, r1, #524288	@ 0x80000
 8000540:	bd30      	pop	{r4, r5, pc}
 8000542:	bf00      	nop

08000544 <__aeabi_ui2d>:
 8000544:	f090 0f00 	teq	r0, #0
 8000548:	bf04      	itt	eq
 800054a:	2100      	moveq	r1, #0
 800054c:	4770      	bxeq	lr
 800054e:	b530      	push	{r4, r5, lr}
 8000550:	f44f 6480 	mov.w	r4, #1024	@ 0x400
 8000554:	f104 0432 	add.w	r4, r4, #50	@ 0x32
 8000558:	f04f 0500 	mov.w	r5, #0
 800055c:	f04f 0100 	mov.w	r1, #0
 8000560:	e750      	b.n	8000404 <__adddf3+0x138>
 8000562:	bf00      	nop

08000564 <__aeabi_i2d>:
 8000564:	f090 0f00 	teq	r0, #0
 8000568:	bf04      	itt	eq
 800056a:	2100      	moveq	r1, #0
 800056c:	4770      	bxeq	lr
 800056e:	b530      	push	{r4, r5, lr}
 8000570:	f44f 6480 	mov.w	r4, #1024	@ 0x400
 8000574:	f104 0432 	add.w	r4, r4, #50	@ 0x32
 8000578:	f010 4500 	ands.w	r5, r0, #2147483648	@ 0x80000000
 800057c:	bf48      	it	mi
 800057e:	4240      	negmi	r0, r0
 8000580:	f04f 0100 	mov.w	r1, #0
 8000584:	e73e      	b.n	8000404 <__adddf3+0x138>
 8000586:	bf00      	nop

08000588 <__aeabi_f2d>:
 8000588:	0042      	lsls	r2, r0, #1
 800058a:	ea4f 01e2 	mov.w	r1, r2, asr #3
 800058e:	ea4f 0131 	mov.w	r1, r1, rrx
 8000592:	ea4f 7002 	mov.w	r0, r2, lsl #28
 8000596:	bf1f      	itttt	ne
 8000598:	f012 437f 	andsne.w	r3, r2, #4278190080	@ 0xff000000
 800059c:	f093 4f7f 	teqne	r3, #4278190080	@ 0xff000000
 80005a0:	f081 5160 	eorne.w	r1, r1, #939524096	@ 0x38000000
 80005a4:	4770      	bxne	lr
 80005a6:	f032 427f 	bics.w	r2, r2, #4278190080	@ 0xff000000
 80005aa:	bf08      	it	eq
 80005ac:	4770      	bxeq	lr
 80005ae:	f093 4f7f 	teq	r3, #4278190080	@ 0xff000000
 80005b2:	bf04      	itt	eq
 80005b4:	f441 2100 	orreq.w	r1, r1, #524288	@ 0x80000
 80005b8:	4770      	bxeq	lr
 80005ba:	b530      	push	{r4, r5, lr}
 80005bc:	f44f 7460 	mov.w	r4, #896	@ 0x380
 80005c0:	f001 4500 	and.w	r5, r1, #2147483648	@ 0x80000000
 80005c4:	f021 4100 	bic.w	r1, r1, #2147483648	@ 0x80000000
 80005c8:	e71c      	b.n	8000404 <__adddf3+0x138>
 80005ca:	bf00      	nop

080005cc <__aeabi_ul2d>:
 80005cc:	ea50 0201 	orrs.w	r2, r0, r1
 80005d0:	bf08      	it	eq
 80005d2:	4770      	bxeq	lr
 80005d4:	b530      	push	{r4, r5, lr}
 80005d6:	f04f 0500 	mov.w	r5, #0
 80005da:	e00a      	b.n	80005f2 <__aeabi_l2d+0x16>

080005dc <__aeabi_l2d>:
 80005dc:	ea50 0201 	orrs.w	r2, r0, r1
 80005e0:	bf08      	it	eq
 80005e2:	4770      	bxeq	lr
 80005e4:	b530      	push	{r4, r5, lr}
 80005e6:	f011 4500 	ands.w	r5, r1, #2147483648	@ 0x80000000
 80005ea:	d502      	bpl.n	80005f2 <__aeabi_l2d+0x16>
 80005ec:	4240      	negs	r0, r0
 80005ee:	eb61 0141 	sbc.w	r1, r1, r1, lsl #1
 80005f2:	f44f 6480 	mov.w	r4, #1024	@ 0x400
 80005f6:	f104 0432 	add.w	r4, r4, #50	@ 0x32
 80005fa:	ea5f 5c91 	movs.w	ip, r1, lsr #22
 80005fe:	f43f aed8 	beq.w	80003b2 <__adddf3+0xe6>
 8000602:	f04f 0203 	mov.w	r2, #3
 8000606:	ea5f 0cdc 	movs.w	ip, ip, lsr #3
 800060a:	bf18      	it	ne
 800060c:	3203      	addne	r2, #3
 800060e:	ea5f 0cdc 	movs.w	ip, ip, lsr #3
 8000612:	bf18      	it	ne
 8000614:	3203      	addne	r2, #3
 8000616:	eb02 02dc 	add.w	r2, r2, ip, lsr #3
 800061a:	f1c2 0320 	rsb	r3, r2, #32
 800061e:	fa00 fc03 	lsl.w	ip, r0, r3
 8000622:	fa20 f002 	lsr.w	r0, r0, r2
 8000626:	fa01 fe03 	lsl.w	lr, r1, r3
 800062a:	ea40 000e 	orr.w	r0, r0, lr
 800062e:	fa21 f102 	lsr.w	r1, r1, r2
 8000632:	4414      	add	r4, r2
 8000634:	e6bd      	b.n	80003b2 <__adddf3+0xe6>
 8000636:	bf00      	nop

08000638 <__aeabi_dmul>:
 8000638:	b570      	push	{r4, r5, r6, lr}
 800063a:	f04f 0cff 	mov.w	ip, #255	@ 0xff
 800063e:	f44c 6ce0 	orr.w	ip, ip, #1792	@ 0x700
 8000642:	ea1c 5411 	ands.w	r4, ip, r1, lsr #20
 8000646:	bf1d      	ittte	ne
 8000648:	ea1c 5513 	andsne.w	r5, ip, r3, lsr #20
 800064c:	ea94 0f0c 	teqne	r4, ip
 8000650:	ea95 0f0c 	teqne	r5, ip
 8000654:	f000 f8de 	bleq	8000814 <__aeabi_dmul+0x1dc>
 8000658:	442c      	add	r4, r5
 800065a:	ea81 0603 	eor.w	r6, r1, r3
 800065e:	ea21 514c 	bic.w	r1, r1, ip, lsl #21
 8000662:	ea23 534c 	bic.w	r3, r3, ip, lsl #21
 8000666:	ea50 3501 	orrs.w	r5, r0, r1, lsl #12
 800066a:	bf18      	it	ne
 800066c:	ea52 3503 	orrsne.w	r5, r2, r3, lsl #12
 8000670:	f441 1180 	orr.w	r1, r1, #1048576	@ 0x100000
 8000674:	f443 1380 	orr.w	r3, r3, #1048576	@ 0x100000
 8000678:	d038      	beq.n	80006ec <__aeabi_dmul+0xb4>
 800067a:	fba0 ce02 	umull	ip, lr, r0, r2
 800067e:	f04f 0500 	mov.w	r5, #0
 8000682:	fbe1 e502 	umlal	lr, r5, r1, r2
 8000686:	f006 4200 	and.w	r2, r6, #2147483648	@ 0x80000000
 800068a:	fbe0 e503 	umlal	lr, r5, r0, r3
 800068e:	f04f 0600 	mov.w	r6, #0
 8000692:	fbe1 5603 	umlal	r5, r6, r1, r3
 8000696:	f09c 0f00 	teq	ip, #0
 800069a:	bf18      	it	ne
 800069c:	f04e 0e01 	orrne.w	lr, lr, #1
 80006a0:	f1a4 04ff 	sub.w	r4, r4, #255	@ 0xff
 80006a4:	f5b6 7f00 	cmp.w	r6, #512	@ 0x200
 80006a8:	f564 7440 	sbc.w	r4, r4, #768	@ 0x300
 80006ac:	d204      	bcs.n	80006b8 <__aeabi_dmul+0x80>
 80006ae:	ea5f 0e4e 	movs.w	lr, lr, lsl #1
 80006b2:	416d      	adcs	r5, r5
 80006b4:	eb46 0606 	adc.w	r6, r6, r6
 80006b8:	ea42 21c6 	orr.w	r1, r2, r6, lsl #11
 80006bc:	ea41 5155 	orr.w	r1, r1, r5, lsr #21
 80006c0:	ea4f 20c5 	mov.w	r0, r5, lsl #11
 80006c4:	ea40 505e 	orr.w	r0, r0, lr, lsr #21
 80006c8:	ea4f 2ece 	mov.w	lr, lr, lsl #11
 80006cc:	f1b4 0cfd 	subs.w	ip, r4, #253	@ 0xfd
 80006d0:	bf88      	it	hi
 80006d2:	f5bc 6fe0 	cmphi.w	ip, #1792	@ 0x700
 80006d6:	d81e      	bhi.n	8000716 <__aeabi_dmul+0xde>
 80006d8:	f1be 4f00 	cmp.w	lr, #2147483648	@ 0x80000000
 80006dc:	bf08      	it	eq
 80006de:	ea5f 0e50 	movseq.w	lr, r0, lsr #1
 80006e2:	f150 0000 	adcs.w	r0, r0, #0
 80006e6:	eb41 5104 	adc.w	r1, r1, r4, lsl #20
 80006ea:	bd70      	pop	{r4, r5, r6, pc}
 80006ec:	f006 4600 	and.w	r6, r6, #2147483648	@ 0x80000000
 80006f0:	ea46 0101 	orr.w	r1, r6, r1
 80006f4:	ea40 0002 	orr.w	r0, r0, r2
 80006f8:	ea81 0103 	eor.w	r1, r1, r3
 80006fc:	ebb4 045c 	subs.w	r4, r4, ip, lsr #1
 8000700:	bfc2      	ittt	gt
 8000702:	ebd4 050c 	rsbsgt	r5, r4, ip
 8000706:	ea41 5104 	orrgt.w	r1, r1, r4, lsl #20
 800070a:	bd70      	popgt	{r4, r5, r6, pc}
 800070c:	f441 1180 	orr.w	r1, r1, #1048576	@ 0x100000
 8000710:	f04f 0e00 	mov.w	lr, #0
 8000714:	3c01      	subs	r4, #1
 8000716:	f300 80ab 	bgt.w	8000870 <__aeabi_dmul+0x238>
 800071a:	f114 0f36 	cmn.w	r4, #54	@ 0x36
 800071e:	bfde      	ittt	le
 8000720:	2000      	movle	r0, #0
 8000722:	f001 4100 	andle.w	r1, r1, #2147483648	@ 0x80000000
 8000726:	bd70      	pople	{r4, r5, r6, pc}
 8000728:	f1c4 0400 	rsb	r4, r4, #0
 800072c:	3c20      	subs	r4, #32
 800072e:	da35      	bge.n	800079c <__aeabi_dmul+0x164>
 8000730:	340c      	adds	r4, #12
 8000732:	dc1b      	bgt.n	800076c <__aeabi_dmul+0x134>
 8000734:	f104 0414 	add.w	r4, r4, #20
 8000738:	f1c4 0520 	rsb	r5, r4, #32
 800073c:	fa00 f305 	lsl.w	r3, r0, r5
 8000740:	fa20 f004 	lsr.w	r0, r0, r4
 8000744:	fa01 f205 	lsl.w	r2, r1, r5
 8000748:	ea40 0002 	orr.w	r0, r0, r2
 800074c:	f001 4200 	and.w	r2, r1, #2147483648	@ 0x80000000
 8000750:	f021 4100 	bic.w	r1, r1, #2147483648	@ 0x80000000
 8000754:	eb10 70d3 	adds.w	r0, r0, r3, lsr #31
 8000758:	fa21 f604 	lsr.w	r6, r1, r4
 800075c:	eb42 0106 	adc.w	r1, r2, r6
 8000760:	ea5e 0e43 	orrs.w	lr, lr, r3, lsl #1
 8000764:	bf08      	it	eq
 8000766:	ea20 70d3 	biceq.w	r0, r0, r3, lsr #31
 800076a:	bd70      	pop	{r4, r5, r6, pc}
 800076c:	f1c4 040c 	rsb	r4, r4, #12
 8000770:	f1c4 0520 	rsb	r5, r4, #32
 8000774:	fa00 f304 	lsl.w	r3, r0, r4
 8000778:	fa20 f005 	lsr.w	r0, r0, r5
 800077c:	fa01 f204 	lsl.w	r2, r1, r4
 8000780:	ea40 0002 	orr.w	r0, r0, r2
 8000784:	f001 4100 	and.w	r1, r1, #2147483648	@ 0x80000000
 8000788:	eb10 70d3 	adds.w	r0, r0, r3, lsr #31
 800078c:	f141 0100 	adc.w	r1, r1, #0
 8000790:	ea5e 0e43 	orrs.w	lr, lr, r3, lsl #1
 8000794:	bf08      	it	eq
 8000796:	ea20 70d3 	biceq.w	r0, r0, r3, lsr #31
 800079a:	bd70      	pop	{r4, r5, r6, pc}
 800079c:	f1c4 0520 	rsb	r5, r4, #32
 80007a0:	fa00 f205 	lsl.w	r2, r0, r5
 80007a4:	ea4e 0e02 	orr.w	lr, lr, r2
 80007a8:	fa20 f304 	lsr.w	r3, r0, r4
 80007ac:	fa01 f205 	lsl.w	r2, r1, r5
 80007b0:	ea43 0302 	orr.w	r3, r3, r2
 80007b4:	fa21 f004 	lsr.w	r0, r1, r4
 80007b8:	f001 4100 	and.w	r1, r1, #2147483648	@ 0x80000000
 80007bc:	fa21 f204 	lsr.w	r2, r1, r4
 80007c0:	ea20 0002 	bic.w	r0, r0, r2
 80007c4:	eb00 70d3 	add.w	r0, r0, r3, lsr #31
 80007c8:	ea5e 0e43 	orrs.w	lr, lr, r3, lsl #1
 80007cc:	bf08      	it	eq
 80007ce:	ea20 70d3 	biceq.w	r0, r0, r3, lsr #31
 80007d2:	bd70      	pop	{r4, r5, r6, pc}
 80007d4:	f094 0f00 	teq	r4, #0
 80007d8:	d10f      	bne.n	80007fa <__aeabi_dmul+0x1c2>
 80007da:	f001 4600 	and.w	r6, r1, #2147483648	@ 0x80000000
 80007de:	0040      	lsls	r0, r0, #1
 80007e0:	eb41 0101 	adc.w	r1, r1, r1
 80007e4:	f411 1f80 	tst.w	r1, #1048576	@ 0x100000
 80007e8:	bf08      	it	eq
 80007ea:	3c01      	subeq	r4, #1
 80007ec:	d0f7      	beq.n	80007de <__aeabi_dmul+0x1a6>
 80007ee:	ea41 0106 	orr.w	r1, r1, r6
 80007f2:	f095 0f00 	teq	r5, #0
 80007f6:	bf18      	it	ne
 80007f8:	4770      	bxne	lr
 80007fa:	f003 4600 	and.w	r6, r3, #2147483648	@ 0x80000000
 80007fe:	0052      	lsls	r2, r2, #1
 8000800:	eb43 0303 	adc.w	r3, r3, r3
 8000804:	f413 1f80 	tst.w	r3, #1048576	@ 0x100000
 8000808:	bf08      	it	eq
 800080a:	3d01      	subeq	r5, #1
 800080c:	d0f7      	beq.n	80007fe <__aeabi_dmul+0x1c6>
 800080e:	ea43 0306 	orr.w	r3, r3, r6
 8000812:	4770      	bx	lr
 8000814:	ea94 0f0c 	teq	r4, ip
 8000818:	ea0c 5513 	and.w	r5, ip, r3, lsr #20
 800081c:	bf18      	it	ne
 800081e:	ea95 0f0c 	teqne	r5, ip
 8000822:	d00c      	beq.n	800083e <__aeabi_dmul+0x206>
 8000824:	ea50 0641 	orrs.w	r6, r0, r1, lsl #1
 8000828:	bf18      	it	ne
 800082a:	ea52 0643 	orrsne.w	r6, r2, r3, lsl #1
 800082e:	d1d1      	bne.n	80007d4 <__aeabi_dmul+0x19c>
 8000830:	ea81 0103 	eor.w	r1, r1, r3
 8000834:	f001 4100 	and.w	r1, r1, #2147483648	@ 0x80000000
 8000838:	f04f 0000 	mov.w	r0, #0
 800083c:	bd70      	pop	{r4, r5, r6, pc}
 800083e:	ea50 0641 	orrs.w	r6, r0, r1, lsl #1
 8000842:	bf06      	itte	eq
 8000844:	4610      	moveq	r0, r2
 8000846:	4619      	moveq	r1, r3
 8000848:	ea52 0643 	orrsne.w	r6, r2, r3, lsl #1
 800084c:	d019      	beq.n	8000882 <__aeabi_dmul+0x24a>
 800084e:	ea94 0f0c 	teq	r4, ip
 8000852:	d102      	bne.n	800085a <__aeabi_dmul+0x222>
 8000854:	ea50 3601 	orrs.w	r6, r0, r1, lsl #12
 8000858:	d113      	bne.n	8000882 <__aeabi_dmul+0x24a>
 800085a:	ea95 0f0c 	teq	r5, ip
 800085e:	d105      	bne.n	800086c <__aeabi_dmul+0x234>
 8000860:	ea52 3603 	orrs.w	r6, r2, r3, lsl #12
 8000864:	bf1c      	itt	ne
 8000866:	4610      	movne	r0, r2
 8000868:	4619      	movne	r1, r3
 800086a:	d10a      	bne.n	8000882 <__aeabi_dmul+0x24a>
 800086c:	ea81 0103 	eor.w	r1, r1, r3
 8000870:	f001 4100 	and.w	r1, r1, #2147483648	@ 0x80000000
 8000874:	f041 41fe 	orr.w	r1, r1, #2130706432	@ 0x7f000000
 8000878:	f441 0170 	orr.w	r1, r1, #15728640	@ 0xf00000
 800087c:	f04f 0000 	mov.w	r0, #0
 8000880:	bd70      	pop	{r4, r5, r6, pc}
 8000882:	f041 41fe 	orr.w	r1, r1, #2130706432	@ 0x7f000000
 8000886:	f441 0178 	orr.w	r1, r1, #16252928	@ 0xf80000
 800088a:	bd70      	pop	{r4, r5, r6, pc}

0800088c <__aeabi_ddiv>:
 800088c:	b570      	push	{r4, r5, r6, lr}
 800088e:	f04f 0cff 	mov.w	ip, #255	@ 0xff
 8000892:	f44c 6ce0 	orr.w	ip, ip, #1792	@ 0x700
 8000896:	ea1c 5411 	ands.w	r4, ip, r1, lsr #20
 800089a:	bf1d      	ittte	ne
 800089c:	ea1c 5513 	andsne.w	r5, ip, r3, lsr #20
 80008a0:	ea94 0f0c 	teqne	r4, ip
 80008a4:	ea95 0f0c 	teqne	r5, ip
 80008a8:	f000 f8a7 	bleq	80009fa <__aeabi_ddiv+0x16e>
 80008ac:	eba4 0405 	sub.w	r4, r4, r5
 80008b0:	ea81 0e03 	eor.w	lr, r1, r3
 80008b4:	ea52 3503 	orrs.w	r5, r2, r3, lsl #12
 80008b8:	ea4f 3101 	mov.w	r1, r1, lsl #12
 80008bc:	f000 8088 	beq.w	80009d0 <__aeabi_ddiv+0x144>
 80008c0:	ea4f 3303 	mov.w	r3, r3, lsl #12
 80008c4:	f04f 5580 	mov.w	r5, #268435456	@ 0x10000000
 80008c8:	ea45 1313 	orr.w	r3, r5, r3, lsr #4
 80008cc:	ea43 6312 	orr.w	r3, r3, r2, lsr #24
 80008d0:	ea4f 2202 	mov.w	r2, r2, lsl #8
 80008d4:	ea45 1511 	orr.w	r5, r5, r1, lsr #4
 80008d8:	ea45 6510 	orr.w	r5, r5, r0, lsr #24
 80008dc:	ea4f 2600 	mov.w	r6, r0, lsl #8
 80008e0:	f00e 4100 	and.w	r1, lr, #2147483648	@ 0x80000000
 80008e4:	429d      	cmp	r5, r3
 80008e6:	bf08      	it	eq
 80008e8:	4296      	cmpeq	r6, r2
 80008ea:	f144 04fd 	adc.w	r4, r4, #253	@ 0xfd
 80008ee:	f504 7440 	add.w	r4, r4, #768	@ 0x300
 80008f2:	d202      	bcs.n	80008fa <__aeabi_ddiv+0x6e>
 80008f4:	085b      	lsrs	r3, r3, #1
 80008f6:	ea4f 0232 	mov.w	r2, r2, rrx
 80008fa:	1ab6      	subs	r6, r6, r2
 80008fc:	eb65 0503 	sbc.w	r5, r5, r3
 8000900:	085b      	lsrs	r3, r3, #1
 8000902:	ea4f 0232 	mov.w	r2, r2, rrx
 8000906:	f44f 1080 	mov.w	r0, #1048576	@ 0x100000
 800090a:	f44f 2c00 	mov.w	ip, #524288	@ 0x80000
 800090e:	ebb6 0e02 	subs.w	lr, r6, r2
 8000912:	eb75 0e03 	sbcs.w	lr, r5, r3
 8000916:	bf22      	ittt	cs
 8000918:	1ab6      	subcs	r6, r6, r2
 800091a:	4675      	movcs	r5, lr
 800091c:	ea40 000c 	orrcs.w	r0, r0, ip
 8000920:	085b      	lsrs	r3, r3, #1
 8000922:	ea4f 0232 	mov.w	r2, r2, rrx
 8000926:	ebb6 0e02 	subs.w	lr, r6, r2
 800092a:	eb75 0e03 	sbcs.w	lr, r5, r3
 800092e:	bf22      	ittt	cs
 8000930:	1ab6      	subcs	r6, r6, r2
 8000932:	4675      	movcs	r5, lr
 8000934:	ea40 005c 	orrcs.w	r0, r0, ip, lsr #1
 8000938:	085b      	lsrs	r3, r3, #1
 800093a:	ea4f 0232 	mov.w	r2, r2, rrx
 800093e:	ebb6 0e02 	subs.w	lr, r6, r2
 8000942:	eb75 0e03 	sbcs.w	lr, r5, r3
 8000946:	bf22      	ittt	cs
 8000948:	1ab6      	subcs	r6, r6, r2
 800094a:	4675      	movcs	r5, lr
 800094c:	ea40 009c 	orrcs.w	r0, r0, ip, lsr #2
 8000950:	085b      	lsrs	r3, r3, #1
 8000952:	ea4f 0232 	mov.w	r2, r2, rrx
 8000956:	ebb6 0e02 	subs.w	lr, r6, r2
 800095a:	eb75 0e03 	sbcs.w	lr, r5, r3
 800095e:	bf22      	ittt	cs
 8000960:	1ab6      	subcs	r6, r6, r2
 8000962:	4675      	movcs	r5, lr
 8000964:	ea40 00dc 	orrcs.w	r0, r0, ip, lsr #3
 8000968:	ea55 0e06 	orrs.w	lr, r5, r6
 800096c:	d018      	beq.n	80009a0 <__aeabi_ddiv+0x114>
 800096e:	ea4f 1505 	mov.w	r5, r5, lsl #4
 8000972:	ea45 7516 	orr.w	r5, r5, r6, lsr #28
 8000976:	ea4f 1606 	mov.w	r6, r6, lsl #4
 800097a:	ea4f 03c3 	mov.w	r3, r3, lsl #3
 800097e:	ea43 7352 	orr.w	r3, r3, r2, lsr #29
 8000982:	ea4f 02c2 	mov.w	r2, r2, lsl #3
 8000986:	ea5f 1c1c 	movs.w	ip, ip, lsr #4
 800098a:	d1c0      	bne.n	800090e <__aeabi_ddiv+0x82>
 800098c:	f411 1f80 	tst.w	r1, #1048576	@ 0x100000
 8000990:	d10b      	bne.n	80009aa <__aeabi_ddiv+0x11e>
 8000992:	ea41 0100 	orr.w	r1, r1, r0
 8000996:	f04f 0000 	mov.w	r0, #0
 800099a:	f04f 4c00 	mov.w	ip, #2147483648	@ 0x80000000
 800099e:	e7b6      	b.n	800090e <__aeabi_ddiv+0x82>
 80009a0:	f411 1f80 	tst.w	r1, #1048576	@ 0x100000
 80009a4:	bf04      	itt	eq
 80009a6:	4301      	orreq	r1, r0
 80009a8:	2000      	moveq	r0, #0
 80009aa:	f1b4 0cfd 	subs.w	ip, r4, #253	@ 0xfd
 80009ae:	bf88      	it	hi
 80009b0:	f5bc 6fe0 	cmphi.w	ip, #1792	@ 0x700
 80009b4:	f63f aeaf 	bhi.w	8000716 <__aeabi_dmul+0xde>
 80009b8:	ebb5 0c03 	subs.w	ip, r5, r3
 80009bc:	bf04      	itt	eq
 80009be:	ebb6 0c02 	subseq.w	ip, r6, r2
 80009c2:	ea5f 0c50 	movseq.w	ip, r0, lsr #1
 80009c6:	f150 0000 	adcs.w	r0, r0, #0
 80009ca:	eb41 5104 	adc.w	r1, r1, r4, lsl #20
 80009ce:	bd70      	pop	{r4, r5, r6, pc}
 80009d0:	f00e 4e00 	and.w	lr, lr, #2147483648	@ 0x80000000
 80009d4:	ea4e 3111 	orr.w	r1, lr, r1, lsr #12
 80009d8:	eb14 045c 	adds.w	r4, r4, ip, lsr #1
 80009dc:	bfc2      	ittt	gt
 80009de:	ebd4 050c 	rsbsgt	r5, r4, ip
 80009e2:	ea41 5104 	orrgt.w	r1, r1, r4, lsl #20
 80009e6:	bd70      	popgt	{r4, r5, r6, pc}
 80009e8:	f441 1180 	orr.w	r1, r1, #1048576	@ 0x100000
 80009ec:	f04f 0e00 	mov.w	lr, #0
 80009f0:	3c01      	subs	r4, #1
 80009f2:	e690      	b.n	8000716 <__aeabi_dmul+0xde>
 80009f4:	ea45 0e06 	orr.w	lr, r5, r6
 80009f8:	e68d      	b.n	8000716 <__aeabi_dmul+0xde>
 80009fa:	ea0c 5513 	and.w	r5, ip, r3, lsr #20
 80009fe:	ea94 0f0c 	teq	r4, ip
 8000a02:	bf08      	it	eq
 8000a04:	ea95 0f0c 	teqeq	r5, ip
 8000a08:	f43f af3b 	beq.w	8000882 <__aeabi_dmul+0x24a>
 8000a0c:	ea94 0f0c 	teq	r4, ip
 8000a10:	d10a      	bne.n	8000a28 <__aeabi_ddiv+0x19c>
 8000a12:	ea50 3401 	orrs.w	r4, r0, r1, lsl #12
 8000a16:	f47f af34 	bne.w	8000882 <__aeabi_dmul+0x24a>
 8000a1a:	ea95 0f0c 	teq	r5, ip
 8000a1e:	f47f af25 	bne.w	800086c <__aeabi_dmul+0x234>
 8000a22:	4610      	mov	r0, r2
 8000a24:	4619      	mov	r1, r3
 8000a26:	e72c      	b.n	8000882 <__aeabi_dmul+0x24a>
 8000a28:	ea95 0f0c 	teq	r5, ip
 8000a2c:	d106      	bne.n	8000a3c <__aeabi_ddiv+0x1b0>
 8000a2e:	ea52 3503 	orrs.w	r5, r2, r3, lsl #12
 8000a32:	f43f aefd 	beq.w	8000830 <__aeabi_dmul+0x1f8>
 8000a36:	4610      	mov	r0, r2
 8000a38:	4619      	mov	r1, r3
 8000a3a:	e722      	b.n	8000882 <__aeabi_dmul+0x24a>
 8000a3c:	ea50 0641 	orrs.w	r6, r0, r1, lsl #1
 8000a40:	bf18      	it	ne
 8000a42:	ea52 0643 	orrsne.w	r6, r2, r3, lsl #1
 8000a46:	f47f aec5 	bne.w	80007d4 <__aeabi_dmul+0x19c>
 8000a4a:	ea50 0441 	orrs.w	r4, r0, r1, lsl #1
 8000a4e:	f47f af0d 	bne.w	800086c <__aeabi_dmul+0x234>
 8000a52:	ea52 0543 	orrs.w	r5, r2, r3, lsl #1
 8000a56:	f47f aeeb 	bne.w	8000830 <__aeabi_dmul+0x1f8>
 8000a5a:	e712      	b.n	8000882 <__aeabi_dmul+0x24a>

08000a5c <__gedf2>:
 8000a5c:	f04f 3cff 	mov.w	ip, #4294967295	@ 0xffffffff
 8000a60:	e006      	b.n	8000a70 <__cmpdf2+0x4>
 8000a62:	bf00      	nop

08000a64 <__ledf2>:
 8000a64:	f04f 0c01 	mov.w	ip, #1
 8000a68:	e002      	b.n	8000a70 <__cmpdf2+0x4>
 8000a6a:	bf00      	nop

08000a6c <__cmpdf2>:
 8000a6c:	f04f 0c01 	mov.w	ip, #1
 8000a70:	f84d cd04 	str.w	ip, [sp, #-4]!
 8000a74:	ea4f 0c41 	mov.w	ip, r1, lsl #1
 8000a78:	ea7f 5c6c 	mvns.w	ip, ip, asr #21
 8000a7c:	ea4f 0c43 	mov.w	ip, r3, lsl #1
 8000a80:	bf18      	it	ne
 8000a82:	ea7f 5c6c 	mvnsne.w	ip, ip, asr #21
 8000a86:	d01b      	beq.n	8000ac0 <__cmpdf2+0x54>
 8000a88:	b001      	add	sp, #4
 8000a8a:	ea50 0c41 	orrs.w	ip, r0, r1, lsl #1
 8000a8e:	bf0c      	ite	eq
 8000a90:	ea52 0c43 	orrseq.w	ip, r2, r3, lsl #1
 8000a94:	ea91 0f03 	teqne	r1, r3
 8000a98:	bf02      	ittt	eq
 8000a9a:	ea90 0f02 	teqeq	r0, r2
 8000a9e:	2000      	moveq	r0, #0
 8000aa0:	4770      	bxeq	lr
 8000aa2:	f110 0f00 	cmn.w	r0, #0
 8000aa6:	ea91 0f03 	teq	r1, r3
 8000aaa:	bf58      	it	pl
 8000aac:	4299      	cmppl	r1, r3
 8000aae:	bf08      	it	eq
 8000ab0:	4290      	cmpeq	r0, r2
 8000ab2:	bf2c      	ite	cs
 8000ab4:	17d8      	asrcs	r0, r3, #31
 8000ab6:	ea6f 70e3 	mvncc.w	r0, r3, asr #31
 8000aba:	f040 0001 	orr.w	r0, r0, #1
 8000abe:	4770      	bx	lr
 8000ac0:	ea4f 0c41 	mov.w	ip, r1, lsl #1
 8000ac4:	ea7f 5c6c 	mvns.w	ip, ip, asr #21
 8000ac8:	d102      	bne.n	8000ad0 <__cmpdf2+0x64>
 8000aca:	ea50 3c01 	orrs.w	ip, r0, r1, lsl #12
 8000ace:	d107      	bne.n	8000ae0 <__cmpdf2+0x74>
 8000ad0:	ea4f 0c43 	mov.w	ip, r3, lsl #1
 8000ad4:	ea7f 5c6c 	mvns.w	ip, ip, asr #21
 8000ad8:	d1d6      	bne.n	8000a88 <__cmpdf2+0x1c>
 8000ada:	ea52 3c03 	orrs.w	ip, r2, r3, lsl #12
 8000ade:	d0d3      	beq.n	8000a88 <__cmpdf2+0x1c>
 8000ae0:	f85d 0b04 	ldr.w	r0, [sp], #4
 8000ae4:	4770      	bx	lr
 8000ae6:	bf00      	nop

08000ae8 <__aeabi_cdrcmple>:
 8000ae8:	4684      	mov	ip, r0
 8000aea:	4610      	mov	r0, r2
 8000aec:	4662      	mov	r2, ip
 8000aee:	468c      	mov	ip, r1
 8000af0:	4619      	mov	r1, r3
 8000af2:	4663      	mov	r3, ip
 8000af4:	e000      	b.n	8000af8 <__aeabi_cdcmpeq>
 8000af6:	bf00      	nop

08000af8 <__aeabi_cdcmpeq>:
 8000af8:	b501      	push	{r0, lr}
 8000afa:	f7ff ffb7 	bl	8000a6c <__cmpdf2>
 8000afe:	2800      	cmp	r0, #0
 8000b00:	bf48      	it	mi
 8000b02:	f110 0f00 	cmnmi.w	r0, #0
 8000b06:	bd01      	pop	{r0, pc}

08000b08 <__aeabi_dcmpeq>:
 8000b08:	f84d ed08 	str.w	lr, [sp, #-8]!
 8000b0c:	f7ff fff4 	bl	8000af8 <__aeabi_cdcmpeq>
 8000b10:	bf0c      	ite	eq
 8000b12:	2001      	moveq	r0, #1
 8000b14:	2000      	movne	r0, #0
 8000b16:	f85d fb08 	ldr.w	pc, [sp], #8
 8000b1a:	bf00      	nop

08000b1c <__aeabi_dcmplt>:
 8000b1c:	f84d ed08 	str.w	lr, [sp, #-8]!
 8000b20:	f7ff ffea 	bl	8000af8 <__aeabi_cdcmpeq>
 8000b24:	bf34      	ite	cc
 8000b26:	2001      	movcc	r0, #1
 8000b28:	2000      	movcs	r0, #0
 8000b2a:	f85d fb08 	ldr.w	pc, [sp], #8
 8000b2e:	bf00      	nop

08000b30 <__aeabi_dcmple>:
 8000b30:	f84d ed08 	str.w	lr, [sp, #-8]!
 8000b34:	f7ff ffe0 	bl	8000af8 <__aeabi_cdcmpeq>
 8000b38:	bf94      	ite	ls
 8000b3a:	2001      	movls	r0, #1
 8000b3c:	2000      	movhi	r0, #0
 8000b3e:	f85d fb08 	ldr.w	pc, [sp], #8
 8000b42:	bf00      	nop

08000b44 <__aeabi_dcmpge>:
 8000b44:	f84d ed08 	str.w	lr, [sp, #-8]!
 8000b48:	f7ff ffce 	bl	8000ae8 <__aeabi_cdrcmple>
 8000b4c:	bf94      	ite	ls
 8000b4e:	2001      	movls	r0, #1
 8000b50:	2000      	movhi	r0, #0
 8000b52:	f85d fb08 	ldr.w	pc, [sp], #8
 8000b56:	bf00      	nop

08000b58 <__aeabi_dcmpgt>:
 8000b58:	f84d ed08 	str.w	lr, [sp, #-8]!
 8000b5c:	f7ff ffc4 	bl	8000ae8 <__aeabi_cdrcmple>
 8000b60:	bf34      	ite	cc
 8000b62:	2001      	movcc	r0, #1
 8000b64:	2000      	movcs	r0, #0
 8000b66:	f85d fb08 	ldr.w	pc, [sp], #8
 8000b6a:	bf00      	nop

08000b6c <__aeabi_dcmpun>:
 8000b6c:	ea4f 0c41 	mov.w	ip, r1, lsl #1
 8000b70:	ea7f 5c6c 	mvns.w	ip, ip, asr #21
 8000b74:	d102      	bne.n	8000b7c <__aeabi_dcmpun+0x10>
 8000b76:	ea50 3c01 	orrs.w	ip, r0, r1, lsl #12
 8000b7a:	d10a      	bne.n	8000b92 <__aeabi_dcmpun+0x26>
 8000b7c:	ea4f 0c43 	mov.w	ip, r3, lsl #1
 8000b80:	ea7f 5c6c 	mvns.w	ip, ip, asr #21
 8000b84:	d102      	bne.n	8000b8c <__aeabi_dcmpun+0x20>
 8000b86:	ea52 3c03 	orrs.w	ip, r2, r3, lsl #12
 8000b8a:	d102      	bne.n	8000b92 <__aeabi_dcmpun+0x26>
 8000b8c:	f04f 0000 	mov.w	r0, #0
 8000b90:	4770      	bx	lr
 8000b92:	f04f 0001 	mov.w	r0, #1
 8000b96:	4770      	bx	lr

08000b98 <__aeabi_d2iz>:
 8000b98:	ea4f 0241 	mov.w	r2, r1, lsl #1
 8000b9c:	f512 1200 	adds.w	r2, r2, #2097152	@ 0x200000
 8000ba0:	d215      	bcs.n	8000bce <__aeabi_d2iz+0x36>
 8000ba2:	d511      	bpl.n	8000bc8 <__aeabi_d2iz+0x30>
 8000ba4:	f46f 7378 	mvn.w	r3, #992	@ 0x3e0
 8000ba8:	ebb3 5262 	subs.w	r2, r3, r2, asr #21
 8000bac:	d912      	bls.n	8000bd4 <__aeabi_d2iz+0x3c>
 8000bae:	ea4f 23c1 	mov.w	r3, r1, lsl #11
 8000bb2:	f043 4300 	orr.w	r3, r3, #2147483648	@ 0x80000000
 8000bb6:	ea43 5350 	orr.w	r3, r3, r0, lsr #21
 8000bba:	f011 4f00 	tst.w	r1, #2147483648	@ 0x80000000
 8000bbe:	fa23 f002 	lsr.w	r0, r3, r2
 8000bc2:	bf18      	it	ne
 8000bc4:	4240      	negne	r0, r0
 8000bc6:	4770      	bx	lr
 8000bc8:	f04f 0000 	mov.w	r0, #0
 8000bcc:	4770      	bx	lr
 8000bce:	ea50 3001 	orrs.w	r0, r0, r1, lsl #12
 8000bd2:	d105      	bne.n	8000be0 <__aeabi_d2iz+0x48>
 8000bd4:	f011 4000 	ands.w	r0, r1, #2147483648	@ 0x80000000
 8000bd8:	bf08      	it	eq
 8000bda:	f06f 4000 	mvneq.w	r0, #2147483648	@ 0x80000000
 8000bde:	4770      	bx	lr
 8000be0:	f04f 0000 	mov.w	r0, #0
 8000be4:	4770      	bx	lr
 8000be6:	bf00      	nop

08000be8 <__aeabi_d2uiz>:
 8000be8:	004a      	lsls	r2, r1, #1
 8000bea:	d211      	bcs.n	8000c10 <__aeabi_d2uiz+0x28>
 8000bec:	f512 1200 	adds.w	r2, r2, #2097152	@ 0x200000
 8000bf0:	d211      	bcs.n	8000c16 <__aeabi_d2uiz+0x2e>
 8000bf2:	d50d      	bpl.n	8000c10 <__aeabi_d2uiz+0x28>
 8000bf4:	f46f 7378 	mvn.w	r3, #992	@ 0x3e0
 8000bf8:	ebb3 5262 	subs.w	r2, r3, r2, asr #21
 8000bfc:	d40e      	bmi.n	8000c1c <__aeabi_d2uiz+0x34>
 8000bfe:	ea4f 23c1 	mov.w	r3, r1, lsl #11
 8000c02:	f043 4300 	orr.w	r3, r3, #2147483648	@ 0x80000000
 8000c06:	ea43 5350 	orr.w	r3, r3, r0, lsr #21
 8000c0a:	fa23 f002 	lsr.w	r0, r3, r2
 8000c0e:	4770      	bx	lr
 8000c10:	f04f 0000 	mov.w	r0, #0
 8000c14:	4770      	bx	lr
 8000c16:	ea50 3001 	orrs.w	r0, r0, r1, lsl #12
 8000c1a:	d102      	bne.n	8000c22 <__aeabi_d2uiz+0x3a>
 8000c1c:	f04f 30ff 	mov.w	r0, #4294967295	@ 0xffffffff
 8000c20:	4770      	bx	lr
 8000c22:	f04f 0000 	mov.w	r0, #0
 8000c26:	4770      	bx	lr

08000c28 <__aeabi_d2f>:
 8000c28:	ea4f 0241 	mov.w	r2, r1, lsl #1
 8000c2c:	f1b2 43e0 	subs.w	r3, r2, #1879048192	@ 0x70000000
 8000c30:	bf24      	itt	cs
 8000c32:	f5b3 1c00 	subscs.w	ip, r3, #2097152	@ 0x200000
 8000c36:	f1dc 5cfe 	rsbscs	ip, ip, #532676608	@ 0x1fc00000
 8000c3a:	d90d      	bls.n	8000c58 <__aeabi_d2f+0x30>
 8000c3c:	f001 4c00 	and.w	ip, r1, #2147483648	@ 0x80000000
 8000c40:	ea4f 02c0 	mov.w	r2, r0, lsl #3
 8000c44:	ea4c 7050 	orr.w	r0, ip, r0, lsr #29
 8000c48:	f1b2 4f00 	cmp.w	r2, #2147483648	@ 0x80000000
 8000c4c:	eb40 0083 	adc.w	r0, r0, r3, lsl #2
 8000c50:	bf08      	it	eq
 8000c52:	f020 0001 	biceq.w	r0, r0, #1
 8000c56:	4770      	bx	lr
 8000c58:	f011 4f80 	tst.w	r1, #1073741824	@ 0x40000000
 8000c5c:	d121      	bne.n	8000ca2 <__aeabi_d2f+0x7a>
 8000c5e:	f113 7238 	adds.w	r2, r3, #48234496	@ 0x2e00000
 8000c62:	bfbc      	itt	lt
 8000c64:	f001 4000 	andlt.w	r0, r1, #2147483648	@ 0x80000000
 8000c68:	4770      	bxlt	lr
 8000c6a:	f441 1180 	orr.w	r1, r1, #1048576	@ 0x100000
 8000c6e:	ea4f 5252 	mov.w	r2, r2, lsr #21
 8000c72:	f1c2 0218 	rsb	r2, r2, #24
 8000c76:	f1c2 0c20 	rsb	ip, r2, #32
 8000c7a:	fa10 f30c 	lsls.w	r3, r0, ip
 8000c7e:	fa20 f002 	lsr.w	r0, r0, r2
 8000c82:	bf18      	it	ne
 8000c84:	f040 0001 	orrne.w	r0, r0, #1
 8000c88:	ea4f 23c1 	mov.w	r3, r1, lsl #11
 8000c8c:	ea4f 23d3 	mov.w	r3, r3, lsr #11
 8000c90:	fa03 fc0c 	lsl.w	ip, r3, ip
 8000c94:	ea40 000c 	orr.w	r0, r0, ip
 8000c98:	fa23 f302 	lsr.w	r3, r3, r2
 8000c9c:	ea4f 0343 	mov.w	r3, r3, lsl #1
 8000ca0:	e7cc      	b.n	8000c3c <__aeabi_d2f+0x14>
 8000ca2:	ea7f 5362 	mvns.w	r3, r2, asr #21
 8000ca6:	d107      	bne.n	8000cb8 <__aeabi_d2f+0x90>
 8000ca8:	ea50 3301 	orrs.w	r3, r0, r1, lsl #12
 8000cac:	bf1e      	ittt	ne
 8000cae:	f04f 40fe 	movne.w	r0, #2130706432	@ 0x7f000000
 8000cb2:	f440 0040 	orrne.w	r0, r0, #12582912	@ 0xc00000
 8000cb6:	4770      	bxne	lr
 8000cb8:	f001 4000 	and.w	r0, r1, #2147483648	@ 0x80000000
 8000cbc:	f040 40fe 	orr.w	r0, r0, #2130706432	@ 0x7f000000
 8000cc0:	f440 0000 	orr.w	r0, r0, #8388608	@ 0x800000
 8000cc4:	4770      	bx	lr
 8000cc6:	bf00      	nop

08000cc8 <__aeabi_uldivmod>:
 8000cc8:	b953      	cbnz	r3, 8000ce0 <__aeabi_uldivmod+0x18>
 8000cca:	b94a      	cbnz	r2, 8000ce0 <__aeabi_uldivmod+0x18>
 8000ccc:	2900      	cmp	r1, #0
 8000cce:	bf08      	it	eq
 8000cd0:	2800      	cmpeq	r0, #0
 8000cd2:	bf1c      	itt	ne
 8000cd4:	f04f 31ff 	movne.w	r1, #4294967295	@ 0xffffffff
 8000cd8:	f04f 30ff 	movne.w	r0, #4294967295	@ 0xffffffff
 8000cdc:	f000 b9be 	b.w	800105c <__aeabi_idiv0>
 8000ce0:	f1ad 0c08 	sub.w	ip, sp, #8
 8000ce4:	e96d ce04 	strd	ip, lr, [sp, #-16]!
 8000ce8:	f000 f83c 	bl	8000d64 <__udivmoddi4>
 8000cec:	f8dd e004 	ldr.w	lr, [sp, #4]
 8000cf0:	e9dd 2302 	ldrd	r2, r3, [sp, #8]
 8000cf4:	b004      	add	sp, #16
 8000cf6:	4770      	bx	lr

08000cf8 <__aeabi_d2lz>:
 8000cf8:	b538      	push	{r3, r4, r5, lr}
 8000cfa:	2200      	movs	r2, #0
 8000cfc:	2300      	movs	r3, #0
 8000cfe:	4604      	mov	r4, r0
 8000d00:	460d      	mov	r5, r1
 8000d02:	f7ff ff0b 	bl	8000b1c <__aeabi_dcmplt>
 8000d06:	b928      	cbnz	r0, 8000d14 <__aeabi_d2lz+0x1c>
 8000d08:	4620      	mov	r0, r4
 8000d0a:	4629      	mov	r1, r5
 8000d0c:	e8bd 4038 	ldmia.w	sp!, {r3, r4, r5, lr}
 8000d10:	f000 b80a 	b.w	8000d28 <__aeabi_d2ulz>
 8000d14:	4620      	mov	r0, r4
 8000d16:	f105 4100 	add.w	r1, r5, #2147483648	@ 0x80000000
 8000d1a:	f000 f805 	bl	8000d28 <__aeabi_d2ulz>
 8000d1e:	4240      	negs	r0, r0
 8000d20:	eb61 0141 	sbc.w	r1, r1, r1, lsl #1
 8000d24:	bd38      	pop	{r3, r4, r5, pc}
 8000d26:	bf00      	nop

08000d28 <__aeabi_d2ulz>:
 8000d28:	b5d0      	push	{r4, r6, r7, lr}
 8000d2a:	4b0c      	ldr	r3, [pc, #48]	@ (8000d5c <__aeabi_d2ulz+0x34>)
 8000d2c:	2200      	movs	r2, #0
 8000d2e:	4606      	mov	r6, r0
 8000d30:	460f      	mov	r7, r1
 8000d32:	f7ff fc81 	bl	8000638 <__aeabi_dmul>
 8000d36:	f7ff ff57 	bl	8000be8 <__aeabi_d2uiz>
 8000d3a:	4604      	mov	r4, r0
 8000d3c:	f7ff fc02 	bl	8000544 <__aeabi_ui2d>
 8000d40:	4b07      	ldr	r3, [pc, #28]	@ (8000d60 <__aeabi_d2ulz+0x38>)
 8000d42:	2200      	movs	r2, #0
 8000d44:	f7ff fc78 	bl	8000638 <__aeabi_dmul>
 8000d48:	4602      	mov	r2, r0
 8000d4a:	460b      	mov	r3, r1
 8000d4c:	4630      	mov	r0, r6
 8000d4e:	4639      	mov	r1, r7
 8000d50:	f7ff faba 	bl	80002c8 <__aeabi_dsub>
 8000d54:	f7ff ff48 	bl	8000be8 <__aeabi_d2uiz>
 8000d58:	4621      	mov	r1, r4
 8000d5a:	bdd0      	pop	{r4, r6, r7, pc}
 8000d5c:	3df00000 	.word	0x3df00000
 8000d60:	41f00000 	.word	0x41f00000

08000d64 <__udivmoddi4>:
 8000d64:	e92d 47f0 	stmdb	sp!, {r4, r5, r6, r7, r8, r9, sl, lr}
 8000d68:	9d08      	ldr	r5, [sp, #32]
 8000d6a:	468e      	mov	lr, r1
 8000d6c:	4604      	mov	r4, r0
 8000d6e:	4688      	mov	r8, r1
 8000d70:	2b00      	cmp	r3, #0
 8000d72:	d14a      	bne.n	8000e0a <__udivmoddi4+0xa6>
 8000d74:	428a      	cmp	r2, r1
 8000d76:	4617      	mov	r7, r2
 8000d78:	d962      	bls.n	8000e40 <__udivmoddi4+0xdc>
 8000d7a:	fab2 f682 	clz	r6, r2
 8000d7e:	b14e      	cbz	r6, 8000d94 <__udivmoddi4+0x30>
 8000d80:	f1c6 0320 	rsb	r3, r6, #32
 8000d84:	fa01 f806 	lsl.w	r8, r1, r6
 8000d88:	fa20 f303 	lsr.w	r3, r0, r3
 8000d8c:	40b7      	lsls	r7, r6
 8000d8e:	ea43 0808 	orr.w	r8, r3, r8
 8000d92:	40b4      	lsls	r4, r6
 8000d94:	ea4f 4e17 	mov.w	lr, r7, lsr #16
 8000d98:	fa1f fc87 	uxth.w	ip, r7
 8000d9c:	fbb8 f1fe 	udiv	r1, r8, lr
 8000da0:	0c23      	lsrs	r3, r4, #16
 8000da2:	fb0e 8811 	mls	r8, lr, r1, r8
 8000da6:	ea43 4308 	orr.w	r3, r3, r8, lsl #16
 8000daa:	fb01 f20c 	mul.w	r2, r1, ip
 8000dae:	429a      	cmp	r2, r3
 8000db0:	d909      	bls.n	8000dc6 <__udivmoddi4+0x62>
 8000db2:	18fb      	adds	r3, r7, r3
 8000db4:	f101 30ff 	add.w	r0, r1, #4294967295	@ 0xffffffff
 8000db8:	f080 80ea 	bcs.w	8000f90 <__udivmoddi4+0x22c>
 8000dbc:	429a      	cmp	r2, r3
 8000dbe:	f240 80e7 	bls.w	8000f90 <__udivmoddi4+0x22c>
 8000dc2:	3902      	subs	r1, #2
 8000dc4:	443b      	add	r3, r7
 8000dc6:	1a9a      	subs	r2, r3, r2
 8000dc8:	b2a3      	uxth	r3, r4
 8000dca:	fbb2 f0fe 	udiv	r0, r2, lr
 8000dce:	fb0e 2210 	mls	r2, lr, r0, r2
 8000dd2:	ea43 4302 	orr.w	r3, r3, r2, lsl #16
 8000dd6:	fb00 fc0c 	mul.w	ip, r0, ip
 8000dda:	459c      	cmp	ip, r3
 8000ddc:	d909      	bls.n	8000df2 <__udivmoddi4+0x8e>
 8000dde:	18fb      	adds	r3, r7, r3
 8000de0:	f100 32ff 	add.w	r2, r0, #4294967295	@ 0xffffffff
 8000de4:	f080 80d6 	bcs.w	8000f94 <__udivmoddi4+0x230>
 8000de8:	459c      	cmp	ip, r3
 8000dea:	f240 80d3 	bls.w	8000f94 <__udivmoddi4+0x230>
 8000dee:	443b      	add	r3, r7
 8000df0:	3802      	subs	r0, #2
 8000df2:	ea40 4001 	orr.w	r0, r0, r1, lsl #16
 8000df6:	eba3 030c 	sub.w	r3, r3, ip
 8000dfa:	2100      	movs	r1, #0
 8000dfc:	b11d      	cbz	r5, 8000e06 <__udivmoddi4+0xa2>
 8000dfe:	40f3      	lsrs	r3, r6
 8000e00:	2200      	movs	r2, #0
 8000e02:	e9c5 3200 	strd	r3, r2, [r5]
 8000e06:	e8bd 87f0 	ldmia.w	sp!, {r4, r5, r6, r7, r8, r9, sl, pc}
 8000e0a:	428b      	cmp	r3, r1
 8000e0c:	d905      	bls.n	8000e1a <__udivmoddi4+0xb6>
 8000e0e:	b10d      	cbz	r5, 8000e14 <__udivmoddi4+0xb0>
 8000e10:	e9c5 0100 	strd	r0, r1, [r5]
 8000e14:	2100      	movs	r1, #0
 8000e16:	4608      	mov	r0, r1
 8000e18:	e7f5      	b.n	8000e06 <__udivmoddi4+0xa2>
 8000e1a:	fab3 f183 	clz	r1, r3
 8000e1e:	2900      	cmp	r1, #0
 8000e20:	d146      	bne.n	8000eb0 <__udivmoddi4+0x14c>
 8000e22:	4573      	cmp	r3, lr
 8000e24:	d302      	bcc.n	8000e2c <__udivmoddi4+0xc8>
 8000e26:	4282      	cmp	r2, r0
 8000e28:	f200 8105 	bhi.w	8001036 <__udivmoddi4+0x2d2>
 8000e2c:	1a84      	subs	r4, r0, r2
 8000e2e:	eb6e 0203 	sbc.w	r2, lr, r3
 8000e32:	2001      	movs	r0, #1
 8000e34:	4690      	mov	r8, r2
 8000e36:	2d00      	cmp	r5, #0
 8000e38:	d0e5      	beq.n	8000e06 <__udivmoddi4+0xa2>
 8000e3a:	e9c5 4800 	strd	r4, r8, [r5]
 8000e3e:	e7e2      	b.n	8000e06 <__udivmoddi4+0xa2>
 8000e40:	2a00      	cmp	r2, #0
 8000e42:	f000 8090 	beq.w	8000f66 <__udivmoddi4+0x202>
 8000e46:	fab2 f682 	clz	r6, r2
 8000e4a:	2e00      	cmp	r6, #0
 8000e4c:	f040 80a4 	bne.w	8000f98 <__udivmoddi4+0x234>
 8000e50:	1a8a      	subs	r2, r1, r2
 8000e52:	0c03      	lsrs	r3, r0, #16
 8000e54:	ea4f 4e17 	mov.w	lr, r7, lsr #16
 8000e58:	b280      	uxth	r0, r0
 8000e5a:	b2bc      	uxth	r4, r7
 8000e5c:	2101      	movs	r1, #1
 8000e5e:	fbb2 fcfe 	udiv	ip, r2, lr
 8000e62:	fb0e 221c 	mls	r2, lr, ip, r2
 8000e66:	ea43 4302 	orr.w	r3, r3, r2, lsl #16
 8000e6a:	fb04 f20c 	mul.w	r2, r4, ip
 8000e6e:	429a      	cmp	r2, r3
 8000e70:	d907      	bls.n	8000e82 <__udivmoddi4+0x11e>
 8000e72:	18fb      	adds	r3, r7, r3
 8000e74:	f10c 38ff 	add.w	r8, ip, #4294967295	@ 0xffffffff
 8000e78:	d202      	bcs.n	8000e80 <__udivmoddi4+0x11c>
 8000e7a:	429a      	cmp	r2, r3
 8000e7c:	f200 80e0 	bhi.w	8001040 <__udivmoddi4+0x2dc>
 8000e80:	46c4      	mov	ip, r8
 8000e82:	1a9b      	subs	r3, r3, r2
 8000e84:	fbb3 f2fe 	udiv	r2, r3, lr
 8000e88:	fb0e 3312 	mls	r3, lr, r2, r3
 8000e8c:	ea40 4303 	orr.w	r3, r0, r3, lsl #16
 8000e90:	fb02 f404 	mul.w	r4, r2, r4
 8000e94:	429c      	cmp	r4, r3
 8000e96:	d907      	bls.n	8000ea8 <__udivmoddi4+0x144>
 8000e98:	18fb      	adds	r3, r7, r3
 8000e9a:	f102 30ff 	add.w	r0, r2, #4294967295	@ 0xffffffff
 8000e9e:	d202      	bcs.n	8000ea6 <__udivmoddi4+0x142>
 8000ea0:	429c      	cmp	r4, r3
 8000ea2:	f200 80ca 	bhi.w	800103a <__udivmoddi4+0x2d6>
 8000ea6:	4602      	mov	r2, r0
 8000ea8:	1b1b      	subs	r3, r3, r4
 8000eaa:	ea42 400c 	orr.w	r0, r2, ip, lsl #16
 8000eae:	e7a5      	b.n	8000dfc <__udivmoddi4+0x98>
 8000eb0:	f1c1 0620 	rsb	r6, r1, #32
 8000eb4:	408b      	lsls	r3, r1
 8000eb6:	fa22 f706 	lsr.w	r7, r2, r6
 8000eba:	431f      	orrs	r7, r3
 8000ebc:	fa0e f401 	lsl.w	r4, lr, r1
 8000ec0:	fa20 f306 	lsr.w	r3, r0, r6
 8000ec4:	fa2e fe06 	lsr.w	lr, lr, r6
 8000ec8:	ea4f 4917 	mov.w	r9, r7, lsr #16
 8000ecc:	4323      	orrs	r3, r4
 8000ece:	fa00 f801 	lsl.w	r8, r0, r1
 8000ed2:	fa1f fc87 	uxth.w	ip, r7
 8000ed6:	fbbe f0f9 	udiv	r0, lr, r9
 8000eda:	0c1c      	lsrs	r4, r3, #16
 8000edc:	fb09 ee10 	mls	lr, r9, r0, lr
 8000ee0:	ea44 440e 	orr.w	r4, r4, lr, lsl #16
 8000ee4:	fb00 fe0c 	mul.w	lr, r0, ip
 8000ee8:	45a6      	cmp	lr, r4
 8000eea:	fa02 f201 	lsl.w	r2, r2, r1
 8000eee:	d909      	bls.n	8000f04 <__udivmoddi4+0x1a0>
 8000ef0:	193c      	adds	r4, r7, r4
 8000ef2:	f100 3aff 	add.w	sl, r0, #4294967295	@ 0xffffffff
 8000ef6:	f080 809c 	bcs.w	8001032 <__udivmoddi4+0x2ce>
 8000efa:	45a6      	cmp	lr, r4
 8000efc:	f240 8099 	bls.w	8001032 <__udivmoddi4+0x2ce>
 8000f00:	3802      	subs	r0, #2
 8000f02:	443c      	add	r4, r7
 8000f04:	eba4 040e 	sub.w	r4, r4, lr
 8000f08:	fa1f fe83 	uxth.w	lr, r3
 8000f0c:	fbb4 f3f9 	udiv	r3, r4, r9
 8000f10:	fb09 4413 	mls	r4, r9, r3, r4
 8000f14:	ea4e 4404 	orr.w	r4, lr, r4, lsl #16
 8000f18:	fb03 fc0c 	mul.w	ip, r3, ip
 8000f1c:	45a4      	cmp	ip, r4
 8000f1e:	d908      	bls.n	8000f32 <__udivmoddi4+0x1ce>
 8000f20:	193c      	adds	r4, r7, r4
 8000f22:	f103 3eff 	add.w	lr, r3, #4294967295	@ 0xffffffff
 8000f26:	f080 8082 	bcs.w	800102e <__udivmoddi4+0x2ca>
 8000f2a:	45a4      	cmp	ip, r4
 8000f2c:	d97f      	bls.n	800102e <__udivmoddi4+0x2ca>
 8000f2e:	3b02      	subs	r3, #2
 8000f30:	443c      	add	r4, r7
 8000f32:	ea43 4000 	orr.w	r0, r3, r0, lsl #16
 8000f36:	eba4 040c 	sub.w	r4, r4, ip
 8000f3a:	fba0 ec02 	umull	lr, ip, r0, r2
 8000f3e:	4564      	cmp	r4, ip
 8000f40:	4673      	mov	r3, lr
 8000f42:	46e1      	mov	r9, ip
 8000f44:	d362      	bcc.n	800100c <__udivmoddi4+0x2a8>
 8000f46:	d05f      	beq.n	8001008 <__udivmoddi4+0x2a4>
 8000f48:	b15d      	cbz	r5, 8000f62 <__udivmoddi4+0x1fe>
 8000f4a:	ebb8 0203 	subs.w	r2, r8, r3
 8000f4e:	eb64 0409 	sbc.w	r4, r4, r9
 8000f52:	fa04 f606 	lsl.w	r6, r4, r6
 8000f56:	fa22 f301 	lsr.w	r3, r2, r1
 8000f5a:	431e      	orrs	r6, r3
 8000f5c:	40cc      	lsrs	r4, r1
 8000f5e:	e9c5 6400 	strd	r6, r4, [r5]
 8000f62:	2100      	movs	r1, #0
 8000f64:	e74f      	b.n	8000e06 <__udivmoddi4+0xa2>
 8000f66:	fbb1 fcf2 	udiv	ip, r1, r2
 8000f6a:	0c01      	lsrs	r1, r0, #16
 8000f6c:	ea41 410e 	orr.w	r1, r1, lr, lsl #16
 8000f70:	b280      	uxth	r0, r0
 8000f72:	ea40 4201 	orr.w	r2, r0, r1, lsl #16
 8000f76:	463b      	mov	r3, r7
 8000f78:	4638      	mov	r0, r7
 8000f7a:	463c      	mov	r4, r7
 8000f7c:	46b8      	mov	r8, r7
 8000f7e:	46be      	mov	lr, r7
 8000f80:	2620      	movs	r6, #32
 8000f82:	fbb1 f1f7 	udiv	r1, r1, r7
 8000f86:	eba2 0208 	sub.w	r2, r2, r8
 8000f8a:	ea41 410c 	orr.w	r1, r1, ip, lsl #16
 8000f8e:	e766      	b.n	8000e5e <__udivmoddi4+0xfa>
 8000f90:	4601      	mov	r1, r0
 8000f92:	e718      	b.n	8000dc6 <__udivmoddi4+0x62>
 8000f94:	4610      	mov	r0, r2
 8000f96:	e72c      	b.n	8000df2 <__udivmoddi4+0x8e>
 8000f98:	f1c6 0220 	rsb	r2, r6, #32
 8000f9c:	fa2e f302 	lsr.w	r3, lr, r2
 8000fa0:	40b7      	lsls	r7, r6
 8000fa2:	40b1      	lsls	r1, r6
 8000fa4:	fa20 f202 	lsr.w	r2, r0, r2
 8000fa8:	ea4f 4e17 	mov.w	lr, r7, lsr #16
 8000fac:	430a      	orrs	r2, r1
 8000fae:	fbb3 f8fe 	udiv	r8, r3, lr
 8000fb2:	b2bc      	uxth	r4, r7
 8000fb4:	fb0e 3318 	mls	r3, lr, r8, r3
 8000fb8:	0c11      	lsrs	r1, r2, #16
 8000fba:	ea41 4103 	orr.w	r1, r1, r3, lsl #16
 8000fbe:	fb08 f904 	mul.w	r9, r8, r4
 8000fc2:	40b0      	lsls	r0, r6
 8000fc4:	4589      	cmp	r9, r1
 8000fc6:	ea4f 4310 	mov.w	r3, r0, lsr #16
 8000fca:	b280      	uxth	r0, r0
 8000fcc:	d93e      	bls.n	800104c <__udivmoddi4+0x2e8>
 8000fce:	1879      	adds	r1, r7, r1
 8000fd0:	f108 3cff 	add.w	ip, r8, #4294967295	@ 0xffffffff
 8000fd4:	d201      	bcs.n	8000fda <__udivmoddi4+0x276>
 8000fd6:	4589      	cmp	r9, r1
 8000fd8:	d81f      	bhi.n	800101a <__udivmoddi4+0x2b6>
 8000fda:	eba1 0109 	sub.w	r1, r1, r9
 8000fde:	fbb1 f9fe 	udiv	r9, r1, lr
 8000fe2:	fb09 f804 	mul.w	r8, r9, r4
 8000fe6:	fb0e 1119 	mls	r1, lr, r9, r1
 8000fea:	b292      	uxth	r2, r2
 8000fec:	ea42 4201 	orr.w	r2, r2, r1, lsl #16
 8000ff0:	4542      	cmp	r2, r8
 8000ff2:	d229      	bcs.n	8001048 <__udivmoddi4+0x2e4>
 8000ff4:	18ba      	adds	r2, r7, r2
 8000ff6:	f109 31ff 	add.w	r1, r9, #4294967295	@ 0xffffffff
 8000ffa:	d2c4      	bcs.n	8000f86 <__udivmoddi4+0x222>
 8000ffc:	4542      	cmp	r2, r8
 8000ffe:	d2c2      	bcs.n	8000f86 <__udivmoddi4+0x222>
 8001000:	f1a9 0102 	sub.w	r1, r9, #2
 8001004:	443a      	add	r2, r7
 8001006:	e7be      	b.n	8000f86 <__udivmoddi4+0x222>
 8001008:	45f0      	cmp	r8, lr
 800100a:	d29d      	bcs.n	8000f48 <__udivmoddi4+0x1e4>
 800100c:	ebbe 0302 	subs.w	r3, lr, r2
 8001010:	eb6c 0c07 	sbc.w	ip, ip, r7
 8001014:	3801      	subs	r0, #1
 8001016:	46e1      	mov	r9, ip
 8001018:	e796      	b.n	8000f48 <__udivmoddi4+0x1e4>
 800101a:	eba7 0909 	sub.w	r9, r7, r9
 800101e:	4449      	add	r1, r9
 8001020:	f1a8 0c02 	sub.w	ip, r8, #2
 8001024:	fbb1 f9fe 	udiv	r9, r1, lr
 8001028:	fb09 f804 	mul.w	r8, r9, r4
 800102c:	e7db      	b.n	8000fe6 <__udivmoddi4+0x282>
 800102e:	4673      	mov	r3, lr
 8001030:	e77f      	b.n	8000f32 <__udivmoddi4+0x1ce>
 8001032:	4650      	mov	r0, sl
 8001034:	e766      	b.n	8000f04 <__udivmoddi4+0x1a0>
 8001036:	4608      	mov	r0, r1
 8001038:	e6fd      	b.n	8000e36 <__udivmoddi4+0xd2>
 800103a:	443b      	add	r3, r7
 800103c:	3a02      	subs	r2, #2
 800103e:	e733      	b.n	8000ea8 <__udivmoddi4+0x144>
 8001040:	f1ac 0c02 	sub.w	ip, ip, #2
 8001044:	443b      	add	r3, r7
 8001046:	e71c      	b.n	8000e82 <__udivmoddi4+0x11e>
 8001048:	4649      	mov	r1, r9
 800104a:	e79c      	b.n	8000f86 <__udivmoddi4+0x222>
 800104c:	eba1 0109 	sub.w	r1, r1, r9
 8001050:	46c4      	mov	ip, r8
 8001052:	fbb1 f9fe 	udiv	r9, r1, lr
 8001056:	fb09 f804 	mul.w	r8, r9, r4
 800105a:	e7c4      	b.n	8000fe6 <__udivmoddi4+0x282>

0800105c <__aeabi_idiv0>:
 800105c:	4770      	bx	lr
 800105e:	bf00      	nop

08001060 <main>:

// Forward-declare the function that sets up tasks (implemented in tasks.c)
void tasks_init(void);

int main(void)
{
 8001060:	b580      	push	{r7, lr}
 8001062:	af00      	add	r7, sp, #0
    HAL_Init();
 8001064:	f000 fd1e 	bl	8001aa4 <HAL_Init>
    SystemClock_Config();
 8001068:	f000 f848 	bl	80010fc <SystemClock_Config>
    MX_GPIO_Init();
 800106c:	f000 f96e 	bl	800134c <MX_GPIO_Init>
    MX_TIM2_Init();
 8001070:	f000 f8b2 	bl	80011d8 <MX_TIM2_Init>
    MX_USART2_UART_Init();
 8001074:	f000 f940 	bl	80012f8 <MX_USART2_UART_Init>

    // Example: Start PWM right away
    HAL_TIM_PWM_Start(&htim2, TIM_CHANNEL_1);
 8001078:	2100      	movs	r1, #0
 800107a:	4804      	ldr	r0, [pc, #16]	@ (800108c <main+0x2c>)
 800107c:	f001 ffa4 	bl	8002fc8 <HAL_TIM_PWM_Start>

    // Create and start your tasks (this function is in tasks.c)
    tasks_init();
 8001080:	f000 fbb4 	bl	80017ec <tasks_init>

    // Start the FreeRTOS scheduler
    vTaskStartScheduler();
 8001084:	f004 ff34 	bl	8005ef0 <vTaskStartScheduler>

    // We should never get here if the scheduler starts properly.
    while (1)
 8001088:	bf00      	nop
 800108a:	e7fd      	b.n	8001088 <main+0x28>
 800108c:	200001f4 	.word	0x200001f4

08001090 <HAL_UART_RxCpltCallback>:
//    task2Profiler++;
//  }
//}

void HAL_UART_RxCpltCallback(UART_HandleTypeDef *huart)
{
 8001090:	b580      	push	{r7, lr}
 8001092:	b084      	sub	sp, #16
 8001094:	af00      	add	r7, sp, #0
 8001096:	6078      	str	r0, [r7, #4]
  uint8_t receivedByte;
  BaseType_t xHigherPriorityTaskWoken = pdFALSE;
 8001098:	2300      	movs	r3, #0
 800109a:	60bb      	str	r3, [r7, #8]

  if (huart->Instance == USART2)
 800109c:	687b      	ldr	r3, [r7, #4]
 800109e:	681b      	ldr	r3, [r3, #0]
 80010a0:	4a13      	ldr	r2, [pc, #76]	@ (80010f0 <HAL_UART_RxCpltCallback+0x60>)
 80010a2:	4293      	cmp	r3, r2
 80010a4:	d11f      	bne.n	80010e6 <HAL_UART_RxCpltCallback+0x56>
  {
    receivedByte = (uint8_t)(huart->Instance->DR & (uint8_t)0x00FF);
 80010a6:	687b      	ldr	r3, [r7, #4]
 80010a8:	681b      	ldr	r3, [r3, #0]
 80010aa:	685b      	ldr	r3, [r3, #4]
 80010ac:	b2db      	uxtb	r3, r3
 80010ae:	73fb      	strb	r3, [r7, #15]
    xQueueSendFromISR(uartRxQueue, &receivedByte, &xHigherPriorityTaskWoken);
 80010b0:	4b10      	ldr	r3, [pc, #64]	@ (80010f4 <HAL_UART_RxCpltCallback+0x64>)
 80010b2:	6818      	ldr	r0, [r3, #0]
 80010b4:	f107 0208 	add.w	r2, r7, #8
 80010b8:	f107 010f 	add.w	r1, r7, #15
 80010bc:	2300      	movs	r3, #0
 80010be:	f004 f925 	bl	800530c <xQueueGenericSendFromISR>

    // Re-enable UART receive interrupt
    HAL_UART_Receive_IT(huart, &receivedByte, 1);
 80010c2:	f107 030f 	add.w	r3, r7, #15
 80010c6:	2201      	movs	r2, #1
 80010c8:	4619      	mov	r1, r3
 80010ca:	6878      	ldr	r0, [r7, #4]
 80010cc:	f002 fe41 	bl	8003d52 <HAL_UART_Receive_IT>

    // If sending from ISR wakes a higher priority task, yield
    portYIELD_FROM_ISR(xHigherPriorityTaskWoken);
 80010d0:	68bb      	ldr	r3, [r7, #8]
 80010d2:	2b00      	cmp	r3, #0
 80010d4:	d007      	beq.n	80010e6 <HAL_UART_RxCpltCallback+0x56>
 80010d6:	4b08      	ldr	r3, [pc, #32]	@ (80010f8 <HAL_UART_RxCpltCallback+0x68>)
 80010d8:	f04f 5280 	mov.w	r2, #268435456	@ 0x10000000
 80010dc:	601a      	str	r2, [r3, #0]
 80010de:	f3bf 8f4f 	dsb	sy
 80010e2:	f3bf 8f6f 	isb	sy
  }
}
 80010e6:	bf00      	nop
 80010e8:	3710      	adds	r7, #16
 80010ea:	46bd      	mov	sp, r7
 80010ec:	bd80      	pop	{r7, pc}
 80010ee:	bf00      	nop
 80010f0:	40004400 	.word	0x40004400
 80010f4:	20000284 	.word	0x20000284
 80010f8:	e000ed04 	.word	0xe000ed04

080010fc <SystemClock_Config>:
/**
 * @brief System Clock Configuration
 * @retval None
 */
void SystemClock_Config(void)
{
 80010fc:	b580      	push	{r7, lr}
 80010fe:	b094      	sub	sp, #80	@ 0x50
 8001100:	af00      	add	r7, sp, #0
  RCC_OscInitTypeDef RCC_OscInitStruct = {0};
 8001102:	f107 031c 	add.w	r3, r7, #28
 8001106:	2234      	movs	r2, #52	@ 0x34
 8001108:	2100      	movs	r1, #0
 800110a:	4618      	mov	r0, r3
 800110c:	f008 f856 	bl	80091bc <memset>
  RCC_ClkInitTypeDef RCC_ClkInitStruct = {0};
 8001110:	f107 0308 	add.w	r3, r7, #8
 8001114:	2200      	movs	r2, #0
 8001116:	601a      	str	r2, [r3, #0]
 8001118:	605a      	str	r2, [r3, #4]
 800111a:	609a      	str	r2, [r3, #8]
 800111c:	60da      	str	r2, [r3, #12]
 800111e:	611a      	str	r2, [r3, #16]

  /** Configure the main internal regulator output voltage
   */
  __HAL_RCC_PWR_CLK_ENABLE();
 8001120:	2300      	movs	r3, #0
 8001122:	607b      	str	r3, [r7, #4]
 8001124:	4b2a      	ldr	r3, [pc, #168]	@ (80011d0 <SystemClock_Config+0xd4>)
 8001126:	6c1b      	ldr	r3, [r3, #64]	@ 0x40
 8001128:	4a29      	ldr	r2, [pc, #164]	@ (80011d0 <SystemClock_Config+0xd4>)
 800112a:	f043 5380 	orr.w	r3, r3, #268435456	@ 0x10000000
 800112e:	6413      	str	r3, [r2, #64]	@ 0x40
 8001130:	4b27      	ldr	r3, [pc, #156]	@ (80011d0 <SystemClock_Config+0xd4>)
 8001132:	6c1b      	ldr	r3, [r3, #64]	@ 0x40
 8001134:	f003 5380 	and.w	r3, r3, #268435456	@ 0x10000000
 8001138:	607b      	str	r3, [r7, #4]
 800113a:	687b      	ldr	r3, [r7, #4]
  __HAL_PWR_VOLTAGESCALING_CONFIG(PWR_REGULATOR_VOLTAGE_SCALE3);
 800113c:	2300      	movs	r3, #0
 800113e:	603b      	str	r3, [r7, #0]
 8001140:	4b24      	ldr	r3, [pc, #144]	@ (80011d4 <SystemClock_Config+0xd8>)
 8001142:	681b      	ldr	r3, [r3, #0]
 8001144:	f423 4340 	bic.w	r3, r3, #49152	@ 0xc000
 8001148:	4a22      	ldr	r2, [pc, #136]	@ (80011d4 <SystemClock_Config+0xd8>)
 800114a:	f443 4380 	orr.w	r3, r3, #16384	@ 0x4000
 800114e:	6013      	str	r3, [r2, #0]
 8001150:	4b20      	ldr	r3, [pc, #128]	@ (80011d4 <SystemClock_Config+0xd8>)
 8001152:	681b      	ldr	r3, [r3, #0]
 8001154:	f403 4340 	and.w	r3, r3, #49152	@ 0xc000
 8001158:	603b      	str	r3, [r7, #0]
 800115a:	683b      	ldr	r3, [r7, #0]

  /** Initializes the RCC Oscillators according to the specified parameters
   * in the RCC_OscInitTypeDef structure.
   */
  RCC_OscInitStruct.OscillatorType = RCC_OSCILLATORTYPE_HSI;
 800115c:	2302      	movs	r3, #2
 800115e:	61fb      	str	r3, [r7, #28]
  RCC_OscInitStruct.HSIState = RCC_HSI_ON;
 8001160:	2301      	movs	r3, #1
 8001162:	62bb      	str	r3, [r7, #40]	@ 0x28
  RCC_OscInitStruct.HSICalibrationValue = RCC_HSICALIBRATION_DEFAULT;
 8001164:	2310      	movs	r3, #16
 8001166:	62fb      	str	r3, [r7, #44]	@ 0x2c
  RCC_OscInitStruct.PLL.PLLState = RCC_PLL_ON;
 8001168:	2302      	movs	r3, #2
 800116a:	637b      	str	r3, [r7, #52]	@ 0x34
  RCC_OscInitStruct.PLL.PLLSource = RCC_PLLSOURCE_HSI;
 800116c:	2300      	movs	r3, #0
 800116e:	63bb      	str	r3, [r7, #56]	@ 0x38
  RCC_OscInitStruct.PLL.PLLM = 16;
 8001170:	2310      	movs	r3, #16
 8001172:	63fb      	str	r3, [r7, #60]	@ 0x3c
  RCC_OscInitStruct.PLL.PLLN = 336;
 8001174:	f44f 73a8 	mov.w	r3, #336	@ 0x150
 8001178:	643b      	str	r3, [r7, #64]	@ 0x40
  RCC_OscInitStruct.PLL.PLLP = RCC_PLLP_DIV4;
 800117a:	2304      	movs	r3, #4
 800117c:	647b      	str	r3, [r7, #68]	@ 0x44
  RCC_OscInitStruct.PLL.PLLQ = 2;
 800117e:	2302      	movs	r3, #2
 8001180:	64bb      	str	r3, [r7, #72]	@ 0x48
  RCC_OscInitStruct.PLL.PLLR = 2;
 8001182:	2302      	movs	r3, #2
 8001184:	64fb      	str	r3, [r7, #76]	@ 0x4c
  if (HAL_RCC_OscConfig(&RCC_OscInitStruct) != HAL_OK)
 8001186:	f107 031c 	add.w	r3, r7, #28
 800118a:	4618      	mov	r0, r3
 800118c:	f001 fbd6 	bl	800293c <HAL_RCC_OscConfig>
 8001190:	4603      	mov	r3, r0
 8001192:	2b00      	cmp	r3, #0
 8001194:	d001      	beq.n	800119a <SystemClock_Config+0x9e>
  {
    Error_Handler();
 8001196:	f000 f91b 	bl	80013d0 <Error_Handler>
  }

  /** Initializes the CPU, AHB and APB buses clocks
   */
  RCC_ClkInitStruct.ClockType = RCC_CLOCKTYPE_HCLK | RCC_CLOCKTYPE_SYSCLK | RCC_CLOCKTYPE_PCLK1 | RCC_CLOCKTYPE_PCLK2;
 800119a:	230f      	movs	r3, #15
 800119c:	60bb      	str	r3, [r7, #8]
  RCC_ClkInitStruct.SYSCLKSource = RCC_SYSCLKSOURCE_PLLCLK;
 800119e:	2302      	movs	r3, #2
 80011a0:	60fb      	str	r3, [r7, #12]
  RCC_ClkInitStruct.AHBCLKDivider = RCC_SYSCLK_DIV1;
 80011a2:	2300      	movs	r3, #0
 80011a4:	613b      	str	r3, [r7, #16]
  RCC_ClkInitStruct.APB1CLKDivider = RCC_HCLK_DIV2;
 80011a6:	f44f 5380 	mov.w	r3, #4096	@ 0x1000
 80011aa:	617b      	str	r3, [r7, #20]
  RCC_ClkInitStruct.APB2CLKDivider = RCC_HCLK_DIV1;
 80011ac:	2300      	movs	r3, #0
 80011ae:	61bb      	str	r3, [r7, #24]

  if (HAL_RCC_ClockConfig(&RCC_ClkInitStruct, FLASH_LATENCY_2) != HAL_OK)
 80011b0:	f107 0308 	add.w	r3, r7, #8
 80011b4:	2102      	movs	r1, #2
 80011b6:	4618      	mov	r0, r3
 80011b8:	f001 f876 	bl	80022a8 <HAL_RCC_ClockConfig>
 80011bc:	4603      	mov	r3, r0
 80011be:	2b00      	cmp	r3, #0
 80011c0:	d001      	beq.n	80011c6 <SystemClock_Config+0xca>
  {
    Error_Handler();
 80011c2:	f000 f905 	bl	80013d0 <Error_Handler>
  }
}
 80011c6:	bf00      	nop
 80011c8:	3750      	adds	r7, #80	@ 0x50
 80011ca:	46bd      	mov	sp, r7
 80011cc:	bd80      	pop	{r7, pc}
 80011ce:	bf00      	nop
 80011d0:	40023800 	.word	0x40023800
 80011d4:	40007000 	.word	0x40007000

080011d8 <MX_TIM2_Init>:
 * @brief TIM2 Initialization Function
 * @param None
 * @retval None
 */
static void MX_TIM2_Init(void)
{
 80011d8:	b580      	push	{r7, lr}
 80011da:	b090      	sub	sp, #64	@ 0x40
 80011dc:	af00      	add	r7, sp, #0

  TIM_ClockConfigTypeDef sClockSourceConfig = {0};
 80011de:	f107 0324 	add.w	r3, r7, #36	@ 0x24
 80011e2:	2200      	movs	r2, #0
 80011e4:	601a      	str	r2, [r3, #0]
 80011e6:	605a      	str	r2, [r3, #4]
 80011e8:	609a      	str	r2, [r3, #8]
 80011ea:	60da      	str	r2, [r3, #12]
  TIM_MasterConfigTypeDef sMasterConfig = {0};
 80011ec:	f107 031c 	add.w	r3, r7, #28
 80011f0:	2200      	movs	r2, #0
 80011f2:	601a      	str	r2, [r3, #0]
 80011f4:	605a      	str	r2, [r3, #4]
  TIM_OC_InitTypeDef sConfigOC = {0};
 80011f6:	463b      	mov	r3, r7
 80011f8:	2200      	movs	r2, #0
 80011fa:	601a      	str	r2, [r3, #0]
 80011fc:	605a      	str	r2, [r3, #4]
 80011fe:	609a      	str	r2, [r3, #8]
 8001200:	60da      	str	r2, [r3, #12]
 8001202:	611a      	str	r2, [r3, #16]
 8001204:	615a      	str	r2, [r3, #20]
 8001206:	619a      	str	r2, [r3, #24]

  // Calc timer period for PWM frequency
  uint32_t timerClock = HAL_RCC_GetPCLK1Freq() * 2;   // APB1
 8001208:	f001 f940 	bl	800248c <HAL_RCC_GetPCLK1Freq>
 800120c:	4603      	mov	r3, r0
 800120e:	005b      	lsls	r3, r3, #1
 8001210:	63fb      	str	r3, [r7, #60]	@ 0x3c
  uint32_t period = (timerClock / PWM_FREQUENCY) - 1; // counts based on timer clock
 8001212:	6bfb      	ldr	r3, [r7, #60]	@ 0x3c
 8001214:	4a36      	ldr	r2, [pc, #216]	@ (80012f0 <MX_TIM2_Init+0x118>)
 8001216:	fba2 2303 	umull	r2, r3, r2, r3
 800121a:	0b9b      	lsrs	r3, r3, #14
 800121c:	3b01      	subs	r3, #1
 800121e:	63bb      	str	r3, [r7, #56]	@ 0x38

  htim2.Instance = TIM2;
 8001220:	4b34      	ldr	r3, [pc, #208]	@ (80012f4 <MX_TIM2_Init+0x11c>)
 8001222:	f04f 4280 	mov.w	r2, #1073741824	@ 0x40000000
 8001226:	601a      	str	r2, [r3, #0]
  htim2.Init.Prescaler = 0;
 8001228:	4b32      	ldr	r3, [pc, #200]	@ (80012f4 <MX_TIM2_Init+0x11c>)
 800122a:	2200      	movs	r2, #0
 800122c:	605a      	str	r2, [r3, #4]
  htim2.Init.CounterMode = TIM_COUNTERMODE_UP;
 800122e:	4b31      	ldr	r3, [pc, #196]	@ (80012f4 <MX_TIM2_Init+0x11c>)
 8001230:	2200      	movs	r2, #0
 8001232:	609a      	str	r2, [r3, #8]
  htim2.Init.Period = period;
 8001234:	4a2f      	ldr	r2, [pc, #188]	@ (80012f4 <MX_TIM2_Init+0x11c>)
 8001236:	6bbb      	ldr	r3, [r7, #56]	@ 0x38
 8001238:	60d3      	str	r3, [r2, #12]
  htim2.Init.ClockDivision = TIM_CLOCKDIVISION_DIV1;
 800123a:	4b2e      	ldr	r3, [pc, #184]	@ (80012f4 <MX_TIM2_Init+0x11c>)
 800123c:	2200      	movs	r2, #0
 800123e:	611a      	str	r2, [r3, #16]
  htim2.Init.AutoReloadPreload = TIM_AUTORELOAD_PRELOAD_ENABLE;
 8001240:	4b2c      	ldr	r3, [pc, #176]	@ (80012f4 <MX_TIM2_Init+0x11c>)
 8001242:	2280      	movs	r2, #128	@ 0x80
 8001244:	619a      	str	r2, [r3, #24]
  if (HAL_TIM_Base_Init(&htim2) != HAL_OK)
 8001246:	482b      	ldr	r0, [pc, #172]	@ (80012f4 <MX_TIM2_Init+0x11c>)
 8001248:	f001 fe16 	bl	8002e78 <HAL_TIM_Base_Init>
 800124c:	4603      	mov	r3, r0
 800124e:	2b00      	cmp	r3, #0
 8001250:	d001      	beq.n	8001256 <MX_TIM2_Init+0x7e>
  {
    Error_Handler();
 8001252:	f000 f8bd 	bl	80013d0 <Error_Handler>
  }
  sClockSourceConfig.ClockSource = TIM_CLOCKSOURCE_INTERNAL;
 8001256:	f44f 5380 	mov.w	r3, #4096	@ 0x1000
 800125a:	627b      	str	r3, [r7, #36]	@ 0x24
  if (HAL_TIM_ConfigClockSource(&htim2, &sClockSourceConfig) != HAL_OK)
 800125c:	f107 0324 	add.w	r3, r7, #36	@ 0x24
 8001260:	4619      	mov	r1, r3
 8001262:	4824      	ldr	r0, [pc, #144]	@ (80012f4 <MX_TIM2_Init+0x11c>)
 8001264:	f002 f83a 	bl	80032dc <HAL_TIM_ConfigClockSource>
 8001268:	4603      	mov	r3, r0
 800126a:	2b00      	cmp	r3, #0
 800126c:	d001      	beq.n	8001272 <MX_TIM2_Init+0x9a>
  {
    Error_Handler();
 800126e:	f000 f8af 	bl	80013d0 <Error_Handler>
  }
  if (HAL_TIM_PWM_Init(&htim2) != HAL_OK)
 8001272:	4820      	ldr	r0, [pc, #128]	@ (80012f4 <MX_TIM2_Init+0x11c>)
 8001274:	f001 fe4f 	bl	8002f16 <HAL_TIM_PWM_Init>
 8001278:	4603      	mov	r3, r0
 800127a:	2b00      	cmp	r3, #0
 800127c:	d001      	beq.n	8001282 <MX_TIM2_Init+0xaa>
  {
    Error_Handler();
 800127e:	f000 f8a7 	bl	80013d0 <Error_Handler>
  }
  sMasterConfig.MasterOutputTrigger = TIM_TRGO_RESET;
 8001282:	2300      	movs	r3, #0
 8001284:	61fb      	str	r3, [r7, #28]
  sMasterConfig.MasterSlaveMode = TIM_MASTERSLAVEMODE_DISABLE;
 8001286:	2300      	movs	r3, #0
 8001288:	623b      	str	r3, [r7, #32]
  if (HAL_TIMEx_MasterConfigSynchronization(&htim2, &sMasterConfig) != HAL_OK)
 800128a:	f107 031c 	add.w	r3, r7, #28
 800128e:	4619      	mov	r1, r3
 8001290:	4818      	ldr	r0, [pc, #96]	@ (80012f4 <MX_TIM2_Init+0x11c>)
 8001292:	f002 fc07 	bl	8003aa4 <HAL_TIMEx_MasterConfigSynchronization>
 8001296:	4603      	mov	r3, r0
 8001298:	2b00      	cmp	r3, #0
 800129a:	d001      	beq.n	80012a0 <MX_TIM2_Init+0xc8>
  {
    Error_Handler();
 800129c:	f000 f898 	bl	80013d0 <Error_Handler>
  }
  sConfigOC.OCMode = TIM_OCMODE_PWM1;
 80012a0:	2360      	movs	r3, #96	@ 0x60
 80012a2:	603b      	str	r3, [r7, #0]

  uint32_t pulse = (PWM_DUTY_CYCLE_INITIAL / 100.0f) * (period);
 80012a4:	6bbb      	ldr	r3, [r7, #56]	@ 0x38
 80012a6:	ee07 3a90 	vmov	s15, r3
 80012aa:	eef8 7a67 	vcvt.f32.u32	s15, s15
 80012ae:	eeb5 7a00 	vmov.f32	s14, #80	@ 0x3e800000  0.250
 80012b2:	ee67 7a87 	vmul.f32	s15, s15, s14
 80012b6:	eefc 7ae7 	vcvt.u32.f32	s15, s15
 80012ba:	ee17 3a90 	vmov	r3, s15
 80012be:	637b      	str	r3, [r7, #52]	@ 0x34

  sConfigOC.Pulse = pulse;
 80012c0:	6b7b      	ldr	r3, [r7, #52]	@ 0x34
 80012c2:	607b      	str	r3, [r7, #4]
  sConfigOC.OCPolarity = TIM_OCPOLARITY_HIGH;
 80012c4:	2300      	movs	r3, #0
 80012c6:	60bb      	str	r3, [r7, #8]
  sConfigOC.OCFastMode = TIM_OCFAST_DISABLE;
 80012c8:	2300      	movs	r3, #0
 80012ca:	613b      	str	r3, [r7, #16]
  if (HAL_TIM_PWM_ConfigChannel(&htim2, &sConfigOC, TIM_CHANNEL_1) != HAL_OK)
 80012cc:	463b      	mov	r3, r7
 80012ce:	2200      	movs	r2, #0
 80012d0:	4619      	mov	r1, r3
 80012d2:	4808      	ldr	r0, [pc, #32]	@ (80012f4 <MX_TIM2_Init+0x11c>)
 80012d4:	f001 ff40 	bl	8003158 <HAL_TIM_PWM_ConfigChannel>
 80012d8:	4603      	mov	r3, r0
 80012da:	2b00      	cmp	r3, #0
 80012dc:	d001      	beq.n	80012e2 <MX_TIM2_Init+0x10a>
  {
    Error_Handler();
 80012de:	f000 f877 	bl	80013d0 <Error_Handler>
  }

  HAL_TIM_MspPostInit(&htim2);
 80012e2:	4804      	ldr	r0, [pc, #16]	@ (80012f4 <MX_TIM2_Init+0x11c>)
 80012e4:	f000 f8c6 	bl	8001474 <HAL_TIM_MspPostInit>
}
 80012e8:	bf00      	nop
 80012ea:	3740      	adds	r7, #64	@ 0x40
 80012ec:	46bd      	mov	sp, r7
 80012ee:	bd80      	pop	{r7, pc}
 80012f0:	715c0c9f 	.word	0x715c0c9f
 80012f4:	200001f4 	.word	0x200001f4

080012f8 <MX_USART2_UART_Init>:
 * @brief USART2 Initialization Function
 * @param None
 * @retval None
 */
static void MX_USART2_UART_Init(void)
{
 80012f8:	b580      	push	{r7, lr}
 80012fa:	af00      	add	r7, sp, #0

  huart2.Instance = USART2;
 80012fc:	4b11      	ldr	r3, [pc, #68]	@ (8001344 <MX_USART2_UART_Init+0x4c>)
 80012fe:	4a12      	ldr	r2, [pc, #72]	@ (8001348 <MX_USART2_UART_Init+0x50>)
 8001300:	601a      	str	r2, [r3, #0]
  huart2.Init.BaudRate = 115200;
 8001302:	4b10      	ldr	r3, [pc, #64]	@ (8001344 <MX_USART2_UART_Init+0x4c>)
 8001304:	f44f 32e1 	mov.w	r2, #115200	@ 0x1c200
 8001308:	605a      	str	r2, [r3, #4]
  huart2.Init.WordLength = UART_WORDLENGTH_8B;
 800130a:	4b0e      	ldr	r3, [pc, #56]	@ (8001344 <MX_USART2_UART_Init+0x4c>)
 800130c:	2200      	movs	r2, #0
 800130e:	609a      	str	r2, [r3, #8]
  huart2.Init.StopBits = UART_STOPBITS_1;
 8001310:	4b0c      	ldr	r3, [pc, #48]	@ (8001344 <MX_USART2_UART_Init+0x4c>)
 8001312:	2200      	movs	r2, #0
 8001314:	60da      	str	r2, [r3, #12]
  huart2.Init.Parity = UART_PARITY_NONE;
 8001316:	4b0b      	ldr	r3, [pc, #44]	@ (8001344 <MX_USART2_UART_Init+0x4c>)
 8001318:	2200      	movs	r2, #0
 800131a:	611a      	str	r2, [r3, #16]
  huart2.Init.Mode = UART_MODE_TX_RX;
 800131c:	4b09      	ldr	r3, [pc, #36]	@ (8001344 <MX_USART2_UART_Init+0x4c>)
 800131e:	220c      	movs	r2, #12
 8001320:	615a      	str	r2, [r3, #20]
  huart2.Init.HwFlowCtl = UART_HWCONTROL_NONE;
 8001322:	4b08      	ldr	r3, [pc, #32]	@ (8001344 <MX_USART2_UART_Init+0x4c>)
 8001324:	2200      	movs	r2, #0
 8001326:	619a      	str	r2, [r3, #24]
  huart2.Init.OverSampling = UART_OVERSAMPLING_16;
 8001328:	4b06      	ldr	r3, [pc, #24]	@ (8001344 <MX_USART2_UART_Init+0x4c>)
 800132a:	2200      	movs	r2, #0
 800132c:	61da      	str	r2, [r3, #28]
  if (HAL_UART_Init(&huart2) != HAL_OK)
 800132e:	4805      	ldr	r0, [pc, #20]	@ (8001344 <MX_USART2_UART_Init+0x4c>)
 8001330:	f002 fc34 	bl	8003b9c <HAL_UART_Init>
 8001334:	4603      	mov	r3, r0
 8001336:	2b00      	cmp	r3, #0
 8001338:	d001      	beq.n	800133e <MX_USART2_UART_Init+0x46>
  {
    Error_Handler();
 800133a:	f000 f849 	bl	80013d0 <Error_Handler>
  }
}
 800133e:	bf00      	nop
 8001340:	bd80      	pop	{r7, pc}
 8001342:	bf00      	nop
 8001344:	2000023c 	.word	0x2000023c
 8001348:	40004400 	.word	0x40004400

0800134c <MX_GPIO_Init>:
 * @brief GPIO Initialization Function
 * @param None
 * @retval None
 */
static void MX_GPIO_Init(void)
{
 800134c:	b580      	push	{r7, lr}
 800134e:	b088      	sub	sp, #32
 8001350:	af00      	add	r7, sp, #0
  GPIO_InitTypeDef GPIO_InitStruct = {0};
 8001352:	f107 030c 	add.w	r3, r7, #12
 8001356:	2200      	movs	r2, #0
 8001358:	601a      	str	r2, [r3, #0]
 800135a:	605a      	str	r2, [r3, #4]
 800135c:	609a      	str	r2, [r3, #8]
 800135e:	60da      	str	r2, [r3, #12]
 8001360:	611a      	str	r2, [r3, #16]
  /* USER CODE BEGIN MX_GPIO_Init_1 */

  /* USER CODE END MX_GPIO_Init_1 */

  /* GPIO Ports Clock Enable */
  __HAL_RCC_GPIOH_CLK_ENABLE();
 8001362:	2300      	movs	r3, #0
 8001364:	60bb      	str	r3, [r7, #8]
 8001366:	4b18      	ldr	r3, [pc, #96]	@ (80013c8 <MX_GPIO_Init+0x7c>)
 8001368:	6b1b      	ldr	r3, [r3, #48]	@ 0x30
 800136a:	4a17      	ldr	r2, [pc, #92]	@ (80013c8 <MX_GPIO_Init+0x7c>)
 800136c:	f043 0380 	orr.w	r3, r3, #128	@ 0x80
 8001370:	6313      	str	r3, [r2, #48]	@ 0x30
 8001372:	4b15      	ldr	r3, [pc, #84]	@ (80013c8 <MX_GPIO_Init+0x7c>)
 8001374:	6b1b      	ldr	r3, [r3, #48]	@ 0x30
 8001376:	f003 0380 	and.w	r3, r3, #128	@ 0x80
 800137a:	60bb      	str	r3, [r7, #8]
 800137c:	68bb      	ldr	r3, [r7, #8]
  __HAL_RCC_GPIOA_CLK_ENABLE();
 800137e:	2300      	movs	r3, #0
 8001380:	607b      	str	r3, [r7, #4]
 8001382:	4b11      	ldr	r3, [pc, #68]	@ (80013c8 <MX_GPIO_Init+0x7c>)
 8001384:	6b1b      	ldr	r3, [r3, #48]	@ 0x30
 8001386:	4a10      	ldr	r2, [pc, #64]	@ (80013c8 <MX_GPIO_Init+0x7c>)
 8001388:	f043 0301 	orr.w	r3, r3, #1
 800138c:	6313      	str	r3, [r2, #48]	@ 0x30
 800138e:	4b0e      	ldr	r3, [pc, #56]	@ (80013c8 <MX_GPIO_Init+0x7c>)
 8001390:	6b1b      	ldr	r3, [r3, #48]	@ 0x30
 8001392:	f003 0301 	and.w	r3, r3, #1
 8001396:	607b      	str	r3, [r7, #4]
 8001398:	687b      	ldr	r3, [r7, #4]

  /*Configure GPIO pin Output Level */
  HAL_GPIO_WritePin(LED_GPIO_Port, LED_Pin, GPIO_PIN_RESET);
 800139a:	2200      	movs	r2, #0
 800139c:	2120      	movs	r1, #32
 800139e:	480b      	ldr	r0, [pc, #44]	@ (80013cc <MX_GPIO_Init+0x80>)
 80013a0:	f000 ff4e 	bl	8002240 <HAL_GPIO_WritePin>

  /*Configure GPIO pin : LED_Pin */
  GPIO_InitStruct.Pin = LED_Pin;
 80013a4:	2320      	movs	r3, #32
 80013a6:	60fb      	str	r3, [r7, #12]
  GPIO_InitStruct.Mode = GPIO_MODE_OUTPUT_PP;
 80013a8:	2301      	movs	r3, #1
 80013aa:	613b      	str	r3, [r7, #16]
  GPIO_InitStruct.Pull = GPIO_NOPULL;
 80013ac:	2300      	movs	r3, #0
 80013ae:	617b      	str	r3, [r7, #20]
  GPIO_InitStruct.Speed = GPIO_SPEED_FREQ_LOW;
 80013b0:	2300      	movs	r3, #0
 80013b2:	61bb      	str	r3, [r7, #24]
  HAL_GPIO_Init(LED_GPIO_Port, &GPIO_InitStruct);
 80013b4:	f107 030c 	add.w	r3, r7, #12
 80013b8:	4619      	mov	r1, r3
 80013ba:	4804      	ldr	r0, [pc, #16]	@ (80013cc <MX_GPIO_Init+0x80>)
 80013bc:	f000 fdac 	bl	8001f18 <HAL_GPIO_Init>
}
 80013c0:	bf00      	nop
 80013c2:	3720      	adds	r7, #32
 80013c4:	46bd      	mov	sp, r7
 80013c6:	bd80      	pop	{r7, pc}
 80013c8:	40023800 	.word	0x40023800
 80013cc:	40020000 	.word	0x40020000

080013d0 <Error_Handler>:
/**
 * @brief  This function is executed in case of error occurrence.
 * @retval None
 */
void Error_Handler(void)
{
 80013d0:	b480      	push	{r7}
 80013d2:	af00      	add	r7, sp, #0
  \details Disables IRQ interrupts by setting special-purpose register PRIMASK.
           Can only be executed in Privileged modes.
 */
__STATIC_FORCEINLINE void __disable_irq(void)
{
  __ASM volatile ("cpsid i" : : : "memory");
 80013d4:	b672      	cpsid	i
}
 80013d6:	bf00      	nop
  /* USER CODE BEGIN Error_Handler_Debug */
  /* User can add his own implementation to report the HAL error return state */
  __disable_irq();
  while (1)
 80013d8:	bf00      	nop
 80013da:	e7fd      	b.n	80013d8 <Error_Handler+0x8>

080013dc <HAL_MspInit>:
void HAL_TIM_MspPostInit(TIM_HandleTypeDef *htim);
                    /**
  * Initializes the Global MSP.
  */
void HAL_MspInit(void)
{
 80013dc:	b580      	push	{r7, lr}
 80013de:	b082      	sub	sp, #8
 80013e0:	af00      	add	r7, sp, #0

  /* USER CODE BEGIN MspInit 0 */

  /* USER CODE END MspInit 0 */

  __HAL_RCC_SYSCFG_CLK_ENABLE();
 80013e2:	2300      	movs	r3, #0
 80013e4:	607b      	str	r3, [r7, #4]
 80013e6:	4b12      	ldr	r3, [pc, #72]	@ (8001430 <HAL_MspInit+0x54>)
 80013e8:	6c5b      	ldr	r3, [r3, #68]	@ 0x44
 80013ea:	4a11      	ldr	r2, [pc, #68]	@ (8001430 <HAL_MspInit+0x54>)
 80013ec:	f443 4380 	orr.w	r3, r3, #16384	@ 0x4000
 80013f0:	6453      	str	r3, [r2, #68]	@ 0x44
 80013f2:	4b0f      	ldr	r3, [pc, #60]	@ (8001430 <HAL_MspInit+0x54>)
 80013f4:	6c5b      	ldr	r3, [r3, #68]	@ 0x44
 80013f6:	f403 4380 	and.w	r3, r3, #16384	@ 0x4000
 80013fa:	607b      	str	r3, [r7, #4]
 80013fc:	687b      	ldr	r3, [r7, #4]
  __HAL_RCC_PWR_CLK_ENABLE();
 80013fe:	2300      	movs	r3, #0
 8001400:	603b      	str	r3, [r7, #0]
 8001402:	4b0b      	ldr	r3, [pc, #44]	@ (8001430 <HAL_MspInit+0x54>)
 8001404:	6c1b      	ldr	r3, [r3, #64]	@ 0x40
 8001406:	4a0a      	ldr	r2, [pc, #40]	@ (8001430 <HAL_MspInit+0x54>)
 8001408:	f043 5380 	orr.w	r3, r3, #268435456	@ 0x10000000
 800140c:	6413      	str	r3, [r2, #64]	@ 0x40
 800140e:	4b08      	ldr	r3, [pc, #32]	@ (8001430 <HAL_MspInit+0x54>)
 8001410:	6c1b      	ldr	r3, [r3, #64]	@ 0x40
 8001412:	f003 5380 	and.w	r3, r3, #268435456	@ 0x10000000
 8001416:	603b      	str	r3, [r7, #0]
 8001418:	683b      	ldr	r3, [r7, #0]

  /* System interrupt init*/
  /* PendSV_IRQn interrupt configuration */
  HAL_NVIC_SetPriority(PendSV_IRQn, 15, 0);
 800141a:	2200      	movs	r2, #0
 800141c:	210f      	movs	r1, #15
 800141e:	f06f 0001 	mvn.w	r0, #1
 8001422:	f000 fcb0 	bl	8001d86 <HAL_NVIC_SetPriority>

  /* USER CODE BEGIN MspInit 1 */

  /* USER CODE END MspInit 1 */
}
 8001426:	bf00      	nop
 8001428:	3708      	adds	r7, #8
 800142a:	46bd      	mov	sp, r7
 800142c:	bd80      	pop	{r7, pc}
 800142e:	bf00      	nop
 8001430:	40023800 	.word	0x40023800

08001434 <HAL_TIM_Base_MspInit>:
  * This function configures the hardware resources used in this example
  * @param htim_base: TIM_Base handle pointer
  * @retval None
  */
void HAL_TIM_Base_MspInit(TIM_HandleTypeDef* htim_base)
{
 8001434:	b480      	push	{r7}
 8001436:	b085      	sub	sp, #20
 8001438:	af00      	add	r7, sp, #0
 800143a:	6078      	str	r0, [r7, #4]
  if(htim_base->Instance==TIM2)
 800143c:	687b      	ldr	r3, [r7, #4]
 800143e:	681b      	ldr	r3, [r3, #0]
 8001440:	f1b3 4f80 	cmp.w	r3, #1073741824	@ 0x40000000
 8001444:	d10d      	bne.n	8001462 <HAL_TIM_Base_MspInit+0x2e>
  {
    /* USER CODE BEGIN TIM2_MspInit 0 */

    /* USER CODE END TIM2_MspInit 0 */
    /* Peripheral clock enable */
    __HAL_RCC_TIM2_CLK_ENABLE();
 8001446:	2300      	movs	r3, #0
 8001448:	60fb      	str	r3, [r7, #12]
 800144a:	4b09      	ldr	r3, [pc, #36]	@ (8001470 <HAL_TIM_Base_MspInit+0x3c>)
 800144c:	6c1b      	ldr	r3, [r3, #64]	@ 0x40
 800144e:	4a08      	ldr	r2, [pc, #32]	@ (8001470 <HAL_TIM_Base_MspInit+0x3c>)
 8001450:	f043 0301 	orr.w	r3, r3, #1
 8001454:	6413      	str	r3, [r2, #64]	@ 0x40
 8001456:	4b06      	ldr	r3, [pc, #24]	@ (8001470 <HAL_TIM_Base_MspInit+0x3c>)
 8001458:	6c1b      	ldr	r3, [r3, #64]	@ 0x40
 800145a:	f003 0301 	and.w	r3, r3, #1
 800145e:	60fb      	str	r3, [r7, #12]
 8001460:	68fb      	ldr	r3, [r7, #12]

    /* USER CODE END TIM2_MspInit 1 */

  }

}
 8001462:	bf00      	nop
 8001464:	3714      	adds	r7, #20
 8001466:	46bd      	mov	sp, r7
 8001468:	f85d 7b04 	ldr.w	r7, [sp], #4
 800146c:	4770      	bx	lr
 800146e:	bf00      	nop
 8001470:	40023800 	.word	0x40023800

08001474 <HAL_TIM_MspPostInit>:

void HAL_TIM_MspPostInit(TIM_HandleTypeDef* htim)
{
 8001474:	b580      	push	{r7, lr}
 8001476:	b088      	sub	sp, #32
 8001478:	af00      	add	r7, sp, #0
 800147a:	6078      	str	r0, [r7, #4]
  GPIO_InitTypeDef GPIO_InitStruct = {0};
 800147c:	f107 030c 	add.w	r3, r7, #12
 8001480:	2200      	movs	r2, #0
 8001482:	601a      	str	r2, [r3, #0]
 8001484:	605a      	str	r2, [r3, #4]
 8001486:	609a      	str	r2, [r3, #8]
 8001488:	60da      	str	r2, [r3, #12]
 800148a:	611a      	str	r2, [r3, #16]
  if(htim->Instance==TIM2)
 800148c:	687b      	ldr	r3, [r7, #4]
 800148e:	681b      	ldr	r3, [r3, #0]
 8001490:	f1b3 4f80 	cmp.w	r3, #1073741824	@ 0x40000000
 8001494:	d11d      	bne.n	80014d2 <HAL_TIM_MspPostInit+0x5e>
  {
    /* USER CODE BEGIN TIM2_MspPostInit 0 */

    /* USER CODE END TIM2_MspPostInit 0 */

    __HAL_RCC_GPIOA_CLK_ENABLE();
 8001496:	2300      	movs	r3, #0
 8001498:	60bb      	str	r3, [r7, #8]
 800149a:	4b10      	ldr	r3, [pc, #64]	@ (80014dc <HAL_TIM_MspPostInit+0x68>)
 800149c:	6b1b      	ldr	r3, [r3, #48]	@ 0x30
 800149e:	4a0f      	ldr	r2, [pc, #60]	@ (80014dc <HAL_TIM_MspPostInit+0x68>)
 80014a0:	f043 0301 	orr.w	r3, r3, #1
 80014a4:	6313      	str	r3, [r2, #48]	@ 0x30
 80014a6:	4b0d      	ldr	r3, [pc, #52]	@ (80014dc <HAL_TIM_MspPostInit+0x68>)
 80014a8:	6b1b      	ldr	r3, [r3, #48]	@ 0x30
 80014aa:	f003 0301 	and.w	r3, r3, #1
 80014ae:	60bb      	str	r3, [r7, #8]
 80014b0:	68bb      	ldr	r3, [r7, #8]
    /**TIM2 GPIO Configuration
    PA0-WKUP     ------> TIM2_CH1
    */
    GPIO_InitStruct.Pin = GPIO_PIN_0;
 80014b2:	2301      	movs	r3, #1
 80014b4:	60fb      	str	r3, [r7, #12]
    GPIO_InitStruct.Mode = GPIO_MODE_AF_PP;
 80014b6:	2302      	movs	r3, #2
 80014b8:	613b      	str	r3, [r7, #16]
    GPIO_InitStruct.Pull = GPIO_NOPULL;
 80014ba:	2300      	movs	r3, #0
 80014bc:	617b      	str	r3, [r7, #20]
    GPIO_InitStruct.Speed = GPIO_SPEED_FREQ_LOW;
 80014be:	2300      	movs	r3, #0
 80014c0:	61bb      	str	r3, [r7, #24]
    GPIO_InitStruct.Alternate = GPIO_AF1_TIM2;
 80014c2:	2301      	movs	r3, #1
 80014c4:	61fb      	str	r3, [r7, #28]
    HAL_GPIO_Init(GPIOA, &GPIO_InitStruct);
 80014c6:	f107 030c 	add.w	r3, r7, #12
 80014ca:	4619      	mov	r1, r3
 80014cc:	4804      	ldr	r0, [pc, #16]	@ (80014e0 <HAL_TIM_MspPostInit+0x6c>)
 80014ce:	f000 fd23 	bl	8001f18 <HAL_GPIO_Init>
    /* USER CODE BEGIN TIM2_MspPostInit 1 */

    /* USER CODE END TIM2_MspPostInit 1 */
  }

}
 80014d2:	bf00      	nop
 80014d4:	3720      	adds	r7, #32
 80014d6:	46bd      	mov	sp, r7
 80014d8:	bd80      	pop	{r7, pc}
 80014da:	bf00      	nop
 80014dc:	40023800 	.word	0x40023800
 80014e0:	40020000 	.word	0x40020000

080014e4 <HAL_UART_MspInit>:
  * This function configures the hardware resources used in this example
  * @param huart: UART handle pointer
  * @retval None
  */
void HAL_UART_MspInit(UART_HandleTypeDef* huart)
{
 80014e4:	b580      	push	{r7, lr}
 80014e6:	b08a      	sub	sp, #40	@ 0x28
 80014e8:	af00      	add	r7, sp, #0
 80014ea:	6078      	str	r0, [r7, #4]
  GPIO_InitTypeDef GPIO_InitStruct = {0};
 80014ec:	f107 0314 	add.w	r3, r7, #20
 80014f0:	2200      	movs	r2, #0
 80014f2:	601a      	str	r2, [r3, #0]
 80014f4:	605a      	str	r2, [r3, #4]
 80014f6:	609a      	str	r2, [r3, #8]
 80014f8:	60da      	str	r2, [r3, #12]
 80014fa:	611a      	str	r2, [r3, #16]
  if(huart->Instance==USART2)
 80014fc:	687b      	ldr	r3, [r7, #4]
 80014fe:	681b      	ldr	r3, [r3, #0]
 8001500:	4a1d      	ldr	r2, [pc, #116]	@ (8001578 <HAL_UART_MspInit+0x94>)
 8001502:	4293      	cmp	r3, r2
 8001504:	d133      	bne.n	800156e <HAL_UART_MspInit+0x8a>
  {
    /* USER CODE BEGIN USART2_MspInit 0 */

    /* USER CODE END USART2_MspInit 0 */
    /* Peripheral clock enable */
    __HAL_RCC_USART2_CLK_ENABLE();
 8001506:	2300      	movs	r3, #0
 8001508:	613b      	str	r3, [r7, #16]
 800150a:	4b1c      	ldr	r3, [pc, #112]	@ (800157c <HAL_UART_MspInit+0x98>)
 800150c:	6c1b      	ldr	r3, [r3, #64]	@ 0x40
 800150e:	4a1b      	ldr	r2, [pc, #108]	@ (800157c <HAL_UART_MspInit+0x98>)
 8001510:	f443 3300 	orr.w	r3, r3, #131072	@ 0x20000
 8001514:	6413      	str	r3, [r2, #64]	@ 0x40
 8001516:	4b19      	ldr	r3, [pc, #100]	@ (800157c <HAL_UART_MspInit+0x98>)
 8001518:	6c1b      	ldr	r3, [r3, #64]	@ 0x40
 800151a:	f403 3300 	and.w	r3, r3, #131072	@ 0x20000
 800151e:	613b      	str	r3, [r7, #16]
 8001520:	693b      	ldr	r3, [r7, #16]

    __HAL_RCC_GPIOA_CLK_ENABLE();
 8001522:	2300      	movs	r3, #0
 8001524:	60fb      	str	r3, [r7, #12]
 8001526:	4b15      	ldr	r3, [pc, #84]	@ (800157c <HAL_UART_MspInit+0x98>)
 8001528:	6b1b      	ldr	r3, [r3, #48]	@ 0x30
 800152a:	4a14      	ldr	r2, [pc, #80]	@ (800157c <HAL_UART_MspInit+0x98>)
 800152c:	f043 0301 	orr.w	r3, r3, #1
 8001530:	6313      	str	r3, [r2, #48]	@ 0x30
 8001532:	4b12      	ldr	r3, [pc, #72]	@ (800157c <HAL_UART_MspInit+0x98>)
 8001534:	6b1b      	ldr	r3, [r3, #48]	@ 0x30
 8001536:	f003 0301 	and.w	r3, r3, #1
 800153a:	60fb      	str	r3, [r7, #12]
 800153c:	68fb      	ldr	r3, [r7, #12]
    /**USART2 GPIO Configuration
    PA2     ------> USART2_TX
    PA3     ------> USART2_RX
    */
    GPIO_InitStruct.Pin = GPIO_PIN_2|GPIO_PIN_3;
 800153e:	230c      	movs	r3, #12
 8001540:	617b      	str	r3, [r7, #20]
    GPIO_InitStruct.Mode = GPIO_MODE_AF_PP;
 8001542:	2302      	movs	r3, #2
 8001544:	61bb      	str	r3, [r7, #24]
    GPIO_InitStruct.Pull = GPIO_NOPULL;
 8001546:	2300      	movs	r3, #0
 8001548:	61fb      	str	r3, [r7, #28]
    GPIO_InitStruct.Speed = GPIO_SPEED_FREQ_VERY_HIGH;
 800154a:	2303      	movs	r3, #3
 800154c:	623b      	str	r3, [r7, #32]
    GPIO_InitStruct.Alternate = GPIO_AF7_USART2;
 800154e:	2307      	movs	r3, #7
 8001550:	627b      	str	r3, [r7, #36]	@ 0x24
    HAL_GPIO_Init(GPIOA, &GPIO_InitStruct);
 8001552:	f107 0314 	add.w	r3, r7, #20
 8001556:	4619      	mov	r1, r3
 8001558:	4809      	ldr	r0, [pc, #36]	@ (8001580 <HAL_UART_MspInit+0x9c>)
 800155a:	f000 fcdd 	bl	8001f18 <HAL_GPIO_Init>

    /* USART2 interrupt Init */
    HAL_NVIC_SetPriority(USART2_IRQn, 5, 0);
 800155e:	2200      	movs	r2, #0
 8001560:	2105      	movs	r1, #5
 8001562:	2026      	movs	r0, #38	@ 0x26
 8001564:	f000 fc0f 	bl	8001d86 <HAL_NVIC_SetPriority>
    HAL_NVIC_EnableIRQ(USART2_IRQn);
 8001568:	2026      	movs	r0, #38	@ 0x26
 800156a:	f000 fc28 	bl	8001dbe <HAL_NVIC_EnableIRQ>

    /* USER CODE END USART2_MspInit 1 */

  }

}
 800156e:	bf00      	nop
 8001570:	3728      	adds	r7, #40	@ 0x28
 8001572:	46bd      	mov	sp, r7
 8001574:	bd80      	pop	{r7, pc}
 8001576:	bf00      	nop
 8001578:	40004400 	.word	0x40004400
 800157c:	40023800 	.word	0x40023800
 8001580:	40020000 	.word	0x40020000

08001584 <NMI_Handler>:
/******************************************************************************/
/**
  * @brief This function handles Non maskable interrupt.
  */
void NMI_Handler(void)
{
 8001584:	b480      	push	{r7}
 8001586:	af00      	add	r7, sp, #0
  /* USER CODE BEGIN NonMaskableInt_IRQn 0 */

  /* USER CODE END NonMaskableInt_IRQn 0 */
  /* USER CODE BEGIN NonMaskableInt_IRQn 1 */
   while (1)
 8001588:	bf00      	nop
 800158a:	e7fd      	b.n	8001588 <NMI_Handler+0x4>

0800158c <HardFault_Handler>:

/**
  * @brief This function handles Hard fault interrupt.
  */
void HardFault_Handler(void)
{
 800158c:	b480      	push	{r7}
 800158e:	af00      	add	r7, sp, #0
  /* USER CODE BEGIN HardFault_IRQn 0 */

  /* USER CODE END HardFault_IRQn 0 */
  while (1)
 8001590:	bf00      	nop
 8001592:	e7fd      	b.n	8001590 <HardFault_Handler+0x4>

08001594 <MemManage_Handler>:

/**
  * @brief This function handles Memory management fault.
  */
void MemManage_Handler(void)
{
 8001594:	b480      	push	{r7}
 8001596:	af00      	add	r7, sp, #0
  /* USER CODE BEGIN MemoryManagement_IRQn 0 */

  /* USER CODE END MemoryManagement_IRQn 0 */
  while (1)
 8001598:	bf00      	nop
 800159a:	e7fd      	b.n	8001598 <MemManage_Handler+0x4>

0800159c <BusFault_Handler>:

/**
  * @brief This function handles Pre-fetch fault, memory access fault.
  */
void BusFault_Handler(void)
{
 800159c:	b480      	push	{r7}
 800159e:	af00      	add	r7, sp, #0
  /* USER CODE BEGIN BusFault_IRQn 0 */

  /* USER CODE END BusFault_IRQn 0 */
  while (1)
 80015a0:	bf00      	nop
 80015a2:	e7fd      	b.n	80015a0 <BusFault_Handler+0x4>

080015a4 <UsageFault_Handler>:

/**
  * @brief This function handles Undefined instruction or illegal state.
  */
void UsageFault_Handler(void)
{
 80015a4:	b480      	push	{r7}
 80015a6:	af00      	add	r7, sp, #0
  /* USER CODE BEGIN UsageFault_IRQn 0 */

  /* USER CODE END UsageFault_IRQn 0 */
  while (1)
 80015a8:	bf00      	nop
 80015aa:	e7fd      	b.n	80015a8 <UsageFault_Handler+0x4>

080015ac <DebugMon_Handler>:

/**
  * @brief This function handles Debug monitor.
  */
void DebugMon_Handler(void)
{
 80015ac:	b480      	push	{r7}
 80015ae:	af00      	add	r7, sp, #0

  /* USER CODE END DebugMonitor_IRQn 0 */
  /* USER CODE BEGIN DebugMonitor_IRQn 1 */

  /* USER CODE END DebugMonitor_IRQn 1 */
}
 80015b0:	bf00      	nop
 80015b2:	46bd      	mov	sp, r7
 80015b4:	f85d 7b04 	ldr.w	r7, [sp], #4
 80015b8:	4770      	bx	lr

080015ba <SysTick_Handler>:

/**
  * @brief This function handles System tick timer.
  */
void SysTick_Handler(void)
{
 80015ba:	b580      	push	{r7, lr}
 80015bc:	af00      	add	r7, sp, #0
  /* USER CODE BEGIN SysTick_IRQn 0 */

  /* USER CODE END SysTick_IRQn 0 */
  HAL_IncTick();
 80015be:	f000 fac3 	bl	8001b48 <HAL_IncTick>
#if (INCLUDE_xTaskGetSchedulerState == 1 )
  if (xTaskGetSchedulerState() != taskSCHEDULER_NOT_STARTED)
 80015c2:	f005 f8e3 	bl	800678c <xTaskGetSchedulerState>
 80015c6:	4603      	mov	r3, r0
 80015c8:	2b01      	cmp	r3, #1
 80015ca:	d001      	beq.n	80015d0 <SysTick_Handler+0x16>
  {
#endif /* INCLUDE_xTaskGetSchedulerState */
  xPortSysTickHandler();
 80015cc:	f005 ffdc 	bl	8007588 <xPortSysTickHandler>
  }
#endif /* INCLUDE_xTaskGetSchedulerState */
  /* USER CODE BEGIN SysTick_IRQn 1 */

  /* USER CODE END SysTick_IRQn 1 */
}
 80015d0:	bf00      	nop
 80015d2:	bd80      	pop	{r7, pc}

080015d4 <USART2_IRQHandler>:

/**
  * @brief This function handles USART2 global interrupt.
  */
void USART2_IRQHandler(void)
{
 80015d4:	b580      	push	{r7, lr}
 80015d6:	af00      	add	r7, sp, #0
  /* USER CODE BEGIN USART2_IRQn 0 */

  /* USER CODE END USART2_IRQn 0 */
  HAL_UART_IRQHandler(&huart2);
 80015d8:	4802      	ldr	r0, [pc, #8]	@ (80015e4 <USART2_IRQHandler+0x10>)
 80015da:	f002 fbdf 	bl	8003d9c <HAL_UART_IRQHandler>
  /* USER CODE BEGIN USART2_IRQn 1 */

  /* USER CODE END USART2_IRQn 1 */
}
 80015de:	bf00      	nop
 80015e0:	bd80      	pop	{r7, pc}
 80015e2:	bf00      	nop
 80015e4:	2000023c 	.word	0x2000023c

080015e8 <_getpid>:
void initialise_monitor_handles()
{
}

int _getpid(void)
{
 80015e8:	b480      	push	{r7}
 80015ea:	af00      	add	r7, sp, #0
  return 1;
 80015ec:	2301      	movs	r3, #1
}
 80015ee:	4618      	mov	r0, r3
 80015f0:	46bd      	mov	sp, r7
 80015f2:	f85d 7b04 	ldr.w	r7, [sp], #4
 80015f6:	4770      	bx	lr

080015f8 <_kill>:

int _kill(int pid, int sig)
{
 80015f8:	b580      	push	{r7, lr}
 80015fa:	b082      	sub	sp, #8
 80015fc:	af00      	add	r7, sp, #0
 80015fe:	6078      	str	r0, [r7, #4]
 8001600:	6039      	str	r1, [r7, #0]
  (void)pid;
  (void)sig;
  errno = EINVAL;
 8001602:	f007 fdf5 	bl	80091f0 <__errno>
 8001606:	4603      	mov	r3, r0
 8001608:	2216      	movs	r2, #22
 800160a:	601a      	str	r2, [r3, #0]
  return -1;
 800160c:	f04f 33ff 	mov.w	r3, #4294967295	@ 0xffffffff
}
 8001610:	4618      	mov	r0, r3
 8001612:	3708      	adds	r7, #8
 8001614:	46bd      	mov	sp, r7
 8001616:	bd80      	pop	{r7, pc}

08001618 <_exit>:

void _exit (int status)
{
 8001618:	b580      	push	{r7, lr}
 800161a:	b082      	sub	sp, #8
 800161c:	af00      	add	r7, sp, #0
 800161e:	6078      	str	r0, [r7, #4]
  _kill(status, -1);
 8001620:	f04f 31ff 	mov.w	r1, #4294967295	@ 0xffffffff
 8001624:	6878      	ldr	r0, [r7, #4]
 8001626:	f7ff ffe7 	bl	80015f8 <_kill>
  while (1) {}    /* Make sure we hang here */
 800162a:	bf00      	nop
 800162c:	e7fd      	b.n	800162a <_exit+0x12>

0800162e <_read>:
}

__attribute__((weak)) int _read(int file, char *ptr, int len)
{
 800162e:	b580      	push	{r7, lr}
 8001630:	b086      	sub	sp, #24
 8001632:	af00      	add	r7, sp, #0
 8001634:	60f8      	str	r0, [r7, #12]
 8001636:	60b9      	str	r1, [r7, #8]
 8001638:	607a      	str	r2, [r7, #4]
  (void)file;
  int DataIdx;

  for (DataIdx = 0; DataIdx < len; DataIdx++)
 800163a:	2300      	movs	r3, #0
 800163c:	617b      	str	r3, [r7, #20]
 800163e:	e00a      	b.n	8001656 <_read+0x28>
  {
    *ptr++ = __io_getchar();
 8001640:	f3af 8000 	nop.w
 8001644:	4601      	mov	r1, r0
 8001646:	68bb      	ldr	r3, [r7, #8]
 8001648:	1c5a      	adds	r2, r3, #1
 800164a:	60ba      	str	r2, [r7, #8]
 800164c:	b2ca      	uxtb	r2, r1
 800164e:	701a      	strb	r2, [r3, #0]
  for (DataIdx = 0; DataIdx < len; DataIdx++)
 8001650:	697b      	ldr	r3, [r7, #20]
 8001652:	3301      	adds	r3, #1
 8001654:	617b      	str	r3, [r7, #20]
 8001656:	697a      	ldr	r2, [r7, #20]
 8001658:	687b      	ldr	r3, [r7, #4]
 800165a:	429a      	cmp	r2, r3
 800165c:	dbf0      	blt.n	8001640 <_read+0x12>
  }

  return len;
 800165e:	687b      	ldr	r3, [r7, #4]
}
 8001660:	4618      	mov	r0, r3
 8001662:	3718      	adds	r7, #24
 8001664:	46bd      	mov	sp, r7
 8001666:	bd80      	pop	{r7, pc}

08001668 <_write>:

__attribute__((weak)) int _write(int file, char *ptr, int len)
{
 8001668:	b580      	push	{r7, lr}
 800166a:	b086      	sub	sp, #24
 800166c:	af00      	add	r7, sp, #0
 800166e:	60f8      	str	r0, [r7, #12]
 8001670:	60b9      	str	r1, [r7, #8]
 8001672:	607a      	str	r2, [r7, #4]
  (void)file;
  int DataIdx;

  for (DataIdx = 0; DataIdx < len; DataIdx++)
 8001674:	2300      	movs	r3, #0
 8001676:	617b      	str	r3, [r7, #20]
 8001678:	e009      	b.n	800168e <_write+0x26>
  {
    __io_putchar(*ptr++);
 800167a:	68bb      	ldr	r3, [r7, #8]
 800167c:	1c5a      	adds	r2, r3, #1
 800167e:	60ba      	str	r2, [r7, #8]
 8001680:	781b      	ldrb	r3, [r3, #0]
 8001682:	4618      	mov	r0, r3
 8001684:	f000 f888 	bl	8001798 <__io_putchar>
  for (DataIdx = 0; DataIdx < len; DataIdx++)
 8001688:	697b      	ldr	r3, [r7, #20]
 800168a:	3301      	adds	r3, #1
 800168c:	617b      	str	r3, [r7, #20]
 800168e:	697a      	ldr	r2, [r7, #20]
 8001690:	687b      	ldr	r3, [r7, #4]
 8001692:	429a      	cmp	r2, r3
 8001694:	dbf1      	blt.n	800167a <_write+0x12>
  }
  return len;
 8001696:	687b      	ldr	r3, [r7, #4]
}
 8001698:	4618      	mov	r0, r3
 800169a:	3718      	adds	r7, #24
 800169c:	46bd      	mov	sp, r7
 800169e:	bd80      	pop	{r7, pc}

080016a0 <_close>:

int _close(int file)
{
 80016a0:	b480      	push	{r7}
 80016a2:	b083      	sub	sp, #12
 80016a4:	af00      	add	r7, sp, #0
 80016a6:	6078      	str	r0, [r7, #4]
  (void)file;
  return -1;
 80016a8:	f04f 33ff 	mov.w	r3, #4294967295	@ 0xffffffff
}
 80016ac:	4618      	mov	r0, r3
 80016ae:	370c      	adds	r7, #12
 80016b0:	46bd      	mov	sp, r7
 80016b2:	f85d 7b04 	ldr.w	r7, [sp], #4
 80016b6:	4770      	bx	lr

080016b8 <_fstat>:


int _fstat(int file, struct stat *st)
{
 80016b8:	b480      	push	{r7}
 80016ba:	b083      	sub	sp, #12
 80016bc:	af00      	add	r7, sp, #0
 80016be:	6078      	str	r0, [r7, #4]
 80016c0:	6039      	str	r1, [r7, #0]
  (void)file;
  st->st_mode = S_IFCHR;
 80016c2:	683b      	ldr	r3, [r7, #0]
 80016c4:	f44f 5200 	mov.w	r2, #8192	@ 0x2000
 80016c8:	605a      	str	r2, [r3, #4]
  return 0;
 80016ca:	2300      	movs	r3, #0
}
 80016cc:	4618      	mov	r0, r3
 80016ce:	370c      	adds	r7, #12
 80016d0:	46bd      	mov	sp, r7
 80016d2:	f85d 7b04 	ldr.w	r7, [sp], #4
 80016d6:	4770      	bx	lr

080016d8 <_isatty>:

int _isatty(int file)
{
 80016d8:	b480      	push	{r7}
 80016da:	b083      	sub	sp, #12
 80016dc:	af00      	add	r7, sp, #0
 80016de:	6078      	str	r0, [r7, #4]
  (void)file;
  return 1;
 80016e0:	2301      	movs	r3, #1
}
 80016e2:	4618      	mov	r0, r3
 80016e4:	370c      	adds	r7, #12
 80016e6:	46bd      	mov	sp, r7
 80016e8:	f85d 7b04 	ldr.w	r7, [sp], #4
 80016ec:	4770      	bx	lr

080016ee <_lseek>:

int _lseek(int file, int ptr, int dir)
{
 80016ee:	b480      	push	{r7}
 80016f0:	b085      	sub	sp, #20
 80016f2:	af00      	add	r7, sp, #0
 80016f4:	60f8      	str	r0, [r7, #12]
 80016f6:	60b9      	str	r1, [r7, #8]
 80016f8:	607a      	str	r2, [r7, #4]
  (void)file;
  (void)ptr;
  (void)dir;
  return 0;
 80016fa:	2300      	movs	r3, #0
}
 80016fc:	4618      	mov	r0, r3
 80016fe:	3714      	adds	r7, #20
 8001700:	46bd      	mov	sp, r7
 8001702:	f85d 7b04 	ldr.w	r7, [sp], #4
 8001706:	4770      	bx	lr

08001708 <_sbrk>:
 *
 * @param incr Memory size
 * @return Pointer to allocated memory
 */
void *_sbrk(ptrdiff_t incr)
{
 8001708:	b580      	push	{r7, lr}
 800170a:	b086      	sub	sp, #24
 800170c:	af00      	add	r7, sp, #0
 800170e:	6078      	str	r0, [r7, #4]
  extern uint8_t _end; /* Symbol defined in the linker script */
  extern uint8_t _estack; /* Symbol defined in the linker script */
  extern uint32_t _Min_Stack_Size; /* Symbol defined in the linker script */
  const uint32_t stack_limit = (uint32_t)&_estack - (uint32_t)&_Min_Stack_Size;
 8001710:	4a14      	ldr	r2, [pc, #80]	@ (8001764 <_sbrk+0x5c>)
 8001712:	4b15      	ldr	r3, [pc, #84]	@ (8001768 <_sbrk+0x60>)
 8001714:	1ad3      	subs	r3, r2, r3
 8001716:	617b      	str	r3, [r7, #20]
  const uint8_t *max_heap = (uint8_t *)stack_limit;
 8001718:	697b      	ldr	r3, [r7, #20]
 800171a:	613b      	str	r3, [r7, #16]
  uint8_t *prev_heap_end;

  /* Initialize heap end at first call */
  if (NULL == __sbrk_heap_end)
 800171c:	4b13      	ldr	r3, [pc, #76]	@ (800176c <_sbrk+0x64>)
 800171e:	681b      	ldr	r3, [r3, #0]
 8001720:	2b00      	cmp	r3, #0
 8001722:	d102      	bne.n	800172a <_sbrk+0x22>
  {
    __sbrk_heap_end = &_end;
 8001724:	4b11      	ldr	r3, [pc, #68]	@ (800176c <_sbrk+0x64>)
 8001726:	4a12      	ldr	r2, [pc, #72]	@ (8001770 <_sbrk+0x68>)
 8001728:	601a      	str	r2, [r3, #0]
  }

  /* Protect heap from growing into the reserved MSP stack */
  if (__sbrk_heap_end + incr > max_heap)
 800172a:	4b10      	ldr	r3, [pc, #64]	@ (800176c <_sbrk+0x64>)
 800172c:	681a      	ldr	r2, [r3, #0]
 800172e:	687b      	ldr	r3, [r7, #4]
 8001730:	4413      	add	r3, r2
 8001732:	693a      	ldr	r2, [r7, #16]
 8001734:	429a      	cmp	r2, r3
 8001736:	d207      	bcs.n	8001748 <_sbrk+0x40>
  {
    errno = ENOMEM;
 8001738:	f007 fd5a 	bl	80091f0 <__errno>
 800173c:	4603      	mov	r3, r0
 800173e:	220c      	movs	r2, #12
 8001740:	601a      	str	r2, [r3, #0]
    return (void *)-1;
 8001742:	f04f 33ff 	mov.w	r3, #4294967295	@ 0xffffffff
 8001746:	e009      	b.n	800175c <_sbrk+0x54>
  }

  prev_heap_end = __sbrk_heap_end;
 8001748:	4b08      	ldr	r3, [pc, #32]	@ (800176c <_sbrk+0x64>)
 800174a:	681b      	ldr	r3, [r3, #0]
 800174c:	60fb      	str	r3, [r7, #12]
  __sbrk_heap_end += incr;
 800174e:	4b07      	ldr	r3, [pc, #28]	@ (800176c <_sbrk+0x64>)
 8001750:	681a      	ldr	r2, [r3, #0]
 8001752:	687b      	ldr	r3, [r7, #4]
 8001754:	4413      	add	r3, r2
 8001756:	4a05      	ldr	r2, [pc, #20]	@ (800176c <_sbrk+0x64>)
 8001758:	6013      	str	r3, [r2, #0]

  return (void *)prev_heap_end;
 800175a:	68fb      	ldr	r3, [r7, #12]
}
 800175c:	4618      	mov	r0, r3
 800175e:	3718      	adds	r7, #24
 8001760:	46bd      	mov	sp, r7
 8001762:	bd80      	pop	{r7, pc}
 8001764:	20020000 	.word	0x20020000
 8001768:	00000400 	.word	0x00000400
 800176c:	20000288 	.word	0x20000288
 8001770:	20005348 	.word	0x20005348

08001774 <SystemInit>:
  *         configuration.
  * @param  None
  * @retval None
  */
void SystemInit(void)
{
 8001774:	b480      	push	{r7}
 8001776:	af00      	add	r7, sp, #0
  /* FPU settings ------------------------------------------------------------*/
  #if (__FPU_PRESENT == 1) && (__FPU_USED == 1)
    SCB->CPACR |= ((3UL << 10*2)|(3UL << 11*2));  /* set CP10 and CP11 Full Access */
 8001778:	4b06      	ldr	r3, [pc, #24]	@ (8001794 <SystemInit+0x20>)
 800177a:	f8d3 3088 	ldr.w	r3, [r3, #136]	@ 0x88
 800177e:	4a05      	ldr	r2, [pc, #20]	@ (8001794 <SystemInit+0x20>)
 8001780:	f443 0370 	orr.w	r3, r3, #15728640	@ 0xf00000
 8001784:	f8c2 3088 	str.w	r3, [r2, #136]	@ 0x88

  /* Configure the Vector Table location -------------------------------------*/
#if defined(USER_VECT_TAB_ADDRESS)
  SCB->VTOR = VECT_TAB_BASE_ADDRESS | VECT_TAB_OFFSET; /* Vector Table Relocation in Internal SRAM */
#endif /* USER_VECT_TAB_ADDRESS */
}
 8001788:	bf00      	nop
 800178a:	46bd      	mov	sp, r7
 800178c:	f85d 7b04 	ldr.w	r7, [sp], #4
 8001790:	4770      	bx	lr
 8001792:	bf00      	nop
 8001794:	e000ed00 	.word	0xe000ed00

08001798 <__io_putchar>:
static void Task2(void *pvParameter);
static void uartProcessingTask(void *pvParameter);

// If you want to redirect printf -> UART
int __io_putchar(int ch)
{
 8001798:	b580      	push	{r7, lr}
 800179a:	b082      	sub	sp, #8
 800179c:	af00      	add	r7, sp, #0
 800179e:	6078      	str	r0, [r7, #4]
    if (xPrintfSemaphore != NULL)
 80017a0:	4b10      	ldr	r3, [pc, #64]	@ (80017e4 <__io_putchar+0x4c>)
 80017a2:	681b      	ldr	r3, [r3, #0]
 80017a4:	2b00      	cmp	r3, #0
 80017a6:	d017      	beq.n	80017d8 <__io_putchar+0x40>
    {
        // Wait for the semaphore
        if (xSemaphoreTake(xPrintfSemaphore, portMAX_DELAY) == pdTRUE)
 80017a8:	4b0e      	ldr	r3, [pc, #56]	@ (80017e4 <__io_putchar+0x4c>)
 80017aa:	681b      	ldr	r3, [r3, #0]
 80017ac:	f04f 31ff 	mov.w	r1, #4294967295	@ 0xffffffff
 80017b0:	4618      	mov	r0, r3
 80017b2:	f003 ff2b 	bl	800560c <xQueueSemaphoreTake>
 80017b6:	4603      	mov	r3, r0
 80017b8:	2b01      	cmp	r3, #1
 80017ba:	d10d      	bne.n	80017d8 <__io_putchar+0x40>
        {
            HAL_UART_Transmit(&huart2, (uint8_t *)&ch, 1, HAL_MAX_DELAY);
 80017bc:	1d39      	adds	r1, r7, #4
 80017be:	f04f 33ff 	mov.w	r3, #4294967295	@ 0xffffffff
 80017c2:	2201      	movs	r2, #1
 80017c4:	4808      	ldr	r0, [pc, #32]	@ (80017e8 <__io_putchar+0x50>)
 80017c6:	f002 fa39 	bl	8003c3c <HAL_UART_Transmit>
            xSemaphoreGive(xPrintfSemaphore);
 80017ca:	4b06      	ldr	r3, [pc, #24]	@ (80017e4 <__io_putchar+0x4c>)
 80017cc:	6818      	ldr	r0, [r3, #0]
 80017ce:	2300      	movs	r3, #0
 80017d0:	2200      	movs	r2, #0
 80017d2:	2100      	movs	r1, #0
 80017d4:	f003 fc98 	bl	8005108 <xQueueGenericSend>
        }
    }
    return ch;
 80017d8:	687b      	ldr	r3, [r7, #4]
}
 80017da:	4618      	mov	r0, r3
 80017dc:	3708      	adds	r7, #8
 80017de:	46bd      	mov	sp, r7
 80017e0:	bd80      	pop	{r7, pc}
 80017e2:	bf00      	nop
 80017e4:	2000028c 	.word	0x2000028c
 80017e8:	2000023c 	.word	0x2000023c

080017ec <tasks_init>:

/**
  * @brief  Create and start all tasks, queues, semaphores, etc.
  */
void tasks_init(void)
{
 80017ec:	b580      	push	{r7, lr}
 80017ee:	b086      	sub	sp, #24
 80017f0:	af02      	add	r7, sp, #8
    // Create the mutex for printf
    xPrintfSemaphore = xSemaphoreCreateMutex();
 80017f2:	2001      	movs	r0, #1
 80017f4:	f003 fc6f 	bl	80050d6 <xQueueCreateMutex>
 80017f8:	4603      	mov	r3, r0
 80017fa:	4a2a      	ldr	r2, [pc, #168]	@ (80018a4 <tasks_init+0xb8>)
 80017fc:	6013      	str	r3, [r2, #0]
    configASSERT(xPrintfSemaphore);
 80017fe:	4b29      	ldr	r3, [pc, #164]	@ (80018a4 <tasks_init+0xb8>)
 8001800:	681b      	ldr	r3, [r3, #0]
 8001802:	2b00      	cmp	r3, #0
 8001804:	d10b      	bne.n	800181e <tasks_init+0x32>

portFORCE_INLINE static void vPortRaiseBASEPRI( void )
{
uint32_t ulNewBASEPRI;

	__asm volatile
 8001806:	f04f 0350 	mov.w	r3, #80	@ 0x50
 800180a:	f383 8811 	msr	BASEPRI, r3
 800180e:	f3bf 8f6f 	isb	sy
 8001812:	f3bf 8f4f 	dsb	sy
 8001816:	60fb      	str	r3, [r7, #12]
		"	msr basepri, %0											\n" \
		"	isb														\n" \
		"	dsb														\n" \
		:"=r" (ulNewBASEPRI) : "i" ( configMAX_SYSCALL_INTERRUPT_PRIORITY ) : "memory"
	);
}
 8001818:	bf00      	nop
 800181a:	bf00      	nop
 800181c:	e7fd      	b.n	800181a <tasks_init+0x2e>

    // Create the queue for UART
    uartRxQueue = xQueueCreate(UART_RX_QUEUE_LENGTH, sizeof(uint8_t));
 800181e:	2200      	movs	r2, #0
 8001820:	2101      	movs	r1, #1
 8001822:	2080      	movs	r0, #128	@ 0x80
 8001824:	f003 fbdf 	bl	8004fe6 <xQueueGenericCreate>
 8001828:	4603      	mov	r3, r0
 800182a:	4a1f      	ldr	r2, [pc, #124]	@ (80018a8 <tasks_init+0xbc>)
 800182c:	6013      	str	r3, [r2, #0]
    configASSERT(uartRxQueue);
 800182e:	4b1e      	ldr	r3, [pc, #120]	@ (80018a8 <tasks_init+0xbc>)
 8001830:	681b      	ldr	r3, [r3, #0]
 8001832:	2b00      	cmp	r3, #0
 8001834:	d10b      	bne.n	800184e <tasks_init+0x62>
	__asm volatile
 8001836:	f04f 0350 	mov.w	r3, #80	@ 0x50
 800183a:	f383 8811 	msr	BASEPRI, r3
 800183e:	f3bf 8f6f 	isb	sy
 8001842:	f3bf 8f4f 	dsb	sy
 8001846:	60bb      	str	r3, [r7, #8]
}
 8001848:	bf00      	nop
 800184a:	bf00      	nop
 800184c:	e7fd      	b.n	800184a <tasks_init+0x5e>

    // Start receiving interrupts
    uint8_t receiveByte;
    HAL_UART_Receive_IT(&huart2, &receiveByte, 1);
 800184e:	1dfb      	adds	r3, r7, #7
 8001850:	2201      	movs	r2, #1
 8001852:	4619      	mov	r1, r3
 8001854:	4815      	ldr	r0, [pc, #84]	@ (80018ac <tasks_init+0xc0>)
 8001856:	f002 fa7c 	bl	8003d52 <HAL_UART_Receive_IT>

    // Create Task1
    xTaskCreate(Task1,
 800185a:	4b15      	ldr	r3, [pc, #84]	@ (80018b0 <tasks_init+0xc4>)
 800185c:	9301      	str	r3, [sp, #4]
 800185e:	2301      	movs	r3, #1
 8001860:	9300      	str	r3, [sp, #0]
 8001862:	2300      	movs	r3, #0
 8001864:	f44f 7200 	mov.w	r2, #512	@ 0x200
 8001868:	4912      	ldr	r1, [pc, #72]	@ (80018b4 <tasks_init+0xc8>)
 800186a:	4813      	ldr	r0, [pc, #76]	@ (80018b8 <tasks_init+0xcc>)
 800186c:	f004 f9c4 	bl	8005bf8 <xTaskCreate>
                NULL,
                TASK_PRIORITY_LOW,
                &task1_handle);

    // Create Task2
    xTaskCreate(Task2,
 8001870:	4b12      	ldr	r3, [pc, #72]	@ (80018bc <tasks_init+0xd0>)
 8001872:	9301      	str	r3, [sp, #4]
 8001874:	2301      	movs	r3, #1
 8001876:	9300      	str	r3, [sp, #0]
 8001878:	2300      	movs	r3, #0
 800187a:	f44f 7200 	mov.w	r2, #512	@ 0x200
 800187e:	4910      	ldr	r1, [pc, #64]	@ (80018c0 <tasks_init+0xd4>)
 8001880:	4810      	ldr	r0, [pc, #64]	@ (80018c4 <tasks_init+0xd8>)
 8001882:	f004 f9b9 	bl	8005bf8 <xTaskCreate>
                NULL,
                TASK_PRIORITY_LOW,
                &task2_handle);

    // Create UART Processing Task
    xTaskCreate(uartProcessingTask,
 8001886:	4b10      	ldr	r3, [pc, #64]	@ (80018c8 <tasks_init+0xdc>)
 8001888:	9301      	str	r3, [sp, #4]
 800188a:	2302      	movs	r3, #2
 800188c:	9300      	str	r3, [sp, #0]
 800188e:	2300      	movs	r3, #0
 8001890:	f44f 7200 	mov.w	r2, #512	@ 0x200
 8001894:	490d      	ldr	r1, [pc, #52]	@ (80018cc <tasks_init+0xe0>)
 8001896:	480e      	ldr	r0, [pc, #56]	@ (80018d0 <tasks_init+0xe4>)
 8001898:	f004 f9ae 	bl	8005bf8 <xTaskCreate>
                "UARTTask",
                TASK_STACK_SIZE_SMALL,
                NULL,
                TASK_PRIORITY_MEDIUM,
                &xCommandTaskHandle);
}
 800189c:	bf00      	nop
 800189e:	3710      	adds	r7, #16
 80018a0:	46bd      	mov	sp, r7
 80018a2:	bd80      	pop	{r7, pc}
 80018a4:	2000028c 	.word	0x2000028c
 80018a8:	20000284 	.word	0x20000284
 80018ac:	2000023c 	.word	0x2000023c
 80018b0:	20000290 	.word	0x20000290
 80018b4:	0800b9b0 	.word	0x0800b9b0
 80018b8:	080018d5 	.word	0x080018d5
 80018bc:	20000294 	.word	0x20000294
 80018c0:	0800b9b8 	.word	0x0800b9b8
 80018c4:	0800190d 	.word	0x0800190d
 80018c8:	20000298 	.word	0x20000298
 80018cc:	0800b9c0 	.word	0x0800b9c0
 80018d0:	08001939 	.word	0x08001939

080018d4 <Task1>:

/**
  * @brief  Example Task1: toggles LED, prints
  */
static void Task1(void *pvParameter)
{
 80018d4:	b580      	push	{r7, lr}
 80018d6:	b082      	sub	sp, #8
 80018d8:	af00      	add	r7, sp, #0
 80018da:	6078      	str	r0, [r7, #4]
    for (;;)
    {
        printf("Task1 Running\r\n");
 80018dc:	4808      	ldr	r0, [pc, #32]	@ (8001900 <Task1+0x2c>)
 80018de:	f007 fc65 	bl	80091ac <puts>
        HAL_GPIO_TogglePin(LED_GPIO_Port, LED_Pin);  // LED blink
 80018e2:	2120      	movs	r1, #32
 80018e4:	4807      	ldr	r0, [pc, #28]	@ (8001904 <Task1+0x30>)
 80018e6:	f000 fcc4 	bl	8002272 <HAL_GPIO_TogglePin>
        task1Profiler++;
 80018ea:	4b07      	ldr	r3, [pc, #28]	@ (8001908 <Task1+0x34>)
 80018ec:	681b      	ldr	r3, [r3, #0]
 80018ee:	3301      	adds	r3, #1
 80018f0:	4a05      	ldr	r2, [pc, #20]	@ (8001908 <Task1+0x34>)
 80018f2:	6013      	str	r3, [r2, #0]
        vTaskDelay(WAIT_TIME_MEDIUM); // from config.h
 80018f4:	f44f 70fa 	mov.w	r0, #500	@ 0x1f4
 80018f8:	f004 fac4 	bl	8005e84 <vTaskDelay>
        printf("Task1 Running\r\n");
 80018fc:	bf00      	nop
 80018fe:	e7ed      	b.n	80018dc <Task1+0x8>
 8001900:	0800b9cc 	.word	0x0800b9cc
 8001904:	40020000 	.word	0x40020000
 8001908:	2000029c 	.word	0x2000029c

0800190c <Task2>:

/**
  * @brief  Example Task2: prints, delays
  */
static void Task2(void *pvParameter)
{
 800190c:	b580      	push	{r7, lr}
 800190e:	b082      	sub	sp, #8
 8001910:	af00      	add	r7, sp, #0
 8001912:	6078      	str	r0, [r7, #4]
    for (;;)
    {
        printf("Task2 Running\r\n");
 8001914:	4806      	ldr	r0, [pc, #24]	@ (8001930 <Task2+0x24>)
 8001916:	f007 fc49 	bl	80091ac <puts>
        HAL_Delay(200);
 800191a:	20c8      	movs	r0, #200	@ 0xc8
 800191c:	f000 f934 	bl	8001b88 <HAL_Delay>
        task2Profiler++;
 8001920:	4b04      	ldr	r3, [pc, #16]	@ (8001934 <Task2+0x28>)
 8001922:	681b      	ldr	r3, [r3, #0]
 8001924:	3301      	adds	r3, #1
 8001926:	4a03      	ldr	r2, [pc, #12]	@ (8001934 <Task2+0x28>)
 8001928:	6013      	str	r3, [r2, #0]
        printf("Task2 Running\r\n");
 800192a:	bf00      	nop
 800192c:	e7f2      	b.n	8001914 <Task2+0x8>
 800192e:	bf00      	nop
 8001930:	0800b9dc 	.word	0x0800b9dc
 8001934:	200002a0 	.word	0x200002a0

08001938 <uartProcessingTask>:

/**
  * @brief  UART Processing Task
  */
static void uartProcessingTask(void *pvParameter)
{
 8001938:	b580      	push	{r7, lr}
 800193a:	b088      	sub	sp, #32
 800193c:	af00      	add	r7, sp, #0
 800193e:	6078      	str	r0, [r7, #4]
    uint8_t receivedByte;
    for (;;)
    {
        if (xQueueReceive(uartRxQueue, &receivedByte, portMAX_DELAY) == pdPASS)
 8001940:	4b3d      	ldr	r3, [pc, #244]	@ (8001a38 <uartProcessingTask+0x100>)
 8001942:	681b      	ldr	r3, [r3, #0]
 8001944:	f107 0113 	add.w	r1, r7, #19
 8001948:	f04f 32ff 	mov.w	r2, #4294967295	@ 0xffffffff
 800194c:	4618      	mov	r0, r3
 800194e:	f003 fd7b 	bl	8005448 <xQueueReceive>
 8001952:	4603      	mov	r3, r0
 8001954:	2b01      	cmp	r3, #1
 8001956:	d168      	bne.n	8001a2a <uartProcessingTask+0xf2>
        {
            if (receivedByte == 'D')
 8001958:	7cfb      	ldrb	r3, [r7, #19]
 800195a:	2b44      	cmp	r3, #68	@ 0x44
 800195c:	d162      	bne.n	8001a24 <uartProcessingTask+0xec>
            {
                // Collect rest of command
                char command[10];
                int index = 0;
 800195e:	2300      	movs	r3, #0
 8001960:	61fb      	str	r3, [r7, #28]

                while (index < sizeof(command) - 1)
 8001962:	e019      	b.n	8001998 <uartProcessingTask+0x60>
                {
                    if (xQueueReceive(uartRxQueue, &receivedByte, portMAX_DELAY) == pdPASS)
 8001964:	4b34      	ldr	r3, [pc, #208]	@ (8001a38 <uartProcessingTask+0x100>)
 8001966:	681b      	ldr	r3, [r3, #0]
 8001968:	f107 0113 	add.w	r1, r7, #19
 800196c:	f04f 32ff 	mov.w	r2, #4294967295	@ 0xffffffff
 8001970:	4618      	mov	r0, r3
 8001972:	f003 fd69 	bl	8005448 <xQueueReceive>
 8001976:	4603      	mov	r3, r0
 8001978:	2b01      	cmp	r3, #1
 800197a:	d10d      	bne.n	8001998 <uartProcessingTask+0x60>
                    {
                        if (receivedByte == '\r' || receivedByte == '\n')
 800197c:	7cfb      	ldrb	r3, [r7, #19]
 800197e:	2b0d      	cmp	r3, #13
 8001980:	d00d      	beq.n	800199e <uartProcessingTask+0x66>
 8001982:	7cfb      	ldrb	r3, [r7, #19]
 8001984:	2b0a      	cmp	r3, #10
 8001986:	d00a      	beq.n	800199e <uartProcessingTask+0x66>
                            break;
                        command[index++] = receivedByte;
 8001988:	69fb      	ldr	r3, [r7, #28]
 800198a:	1c5a      	adds	r2, r3, #1
 800198c:	61fa      	str	r2, [r7, #28]
 800198e:	7cfa      	ldrb	r2, [r7, #19]
 8001990:	3320      	adds	r3, #32
 8001992:	443b      	add	r3, r7
 8001994:	f803 2c18 	strb.w	r2, [r3, #-24]
                while (index < sizeof(command) - 1)
 8001998:	69fb      	ldr	r3, [r7, #28]
 800199a:	2b08      	cmp	r3, #8
 800199c:	d9e2      	bls.n	8001964 <uartProcessingTask+0x2c>
                    }
                }
                command[index] = '\0';
 800199e:	f107 0208 	add.w	r2, r7, #8
 80019a2:	69fb      	ldr	r3, [r7, #28]
 80019a4:	4413      	add	r3, r2
 80019a6:	2200      	movs	r2, #0
 80019a8:	701a      	strb	r2, [r3, #0]

                // Convert string to float for duty cycle
                float dutyCycle = atof(command);
 80019aa:	f107 0308 	add.w	r3, r7, #8
 80019ae:	4618      	mov	r0, r3
 80019b0:	f006 f86a 	bl	8007a88 <atof>
 80019b4:	ec53 2b10 	vmov	r2, r3, d0
 80019b8:	4610      	mov	r0, r2
 80019ba:	4619      	mov	r1, r3
 80019bc:	f7ff f934 	bl	8000c28 <__aeabi_d2f>
 80019c0:	4603      	mov	r3, r0
 80019c2:	61bb      	str	r3, [r7, #24]
                if (dutyCycle >= 0.0f && dutyCycle <= 100.0f)
 80019c4:	edd7 7a06 	vldr	s15, [r7, #24]
 80019c8:	eef5 7ac0 	vcmpe.f32	s15, #0.0
 80019cc:	eef1 fa10 	vmrs	APSR_nzcv, fpscr
 80019d0:	db2b      	blt.n	8001a2a <uartProcessingTask+0xf2>
 80019d2:	edd7 7a06 	vldr	s15, [r7, #24]
 80019d6:	ed9f 7a19 	vldr	s14, [pc, #100]	@ 8001a3c <uartProcessingTask+0x104>
 80019da:	eef4 7ac7 	vcmpe.f32	s15, s14
 80019de:	eef1 fa10 	vmrs	APSR_nzcv, fpscr
 80019e2:	d822      	bhi.n	8001a2a <uartProcessingTask+0xf2>
                {
                    uint32_t compareVal = (uint32_t)((dutyCycle / 100.0f) * (htim2.Init.Period));
 80019e4:	edd7 7a06 	vldr	s15, [r7, #24]
 80019e8:	eddf 6a14 	vldr	s13, [pc, #80]	@ 8001a3c <uartProcessingTask+0x104>
 80019ec:	ee87 7aa6 	vdiv.f32	s14, s15, s13
 80019f0:	4b13      	ldr	r3, [pc, #76]	@ (8001a40 <uartProcessingTask+0x108>)
 80019f2:	68db      	ldr	r3, [r3, #12]
 80019f4:	ee07 3a90 	vmov	s15, r3
 80019f8:	eef8 7a67 	vcvt.f32.u32	s15, s15
 80019fc:	ee67 7a27 	vmul.f32	s15, s14, s15
 8001a00:	eefc 7ae7 	vcvt.u32.f32	s15, s15
 8001a04:	ee17 3a90 	vmov	r3, s15
 8001a08:	617b      	str	r3, [r7, #20]
                    __HAL_TIM_SET_COMPARE(&htim2, TIM_CHANNEL_1, compareVal);
 8001a0a:	4b0d      	ldr	r3, [pc, #52]	@ (8001a40 <uartProcessingTask+0x108>)
 8001a0c:	681b      	ldr	r3, [r3, #0]
 8001a0e:	697a      	ldr	r2, [r7, #20]
 8001a10:	635a      	str	r2, [r3, #52]	@ 0x34

                    printf("Duty: %.1f%%\r\n", dutyCycle);
 8001a12:	69b8      	ldr	r0, [r7, #24]
 8001a14:	f7fe fdb8 	bl	8000588 <__aeabi_f2d>
 8001a18:	4602      	mov	r2, r0
 8001a1a:	460b      	mov	r3, r1
 8001a1c:	4809      	ldr	r0, [pc, #36]	@ (8001a44 <uartProcessingTask+0x10c>)
 8001a1e:	f007 fb5d 	bl	80090dc <iprintf>
 8001a22:	e002      	b.n	8001a2a <uartProcessingTask+0xf2>
                }
            }
            else
            {
                // Possibly check for 'E', 'ESTOP', etc.
                printf("Invalid Command\r\n");
 8001a24:	4808      	ldr	r0, [pc, #32]	@ (8001a48 <uartProcessingTask+0x110>)
 8001a26:	f007 fbc1 	bl	80091ac <puts>
            }
        }
        uartProfiler++;
 8001a2a:	4b08      	ldr	r3, [pc, #32]	@ (8001a4c <uartProcessingTask+0x114>)
 8001a2c:	681b      	ldr	r3, [r3, #0]
 8001a2e:	3301      	adds	r3, #1
 8001a30:	4a06      	ldr	r2, [pc, #24]	@ (8001a4c <uartProcessingTask+0x114>)
 8001a32:	6013      	str	r3, [r2, #0]
        if (xQueueReceive(uartRxQueue, &receivedByte, portMAX_DELAY) == pdPASS)
 8001a34:	e784      	b.n	8001940 <uartProcessingTask+0x8>
 8001a36:	bf00      	nop
 8001a38:	20000284 	.word	0x20000284
 8001a3c:	42c80000 	.word	0x42c80000
 8001a40:	200001f4 	.word	0x200001f4
 8001a44:	0800b9ec 	.word	0x0800b9ec
 8001a48:	0800b9fc 	.word	0x0800b9fc
 8001a4c:	200002a4 	.word	0x200002a4

08001a50 <Reset_Handler>:
 8001a50:	f8df d034 	ldr.w	sp, [pc, #52]	@ 8001a88 <LoopFillZerobss+0xe>
 8001a54:	f7ff fe8e 	bl	8001774 <SystemInit>
 8001a58:	480c      	ldr	r0, [pc, #48]	@ (8001a8c <LoopFillZerobss+0x12>)
 8001a5a:	490d      	ldr	r1, [pc, #52]	@ (8001a90 <LoopFillZerobss+0x16>)
 8001a5c:	4a0d      	ldr	r2, [pc, #52]	@ (8001a94 <LoopFillZerobss+0x1a>)
 8001a5e:	2300      	movs	r3, #0
 8001a60:	e002      	b.n	8001a68 <LoopCopyDataInit>

08001a62 <CopyDataInit>:
 8001a62:	58d4      	ldr	r4, [r2, r3]
 8001a64:	50c4      	str	r4, [r0, r3]
 8001a66:	3304      	adds	r3, #4

08001a68 <LoopCopyDataInit>:
 8001a68:	18c4      	adds	r4, r0, r3
 8001a6a:	428c      	cmp	r4, r1
 8001a6c:	d3f9      	bcc.n	8001a62 <CopyDataInit>
 8001a6e:	4a0a      	ldr	r2, [pc, #40]	@ (8001a98 <LoopFillZerobss+0x1e>)
 8001a70:	4c0a      	ldr	r4, [pc, #40]	@ (8001a9c <LoopFillZerobss+0x22>)
 8001a72:	2300      	movs	r3, #0
 8001a74:	e001      	b.n	8001a7a <LoopFillZerobss>

08001a76 <FillZerobss>:
 8001a76:	6013      	str	r3, [r2, #0]
 8001a78:	3204      	adds	r2, #4

08001a7a <LoopFillZerobss>:
 8001a7a:	42a2      	cmp	r2, r4
 8001a7c:	d3fb      	bcc.n	8001a76 <FillZerobss>
 8001a7e:	f007 fbbd 	bl	80091fc <__libc_init_array>
 8001a82:	f7ff faed 	bl	8001060 <main>
 8001a86:	4770      	bx	lr
 8001a88:	20020000 	.word	0x20020000
 8001a8c:	20000000 	.word	0x20000000
 8001a90:	200001d8 	.word	0x200001d8
 8001a94:	0800be78 	.word	0x0800be78
 8001a98:	200001d8 	.word	0x200001d8
 8001a9c:	20005344 	.word	0x20005344

08001aa0 <ADC_IRQHandler>:
 8001aa0:	e7fe      	b.n	8001aa0 <ADC_IRQHandler>
	...

08001aa4 <HAL_Init>:
 8001aa4:	b580      	push	{r7, lr}
 8001aa6:	af00      	add	r7, sp, #0
 8001aa8:	4b0e      	ldr	r3, [pc, #56]	@ (8001ae4 <HAL_Init+0x40>)
 8001aaa:	681b      	ldr	r3, [r3, #0]
 8001aac:	4a0d      	ldr	r2, [pc, #52]	@ (8001ae4 <HAL_Init+0x40>)
 8001aae:	f443 7300 	orr.w	r3, r3, #512	@ 0x200
 8001ab2:	6013      	str	r3, [r2, #0]
 8001ab4:	4b0b      	ldr	r3, [pc, #44]	@ (8001ae4 <HAL_Init+0x40>)
 8001ab6:	681b      	ldr	r3, [r3, #0]
 8001ab8:	4a0a      	ldr	r2, [pc, #40]	@ (8001ae4 <HAL_Init+0x40>)
 8001aba:	f443 6380 	orr.w	r3, r3, #1024	@ 0x400
 8001abe:	6013      	str	r3, [r2, #0]
 8001ac0:	4b08      	ldr	r3, [pc, #32]	@ (8001ae4 <HAL_Init+0x40>)
 8001ac2:	681b      	ldr	r3, [r3, #0]
 8001ac4:	4a07      	ldr	r2, [pc, #28]	@ (8001ae4 <HAL_Init+0x40>)
 8001ac6:	f443 7380 	orr.w	r3, r3, #256	@ 0x100
 8001aca:	6013      	str	r3, [r2, #0]
 8001acc:	2003      	movs	r0, #3
 8001ace:	f000 f94f 	bl	8001d70 <HAL_NVIC_SetPriorityGrouping>
 8001ad2:	200f      	movs	r0, #15
 8001ad4:	f000 f808 	bl	8001ae8 <HAL_InitTick>
 8001ad8:	f7ff fc80 	bl	80013dc <HAL_MspInit>
 8001adc:	2300      	movs	r3, #0
 8001ade:	4618      	mov	r0, r3
 8001ae0:	bd80      	pop	{r7, pc}
 8001ae2:	bf00      	nop
 8001ae4:	40023c00 	.word	0x40023c00

08001ae8 <HAL_InitTick>:
 8001ae8:	b580      	push	{r7, lr}
 8001aea:	b082      	sub	sp, #8
 8001aec:	af00      	add	r7, sp, #0
 8001aee:	6078      	str	r0, [r7, #4]
 8001af0:	4b12      	ldr	r3, [pc, #72]	@ (8001b3c <HAL_InitTick+0x54>)
 8001af2:	681a      	ldr	r2, [r3, #0]
 8001af4:	4b12      	ldr	r3, [pc, #72]	@ (8001b40 <HAL_InitTick+0x58>)
 8001af6:	781b      	ldrb	r3, [r3, #0]
 8001af8:	4619      	mov	r1, r3
 8001afa:	f44f 737a 	mov.w	r3, #1000	@ 0x3e8
 8001afe:	fbb3 f3f1 	udiv	r3, r3, r1
 8001b02:	fbb2 f3f3 	udiv	r3, r2, r3
 8001b06:	4618      	mov	r0, r3
 8001b08:	f000 f967 	bl	8001dda <HAL_SYSTICK_Config>
 8001b0c:	4603      	mov	r3, r0
 8001b0e:	2b00      	cmp	r3, #0
 8001b10:	d001      	beq.n	8001b16 <HAL_InitTick+0x2e>
 8001b12:	2301      	movs	r3, #1
 8001b14:	e00e      	b.n	8001b34 <HAL_InitTick+0x4c>
 8001b16:	687b      	ldr	r3, [r7, #4]
 8001b18:	2b0f      	cmp	r3, #15
 8001b1a:	d80a      	bhi.n	8001b32 <HAL_InitTick+0x4a>
 8001b1c:	2200      	movs	r2, #0
 8001b1e:	6879      	ldr	r1, [r7, #4]
 8001b20:	f04f 30ff 	mov.w	r0, #4294967295	@ 0xffffffff
 8001b24:	f000 f92f 	bl	8001d86 <HAL_NVIC_SetPriority>
 8001b28:	4a06      	ldr	r2, [pc, #24]	@ (8001b44 <HAL_InitTick+0x5c>)
 8001b2a:	687b      	ldr	r3, [r7, #4]
 8001b2c:	6013      	str	r3, [r2, #0]
 8001b2e:	2300      	movs	r3, #0
 8001b30:	e000      	b.n	8001b34 <HAL_InitTick+0x4c>
 8001b32:	2301      	movs	r3, #1
 8001b34:	4618      	mov	r0, r3
 8001b36:	3708      	adds	r7, #8
 8001b38:	46bd      	mov	sp, r7
 8001b3a:	bd80      	pop	{r7, pc}
 8001b3c:	20000000 	.word	0x20000000
 8001b40:	20000008 	.word	0x20000008
 8001b44:	20000004 	.word	0x20000004

08001b48 <HAL_IncTick>:
 8001b48:	b480      	push	{r7}
 8001b4a:	af00      	add	r7, sp, #0
 8001b4c:	4b06      	ldr	r3, [pc, #24]	@ (8001b68 <HAL_IncTick+0x20>)
 8001b4e:	781b      	ldrb	r3, [r3, #0]
 8001b50:	461a      	mov	r2, r3
 8001b52:	4b06      	ldr	r3, [pc, #24]	@ (8001b6c <HAL_IncTick+0x24>)
 8001b54:	681b      	ldr	r3, [r3, #0]
 8001b56:	4413      	add	r3, r2
 8001b58:	4a04      	ldr	r2, [pc, #16]	@ (8001b6c <HAL_IncTick+0x24>)
 8001b5a:	6013      	str	r3, [r2, #0]
 8001b5c:	bf00      	nop
 8001b5e:	46bd      	mov	sp, r7
 8001b60:	f85d 7b04 	ldr.w	r7, [sp], #4
 8001b64:	4770      	bx	lr
 8001b66:	bf00      	nop
 8001b68:	20000008 	.word	0x20000008
 8001b6c:	200002a8 	.word	0x200002a8

08001b70 <HAL_GetTick>:
 8001b70:	b480      	push	{r7}
 8001b72:	af00      	add	r7, sp, #0
 8001b74:	4b03      	ldr	r3, [pc, #12]	@ (8001b84 <HAL_GetTick+0x14>)
 8001b76:	681b      	ldr	r3, [r3, #0]
 8001b78:	4618      	mov	r0, r3
 8001b7a:	46bd      	mov	sp, r7
 8001b7c:	f85d 7b04 	ldr.w	r7, [sp], #4
 8001b80:	4770      	bx	lr
 8001b82:	bf00      	nop
 8001b84:	200002a8 	.word	0x200002a8

08001b88 <HAL_Delay>:
 8001b88:	b580      	push	{r7, lr}
 8001b8a:	b084      	sub	sp, #16
 8001b8c:	af00      	add	r7, sp, #0
 8001b8e:	6078      	str	r0, [r7, #4]
 8001b90:	f7ff ffee 	bl	8001b70 <HAL_GetTick>
 8001b94:	60b8      	str	r0, [r7, #8]
 8001b96:	687b      	ldr	r3, [r7, #4]
 8001b98:	60fb      	str	r3, [r7, #12]
 8001b9a:	68fb      	ldr	r3, [r7, #12]
 8001b9c:	f1b3 3fff 	cmp.w	r3, #4294967295	@ 0xffffffff
 8001ba0:	d005      	beq.n	8001bae <HAL_Delay+0x26>
 8001ba2:	4b0a      	ldr	r3, [pc, #40]	@ (8001bcc <HAL_Delay+0x44>)
 8001ba4:	781b      	ldrb	r3, [r3, #0]
 8001ba6:	461a      	mov	r2, r3
 8001ba8:	68fb      	ldr	r3, [r7, #12]
 8001baa:	4413      	add	r3, r2
 8001bac:	60fb      	str	r3, [r7, #12]
 8001bae:	bf00      	nop
 8001bb0:	f7ff ffde 	bl	8001b70 <HAL_GetTick>
 8001bb4:	4602      	mov	r2, r0
 8001bb6:	68bb      	ldr	r3, [r7, #8]
 8001bb8:	1ad3      	subs	r3, r2, r3
 8001bba:	68fa      	ldr	r2, [r7, #12]
 8001bbc:	429a      	cmp	r2, r3
 8001bbe:	d8f7      	bhi.n	8001bb0 <HAL_Delay+0x28>
 8001bc0:	bf00      	nop
 8001bc2:	bf00      	nop
 8001bc4:	3710      	adds	r7, #16
 8001bc6:	46bd      	mov	sp, r7
 8001bc8:	bd80      	pop	{r7, pc}
 8001bca:	bf00      	nop
 8001bcc:	20000008 	.word	0x20000008

08001bd0 <__NVIC_SetPriorityGrouping>:
 8001bd0:	b480      	push	{r7}
 8001bd2:	b085      	sub	sp, #20
 8001bd4:	af00      	add	r7, sp, #0
 8001bd6:	6078      	str	r0, [r7, #4]
 8001bd8:	687b      	ldr	r3, [r7, #4]
 8001bda:	f003 0307 	and.w	r3, r3, #7
 8001bde:	60fb      	str	r3, [r7, #12]
 8001be0:	4b0c      	ldr	r3, [pc, #48]	@ (8001c14 <__NVIC_SetPriorityGrouping+0x44>)
 8001be2:	68db      	ldr	r3, [r3, #12]
 8001be4:	60bb      	str	r3, [r7, #8]
 8001be6:	68ba      	ldr	r2, [r7, #8]
 8001be8:	f64f 03ff 	movw	r3, #63743	@ 0xf8ff
 8001bec:	4013      	ands	r3, r2
 8001bee:	60bb      	str	r3, [r7, #8]
 8001bf0:	68fb      	ldr	r3, [r7, #12]
 8001bf2:	021a      	lsls	r2, r3, #8
 8001bf4:	68bb      	ldr	r3, [r7, #8]
 8001bf6:	4313      	orrs	r3, r2
 8001bf8:	f043 63bf 	orr.w	r3, r3, #100139008	@ 0x5f80000
 8001bfc:	f443 3300 	orr.w	r3, r3, #131072	@ 0x20000
 8001c00:	60bb      	str	r3, [r7, #8]
 8001c02:	4a04      	ldr	r2, [pc, #16]	@ (8001c14 <__NVIC_SetPriorityGrouping+0x44>)
 8001c04:	68bb      	ldr	r3, [r7, #8]
 8001c06:	60d3      	str	r3, [r2, #12]
 8001c08:	bf00      	nop
 8001c0a:	3714      	adds	r7, #20
 8001c0c:	46bd      	mov	sp, r7
 8001c0e:	f85d 7b04 	ldr.w	r7, [sp], #4
 8001c12:	4770      	bx	lr
 8001c14:	e000ed00 	.word	0xe000ed00

08001c18 <__NVIC_GetPriorityGrouping>:
 8001c18:	b480      	push	{r7}
 8001c1a:	af00      	add	r7, sp, #0
 8001c1c:	4b04      	ldr	r3, [pc, #16]	@ (8001c30 <__NVIC_GetPriorityGrouping+0x18>)
 8001c1e:	68db      	ldr	r3, [r3, #12]
 8001c20:	0a1b      	lsrs	r3, r3, #8
 8001c22:	f003 0307 	and.w	r3, r3, #7
 8001c26:	4618      	mov	r0, r3
 8001c28:	46bd      	mov	sp, r7
 8001c2a:	f85d 7b04 	ldr.w	r7, [sp], #4
 8001c2e:	4770      	bx	lr
 8001c30:	e000ed00 	.word	0xe000ed00

08001c34 <__NVIC_EnableIRQ>:
 8001c34:	b480      	push	{r7}
 8001c36:	b083      	sub	sp, #12
 8001c38:	af00      	add	r7, sp, #0
 8001c3a:	4603      	mov	r3, r0
 8001c3c:	71fb      	strb	r3, [r7, #7]
 8001c3e:	f997 3007 	ldrsb.w	r3, [r7, #7]
 8001c42:	2b00      	cmp	r3, #0
 8001c44:	db0b      	blt.n	8001c5e <__NVIC_EnableIRQ+0x2a>
 8001c46:	79fb      	ldrb	r3, [r7, #7]
 8001c48:	f003 021f 	and.w	r2, r3, #31
 8001c4c:	4907      	ldr	r1, [pc, #28]	@ (8001c6c <__NVIC_EnableIRQ+0x38>)
 8001c4e:	f997 3007 	ldrsb.w	r3, [r7, #7]
 8001c52:	095b      	lsrs	r3, r3, #5
 8001c54:	2001      	movs	r0, #1
 8001c56:	fa00 f202 	lsl.w	r2, r0, r2
 8001c5a:	f841 2023 	str.w	r2, [r1, r3, lsl #2]
 8001c5e:	bf00      	nop
 8001c60:	370c      	adds	r7, #12
 8001c62:	46bd      	mov	sp, r7
 8001c64:	f85d 7b04 	ldr.w	r7, [sp], #4
 8001c68:	4770      	bx	lr
 8001c6a:	bf00      	nop
 8001c6c:	e000e100 	.word	0xe000e100

08001c70 <__NVIC_SetPriority>:
 8001c70:	b480      	push	{r7}
 8001c72:	b083      	sub	sp, #12
 8001c74:	af00      	add	r7, sp, #0
 8001c76:	4603      	mov	r3, r0
 8001c78:	6039      	str	r1, [r7, #0]
 8001c7a:	71fb      	strb	r3, [r7, #7]
 8001c7c:	f997 3007 	ldrsb.w	r3, [r7, #7]
 8001c80:	2b00      	cmp	r3, #0
 8001c82:	db0a      	blt.n	8001c9a <__NVIC_SetPriority+0x2a>
 8001c84:	683b      	ldr	r3, [r7, #0]
 8001c86:	b2da      	uxtb	r2, r3
 8001c88:	490c      	ldr	r1, [pc, #48]	@ (8001cbc <__NVIC_SetPriority+0x4c>)
 8001c8a:	f997 3007 	ldrsb.w	r3, [r7, #7]
 8001c8e:	0112      	lsls	r2, r2, #4
 8001c90:	b2d2      	uxtb	r2, r2
 8001c92:	440b      	add	r3, r1
 8001c94:	f883 2300 	strb.w	r2, [r3, #768]	@ 0x300
 8001c98:	e00a      	b.n	8001cb0 <__NVIC_SetPriority+0x40>
 8001c9a:	683b      	ldr	r3, [r7, #0]
 8001c9c:	b2da      	uxtb	r2, r3
 8001c9e:	4908      	ldr	r1, [pc, #32]	@ (8001cc0 <__NVIC_SetPriority+0x50>)
 8001ca0:	79fb      	ldrb	r3, [r7, #7]
 8001ca2:	f003 030f 	and.w	r3, r3, #15
 8001ca6:	3b04      	subs	r3, #4
 8001ca8:	0112      	lsls	r2, r2, #4
 8001caa:	b2d2      	uxtb	r2, r2
 8001cac:	440b      	add	r3, r1
 8001cae:	761a      	strb	r2, [r3, #24]
 8001cb0:	bf00      	nop
 8001cb2:	370c      	adds	r7, #12
 8001cb4:	46bd      	mov	sp, r7
 8001cb6:	f85d 7b04 	ldr.w	r7, [sp], #4
 8001cba:	4770      	bx	lr
 8001cbc:	e000e100 	.word	0xe000e100
 8001cc0:	e000ed00 	.word	0xe000ed00

08001cc4 <NVIC_EncodePriority>:
 8001cc4:	b480      	push	{r7}
 8001cc6:	b089      	sub	sp, #36	@ 0x24
 8001cc8:	af00      	add	r7, sp, #0
 8001cca:	60f8      	str	r0, [r7, #12]
 8001ccc:	60b9      	str	r1, [r7, #8]
 8001cce:	607a      	str	r2, [r7, #4]
 8001cd0:	68fb      	ldr	r3, [r7, #12]
 8001cd2:	f003 0307 	and.w	r3, r3, #7
 8001cd6:	61fb      	str	r3, [r7, #28]
 8001cd8:	69fb      	ldr	r3, [r7, #28]
 8001cda:	f1c3 0307 	rsb	r3, r3, #7
 8001cde:	2b04      	cmp	r3, #4
 8001ce0:	bf28      	it	cs
 8001ce2:	2304      	movcs	r3, #4
 8001ce4:	61bb      	str	r3, [r7, #24]
 8001ce6:	69fb      	ldr	r3, [r7, #28]
 8001ce8:	3304      	adds	r3, #4
 8001cea:	2b06      	cmp	r3, #6
 8001cec:	d902      	bls.n	8001cf4 <NVIC_EncodePriority+0x30>
 8001cee:	69fb      	ldr	r3, [r7, #28]
 8001cf0:	3b03      	subs	r3, #3
 8001cf2:	e000      	b.n	8001cf6 <NVIC_EncodePriority+0x32>
 8001cf4:	2300      	movs	r3, #0
 8001cf6:	617b      	str	r3, [r7, #20]
 8001cf8:	f04f 32ff 	mov.w	r2, #4294967295	@ 0xffffffff
 8001cfc:	69bb      	ldr	r3, [r7, #24]
 8001cfe:	fa02 f303 	lsl.w	r3, r2, r3
 8001d02:	43da      	mvns	r2, r3
 8001d04:	68bb      	ldr	r3, [r7, #8]
 8001d06:	401a      	ands	r2, r3
 8001d08:	697b      	ldr	r3, [r7, #20]
 8001d0a:	409a      	lsls	r2, r3
 8001d0c:	f04f 31ff 	mov.w	r1, #4294967295	@ 0xffffffff
 8001d10:	697b      	ldr	r3, [r7, #20]
 8001d12:	fa01 f303 	lsl.w	r3, r1, r3
 8001d16:	43d9      	mvns	r1, r3
 8001d18:	687b      	ldr	r3, [r7, #4]
 8001d1a:	400b      	ands	r3, r1
 8001d1c:	4313      	orrs	r3, r2
 8001d1e:	4618      	mov	r0, r3
 8001d20:	3724      	adds	r7, #36	@ 0x24
 8001d22:	46bd      	mov	sp, r7
 8001d24:	f85d 7b04 	ldr.w	r7, [sp], #4
 8001d28:	4770      	bx	lr
	...

08001d2c <SysTick_Config>:
 8001d2c:	b580      	push	{r7, lr}
 8001d2e:	b082      	sub	sp, #8
 8001d30:	af00      	add	r7, sp, #0
 8001d32:	6078      	str	r0, [r7, #4]
 8001d34:	687b      	ldr	r3, [r7, #4]
 8001d36:	3b01      	subs	r3, #1
 8001d38:	f1b3 7f80 	cmp.w	r3, #16777216	@ 0x1000000
 8001d3c:	d301      	bcc.n	8001d42 <SysTick_Config+0x16>
 8001d3e:	2301      	movs	r3, #1
 8001d40:	e00f      	b.n	8001d62 <SysTick_Config+0x36>
 8001d42:	4a0a      	ldr	r2, [pc, #40]	@ (8001d6c <SysTick_Config+0x40>)
 8001d44:	687b      	ldr	r3, [r7, #4]
 8001d46:	3b01      	subs	r3, #1
 8001d48:	6053      	str	r3, [r2, #4]
 8001d4a:	210f      	movs	r1, #15
 8001d4c:	f04f 30ff 	mov.w	r0, #4294967295	@ 0xffffffff
 8001d50:	f7ff ff8e 	bl	8001c70 <__NVIC_SetPriority>
 8001d54:	4b05      	ldr	r3, [pc, #20]	@ (8001d6c <SysTick_Config+0x40>)
 8001d56:	2200      	movs	r2, #0
 8001d58:	609a      	str	r2, [r3, #8]
 8001d5a:	4b04      	ldr	r3, [pc, #16]	@ (8001d6c <SysTick_Config+0x40>)
 8001d5c:	2207      	movs	r2, #7
 8001d5e:	601a      	str	r2, [r3, #0]
 8001d60:	2300      	movs	r3, #0
 8001d62:	4618      	mov	r0, r3
 8001d64:	3708      	adds	r7, #8
 8001d66:	46bd      	mov	sp, r7
 8001d68:	bd80      	pop	{r7, pc}
 8001d6a:	bf00      	nop
 8001d6c:	e000e010 	.word	0xe000e010

08001d70 <HAL_NVIC_SetPriorityGrouping>:
 8001d70:	b580      	push	{r7, lr}
 8001d72:	b082      	sub	sp, #8
 8001d74:	af00      	add	r7, sp, #0
 8001d76:	6078      	str	r0, [r7, #4]
 8001d78:	6878      	ldr	r0, [r7, #4]
 8001d7a:	f7ff ff29 	bl	8001bd0 <__NVIC_SetPriorityGrouping>
 8001d7e:	bf00      	nop
 8001d80:	3708      	adds	r7, #8
 8001d82:	46bd      	mov	sp, r7
 8001d84:	bd80      	pop	{r7, pc}

08001d86 <HAL_NVIC_SetPriority>:
 8001d86:	b580      	push	{r7, lr}
 8001d88:	b086      	sub	sp, #24
 8001d8a:	af00      	add	r7, sp, #0
 8001d8c:	4603      	mov	r3, r0
 8001d8e:	60b9      	str	r1, [r7, #8]
 8001d90:	607a      	str	r2, [r7, #4]
 8001d92:	73fb      	strb	r3, [r7, #15]
 8001d94:	2300      	movs	r3, #0
 8001d96:	617b      	str	r3, [r7, #20]
 8001d98:	f7ff ff3e 	bl	8001c18 <__NVIC_GetPriorityGrouping>
 8001d9c:	6178      	str	r0, [r7, #20]
 8001d9e:	687a      	ldr	r2, [r7, #4]
 8001da0:	68b9      	ldr	r1, [r7, #8]
 8001da2:	6978      	ldr	r0, [r7, #20]
 8001da4:	f7ff ff8e 	bl	8001cc4 <NVIC_EncodePriority>
 8001da8:	4602      	mov	r2, r0
 8001daa:	f997 300f 	ldrsb.w	r3, [r7, #15]
 8001dae:	4611      	mov	r1, r2
 8001db0:	4618      	mov	r0, r3
 8001db2:	f7ff ff5d 	bl	8001c70 <__NVIC_SetPriority>
 8001db6:	bf00      	nop
 8001db8:	3718      	adds	r7, #24
 8001dba:	46bd      	mov	sp, r7
 8001dbc:	bd80      	pop	{r7, pc}

08001dbe <HAL_NVIC_EnableIRQ>:
 8001dbe:	b580      	push	{r7, lr}
 8001dc0:	b082      	sub	sp, #8
 8001dc2:	af00      	add	r7, sp, #0
 8001dc4:	4603      	mov	r3, r0
 8001dc6:	71fb      	strb	r3, [r7, #7]
 8001dc8:	f997 3007 	ldrsb.w	r3, [r7, #7]
 8001dcc:	4618      	mov	r0, r3
 8001dce:	f7ff ff31 	bl	8001c34 <__NVIC_EnableIRQ>
 8001dd2:	bf00      	nop
 8001dd4:	3708      	adds	r7, #8
 8001dd6:	46bd      	mov	sp, r7
 8001dd8:	bd80      	pop	{r7, pc}

08001dda <HAL_SYSTICK_Config>:
 8001dda:	b580      	push	{r7, lr}
 8001ddc:	b082      	sub	sp, #8
 8001dde:	af00      	add	r7, sp, #0
 8001de0:	6078      	str	r0, [r7, #4]
 8001de2:	6878      	ldr	r0, [r7, #4]
 8001de4:	f7ff ffa2 	bl	8001d2c <SysTick_Config>
 8001de8:	4603      	mov	r3, r0
 8001dea:	4618      	mov	r0, r3
 8001dec:	3708      	adds	r7, #8
 8001dee:	46bd      	mov	sp, r7
 8001df0:	bd80      	pop	{r7, pc}

08001df2 <HAL_DMA_Abort>:
 8001df2:	b580      	push	{r7, lr}
 8001df4:	b084      	sub	sp, #16
 8001df6:	af00      	add	r7, sp, #0
 8001df8:	6078      	str	r0, [r7, #4]
 8001dfa:	687b      	ldr	r3, [r7, #4]
 8001dfc:	6d9b      	ldr	r3, [r3, #88]	@ 0x58
 8001dfe:	60fb      	str	r3, [r7, #12]
 8001e00:	f7ff feb6 	bl	8001b70 <HAL_GetTick>
 8001e04:	60b8      	str	r0, [r7, #8]
 8001e06:	687b      	ldr	r3, [r7, #4]
 8001e08:	f893 3035 	ldrb.w	r3, [r3, #53]	@ 0x35
 8001e0c:	b2db      	uxtb	r3, r3
 8001e0e:	2b02      	cmp	r3, #2
 8001e10:	d008      	beq.n	8001e24 <HAL_DMA_Abort+0x32>
 8001e12:	687b      	ldr	r3, [r7, #4]
 8001e14:	2280      	movs	r2, #128	@ 0x80
 8001e16:	655a      	str	r2, [r3, #84]	@ 0x54
 8001e18:	687b      	ldr	r3, [r7, #4]
 8001e1a:	2200      	movs	r2, #0
 8001e1c:	f883 2034 	strb.w	r2, [r3, #52]	@ 0x34
 8001e20:	2301      	movs	r3, #1
 8001e22:	e052      	b.n	8001eca <HAL_DMA_Abort+0xd8>
 8001e24:	687b      	ldr	r3, [r7, #4]
 8001e26:	681b      	ldr	r3, [r3, #0]
 8001e28:	681a      	ldr	r2, [r3, #0]
 8001e2a:	687b      	ldr	r3, [r7, #4]
 8001e2c:	681b      	ldr	r3, [r3, #0]
 8001e2e:	f022 0216 	bic.w	r2, r2, #22
 8001e32:	601a      	str	r2, [r3, #0]
 8001e34:	687b      	ldr	r3, [r7, #4]
 8001e36:	681b      	ldr	r3, [r3, #0]
 8001e38:	695a      	ldr	r2, [r3, #20]
 8001e3a:	687b      	ldr	r3, [r7, #4]
 8001e3c:	681b      	ldr	r3, [r3, #0]
 8001e3e:	f022 0280 	bic.w	r2, r2, #128	@ 0x80
 8001e42:	615a      	str	r2, [r3, #20]
 8001e44:	687b      	ldr	r3, [r7, #4]
 8001e46:	6c1b      	ldr	r3, [r3, #64]	@ 0x40
 8001e48:	2b00      	cmp	r3, #0
 8001e4a:	d103      	bne.n	8001e54 <HAL_DMA_Abort+0x62>
 8001e4c:	687b      	ldr	r3, [r7, #4]
 8001e4e:	6c9b      	ldr	r3, [r3, #72]	@ 0x48
 8001e50:	2b00      	cmp	r3, #0
 8001e52:	d007      	beq.n	8001e64 <HAL_DMA_Abort+0x72>
 8001e54:	687b      	ldr	r3, [r7, #4]
 8001e56:	681b      	ldr	r3, [r3, #0]
 8001e58:	681a      	ldr	r2, [r3, #0]
 8001e5a:	687b      	ldr	r3, [r7, #4]
 8001e5c:	681b      	ldr	r3, [r3, #0]
 8001e5e:	f022 0208 	bic.w	r2, r2, #8
 8001e62:	601a      	str	r2, [r3, #0]
 8001e64:	687b      	ldr	r3, [r7, #4]
 8001e66:	681b      	ldr	r3, [r3, #0]
 8001e68:	681a      	ldr	r2, [r3, #0]
 8001e6a:	687b      	ldr	r3, [r7, #4]
 8001e6c:	681b      	ldr	r3, [r3, #0]
 8001e6e:	f022 0201 	bic.w	r2, r2, #1
 8001e72:	601a      	str	r2, [r3, #0]
 8001e74:	e013      	b.n	8001e9e <HAL_DMA_Abort+0xac>
 8001e76:	f7ff fe7b 	bl	8001b70 <HAL_GetTick>
 8001e7a:	4602      	mov	r2, r0
 8001e7c:	68bb      	ldr	r3, [r7, #8]
 8001e7e:	1ad3      	subs	r3, r2, r3
 8001e80:	2b05      	cmp	r3, #5
 8001e82:	d90c      	bls.n	8001e9e <HAL_DMA_Abort+0xac>
 8001e84:	687b      	ldr	r3, [r7, #4]
 8001e86:	2220      	movs	r2, #32
 8001e88:	655a      	str	r2, [r3, #84]	@ 0x54
 8001e8a:	687b      	ldr	r3, [r7, #4]
 8001e8c:	2203      	movs	r2, #3
 8001e8e:	f883 2035 	strb.w	r2, [r3, #53]	@ 0x35
 8001e92:	687b      	ldr	r3, [r7, #4]
 8001e94:	2200      	movs	r2, #0
 8001e96:	f883 2034 	strb.w	r2, [r3, #52]	@ 0x34
 8001e9a:	2303      	movs	r3, #3
 8001e9c:	e015      	b.n	8001eca <HAL_DMA_Abort+0xd8>
 8001e9e:	687b      	ldr	r3, [r7, #4]
 8001ea0:	681b      	ldr	r3, [r3, #0]
 8001ea2:	681b      	ldr	r3, [r3, #0]
 8001ea4:	f003 0301 	and.w	r3, r3, #1
 8001ea8:	2b00      	cmp	r3, #0
 8001eaa:	d1e4      	bne.n	8001e76 <HAL_DMA_Abort+0x84>
 8001eac:	687b      	ldr	r3, [r7, #4]
 8001eae:	6ddb      	ldr	r3, [r3, #92]	@ 0x5c
 8001eb0:	223f      	movs	r2, #63	@ 0x3f
 8001eb2:	409a      	lsls	r2, r3
 8001eb4:	68fb      	ldr	r3, [r7, #12]
 8001eb6:	609a      	str	r2, [r3, #8]
 8001eb8:	687b      	ldr	r3, [r7, #4]
 8001eba:	2201      	movs	r2, #1
 8001ebc:	f883 2035 	strb.w	r2, [r3, #53]	@ 0x35
 8001ec0:	687b      	ldr	r3, [r7, #4]
 8001ec2:	2200      	movs	r2, #0
 8001ec4:	f883 2034 	strb.w	r2, [r3, #52]	@ 0x34
 8001ec8:	2300      	movs	r3, #0
 8001eca:	4618      	mov	r0, r3
 8001ecc:	3710      	adds	r7, #16
 8001ece:	46bd      	mov	sp, r7
 8001ed0:	bd80      	pop	{r7, pc}

08001ed2 <HAL_DMA_Abort_IT>:
 8001ed2:	b480      	push	{r7}
 8001ed4:	b083      	sub	sp, #12
 8001ed6:	af00      	add	r7, sp, #0
 8001ed8:	6078      	str	r0, [r7, #4]
 8001eda:	687b      	ldr	r3, [r7, #4]
 8001edc:	f893 3035 	ldrb.w	r3, [r3, #53]	@ 0x35
 8001ee0:	b2db      	uxtb	r3, r3
 8001ee2:	2b02      	cmp	r3, #2
 8001ee4:	d004      	beq.n	8001ef0 <HAL_DMA_Abort_IT+0x1e>
 8001ee6:	687b      	ldr	r3, [r7, #4]
 8001ee8:	2280      	movs	r2, #128	@ 0x80
 8001eea:	655a      	str	r2, [r3, #84]	@ 0x54
 8001eec:	2301      	movs	r3, #1
 8001eee:	e00c      	b.n	8001f0a <HAL_DMA_Abort_IT+0x38>
 8001ef0:	687b      	ldr	r3, [r7, #4]
 8001ef2:	2205      	movs	r2, #5
 8001ef4:	f883 2035 	strb.w	r2, [r3, #53]	@ 0x35
 8001ef8:	687b      	ldr	r3, [r7, #4]
 8001efa:	681b      	ldr	r3, [r3, #0]
 8001efc:	681a      	ldr	r2, [r3, #0]
 8001efe:	687b      	ldr	r3, [r7, #4]
 8001f00:	681b      	ldr	r3, [r3, #0]
 8001f02:	f022 0201 	bic.w	r2, r2, #1
 8001f06:	601a      	str	r2, [r3, #0]
 8001f08:	2300      	movs	r3, #0
 8001f0a:	4618      	mov	r0, r3
 8001f0c:	370c      	adds	r7, #12
 8001f0e:	46bd      	mov	sp, r7
 8001f10:	f85d 7b04 	ldr.w	r7, [sp], #4
 8001f14:	4770      	bx	lr
	...

08001f18 <HAL_GPIO_Init>:
 8001f18:	b480      	push	{r7}
 8001f1a:	b089      	sub	sp, #36	@ 0x24
 8001f1c:	af00      	add	r7, sp, #0
 8001f1e:	6078      	str	r0, [r7, #4]
 8001f20:	6039      	str	r1, [r7, #0]
 8001f22:	2300      	movs	r3, #0
 8001f24:	617b      	str	r3, [r7, #20]
 8001f26:	2300      	movs	r3, #0
 8001f28:	613b      	str	r3, [r7, #16]
 8001f2a:	2300      	movs	r3, #0
 8001f2c:	61bb      	str	r3, [r7, #24]
 8001f2e:	2300      	movs	r3, #0
 8001f30:	61fb      	str	r3, [r7, #28]
 8001f32:	e165      	b.n	8002200 <HAL_GPIO_Init+0x2e8>
 8001f34:	2201      	movs	r2, #1
 8001f36:	69fb      	ldr	r3, [r7, #28]
 8001f38:	fa02 f303 	lsl.w	r3, r2, r3
 8001f3c:	617b      	str	r3, [r7, #20]
 8001f3e:	683b      	ldr	r3, [r7, #0]
 8001f40:	681b      	ldr	r3, [r3, #0]
 8001f42:	697a      	ldr	r2, [r7, #20]
 8001f44:	4013      	ands	r3, r2
 8001f46:	613b      	str	r3, [r7, #16]
 8001f48:	693a      	ldr	r2, [r7, #16]
 8001f4a:	697b      	ldr	r3, [r7, #20]
 8001f4c:	429a      	cmp	r2, r3
 8001f4e:	f040 8154 	bne.w	80021fa <HAL_GPIO_Init+0x2e2>
 8001f52:	683b      	ldr	r3, [r7, #0]
 8001f54:	685b      	ldr	r3, [r3, #4]
 8001f56:	f003 0303 	and.w	r3, r3, #3
 8001f5a:	2b01      	cmp	r3, #1
 8001f5c:	d005      	beq.n	8001f6a <HAL_GPIO_Init+0x52>
 8001f5e:	683b      	ldr	r3, [r7, #0]
 8001f60:	685b      	ldr	r3, [r3, #4]
 8001f62:	f003 0303 	and.w	r3, r3, #3
 8001f66:	2b02      	cmp	r3, #2
 8001f68:	d130      	bne.n	8001fcc <HAL_GPIO_Init+0xb4>
 8001f6a:	687b      	ldr	r3, [r7, #4]
 8001f6c:	689b      	ldr	r3, [r3, #8]
 8001f6e:	61bb      	str	r3, [r7, #24]
 8001f70:	69fb      	ldr	r3, [r7, #28]
 8001f72:	005b      	lsls	r3, r3, #1
 8001f74:	2203      	movs	r2, #3
 8001f76:	fa02 f303 	lsl.w	r3, r2, r3
 8001f7a:	43db      	mvns	r3, r3
 8001f7c:	69ba      	ldr	r2, [r7, #24]
 8001f7e:	4013      	ands	r3, r2
 8001f80:	61bb      	str	r3, [r7, #24]
 8001f82:	683b      	ldr	r3, [r7, #0]
 8001f84:	68da      	ldr	r2, [r3, #12]
 8001f86:	69fb      	ldr	r3, [r7, #28]
 8001f88:	005b      	lsls	r3, r3, #1
 8001f8a:	fa02 f303 	lsl.w	r3, r2, r3
 8001f8e:	69ba      	ldr	r2, [r7, #24]
 8001f90:	4313      	orrs	r3, r2
 8001f92:	61bb      	str	r3, [r7, #24]
 8001f94:	687b      	ldr	r3, [r7, #4]
 8001f96:	69ba      	ldr	r2, [r7, #24]
 8001f98:	609a      	str	r2, [r3, #8]
 8001f9a:	687b      	ldr	r3, [r7, #4]
 8001f9c:	685b      	ldr	r3, [r3, #4]
 8001f9e:	61bb      	str	r3, [r7, #24]
 8001fa0:	2201      	movs	r2, #1
 8001fa2:	69fb      	ldr	r3, [r7, #28]
 8001fa4:	fa02 f303 	lsl.w	r3, r2, r3
 8001fa8:	43db      	mvns	r3, r3
 8001faa:	69ba      	ldr	r2, [r7, #24]
 8001fac:	4013      	ands	r3, r2
 8001fae:	61bb      	str	r3, [r7, #24]
 8001fb0:	683b      	ldr	r3, [r7, #0]
 8001fb2:	685b      	ldr	r3, [r3, #4]
 8001fb4:	091b      	lsrs	r3, r3, #4
 8001fb6:	f003 0201 	and.w	r2, r3, #1
 8001fba:	69fb      	ldr	r3, [r7, #28]
 8001fbc:	fa02 f303 	lsl.w	r3, r2, r3
 8001fc0:	69ba      	ldr	r2, [r7, #24]
 8001fc2:	4313      	orrs	r3, r2
 8001fc4:	61bb      	str	r3, [r7, #24]
 8001fc6:	687b      	ldr	r3, [r7, #4]
 8001fc8:	69ba      	ldr	r2, [r7, #24]
 8001fca:	605a      	str	r2, [r3, #4]
 8001fcc:	683b      	ldr	r3, [r7, #0]
 8001fce:	685b      	ldr	r3, [r3, #4]
 8001fd0:	f003 0303 	and.w	r3, r3, #3
 8001fd4:	2b03      	cmp	r3, #3
 8001fd6:	d017      	beq.n	8002008 <HAL_GPIO_Init+0xf0>
 8001fd8:	687b      	ldr	r3, [r7, #4]
 8001fda:	68db      	ldr	r3, [r3, #12]
 8001fdc:	61bb      	str	r3, [r7, #24]
 8001fde:	69fb      	ldr	r3, [r7, #28]
 8001fe0:	005b      	lsls	r3, r3, #1
 8001fe2:	2203      	movs	r2, #3
 8001fe4:	fa02 f303 	lsl.w	r3, r2, r3
 8001fe8:	43db      	mvns	r3, r3
 8001fea:	69ba      	ldr	r2, [r7, #24]
 8001fec:	4013      	ands	r3, r2
 8001fee:	61bb      	str	r3, [r7, #24]
 8001ff0:	683b      	ldr	r3, [r7, #0]
 8001ff2:	689a      	ldr	r2, [r3, #8]
 8001ff4:	69fb      	ldr	r3, [r7, #28]
 8001ff6:	005b      	lsls	r3, r3, #1
 8001ff8:	fa02 f303 	lsl.w	r3, r2, r3
 8001ffc:	69ba      	ldr	r2, [r7, #24]
 8001ffe:	4313      	orrs	r3, r2
 8002000:	61bb      	str	r3, [r7, #24]
 8002002:	687b      	ldr	r3, [r7, #4]
 8002004:	69ba      	ldr	r2, [r7, #24]
 8002006:	60da      	str	r2, [r3, #12]
 8002008:	683b      	ldr	r3, [r7, #0]
 800200a:	685b      	ldr	r3, [r3, #4]
 800200c:	f003 0303 	and.w	r3, r3, #3
 8002010:	2b02      	cmp	r3, #2
 8002012:	d123      	bne.n	800205c <HAL_GPIO_Init+0x144>
 8002014:	69fb      	ldr	r3, [r7, #28]
 8002016:	08da      	lsrs	r2, r3, #3
 8002018:	687b      	ldr	r3, [r7, #4]
 800201a:	3208      	adds	r2, #8
 800201c:	f853 3022 	ldr.w	r3, [r3, r2, lsl #2]
 8002020:	61bb      	str	r3, [r7, #24]
 8002022:	69fb      	ldr	r3, [r7, #28]
 8002024:	f003 0307 	and.w	r3, r3, #7
 8002028:	009b      	lsls	r3, r3, #2
 800202a:	220f      	movs	r2, #15
 800202c:	fa02 f303 	lsl.w	r3, r2, r3
 8002030:	43db      	mvns	r3, r3
 8002032:	69ba      	ldr	r2, [r7, #24]
 8002034:	4013      	ands	r3, r2
 8002036:	61bb      	str	r3, [r7, #24]
 8002038:	683b      	ldr	r3, [r7, #0]
 800203a:	691a      	ldr	r2, [r3, #16]
 800203c:	69fb      	ldr	r3, [r7, #28]
 800203e:	f003 0307 	and.w	r3, r3, #7
 8002042:	009b      	lsls	r3, r3, #2
 8002044:	fa02 f303 	lsl.w	r3, r2, r3
 8002048:	69ba      	ldr	r2, [r7, #24]
 800204a:	4313      	orrs	r3, r2
 800204c:	61bb      	str	r3, [r7, #24]
 800204e:	69fb      	ldr	r3, [r7, #28]
 8002050:	08da      	lsrs	r2, r3, #3
 8002052:	687b      	ldr	r3, [r7, #4]
 8002054:	3208      	adds	r2, #8
 8002056:	69b9      	ldr	r1, [r7, #24]
 8002058:	f843 1022 	str.w	r1, [r3, r2, lsl #2]
 800205c:	687b      	ldr	r3, [r7, #4]
 800205e:	681b      	ldr	r3, [r3, #0]
 8002060:	61bb      	str	r3, [r7, #24]
 8002062:	69fb      	ldr	r3, [r7, #28]
 8002064:	005b      	lsls	r3, r3, #1
 8002066:	2203      	movs	r2, #3
 8002068:	fa02 f303 	lsl.w	r3, r2, r3
 800206c:	43db      	mvns	r3, r3
 800206e:	69ba      	ldr	r2, [r7, #24]
 8002070:	4013      	ands	r3, r2
 8002072:	61bb      	str	r3, [r7, #24]
 8002074:	683b      	ldr	r3, [r7, #0]
 8002076:	685b      	ldr	r3, [r3, #4]
 8002078:	f003 0203 	and.w	r2, r3, #3
 800207c:	69fb      	ldr	r3, [r7, #28]
 800207e:	005b      	lsls	r3, r3, #1
 8002080:	fa02 f303 	lsl.w	r3, r2, r3
 8002084:	69ba      	ldr	r2, [r7, #24]
 8002086:	4313      	orrs	r3, r2
 8002088:	61bb      	str	r3, [r7, #24]
 800208a:	687b      	ldr	r3, [r7, #4]
 800208c:	69ba      	ldr	r2, [r7, #24]
 800208e:	601a      	str	r2, [r3, #0]
 8002090:	683b      	ldr	r3, [r7, #0]
 8002092:	685b      	ldr	r3, [r3, #4]
 8002094:	f403 3340 	and.w	r3, r3, #196608	@ 0x30000
 8002098:	2b00      	cmp	r3, #0
 800209a:	f000 80ae 	beq.w	80021fa <HAL_GPIO_Init+0x2e2>
 800209e:	2300      	movs	r3, #0
 80020a0:	60fb      	str	r3, [r7, #12]
 80020a2:	4b5d      	ldr	r3, [pc, #372]	@ (8002218 <HAL_GPIO_Init+0x300>)
 80020a4:	6c5b      	ldr	r3, [r3, #68]	@ 0x44
 80020a6:	4a5c      	ldr	r2, [pc, #368]	@ (8002218 <HAL_GPIO_Init+0x300>)
 80020a8:	f443 4380 	orr.w	r3, r3, #16384	@ 0x4000
 80020ac:	6453      	str	r3, [r2, #68]	@ 0x44
 80020ae:	4b5a      	ldr	r3, [pc, #360]	@ (8002218 <HAL_GPIO_Init+0x300>)
 80020b0:	6c5b      	ldr	r3, [r3, #68]	@ 0x44
 80020b2:	f403 4380 	and.w	r3, r3, #16384	@ 0x4000
 80020b6:	60fb      	str	r3, [r7, #12]
 80020b8:	68fb      	ldr	r3, [r7, #12]
 80020ba:	4a58      	ldr	r2, [pc, #352]	@ (800221c <HAL_GPIO_Init+0x304>)
 80020bc:	69fb      	ldr	r3, [r7, #28]
 80020be:	089b      	lsrs	r3, r3, #2
 80020c0:	3302      	adds	r3, #2
 80020c2:	f852 3023 	ldr.w	r3, [r2, r3, lsl #2]
 80020c6:	61bb      	str	r3, [r7, #24]
 80020c8:	69fb      	ldr	r3, [r7, #28]
 80020ca:	f003 0303 	and.w	r3, r3, #3
 80020ce:	009b      	lsls	r3, r3, #2
 80020d0:	220f      	movs	r2, #15
 80020d2:	fa02 f303 	lsl.w	r3, r2, r3
 80020d6:	43db      	mvns	r3, r3
 80020d8:	69ba      	ldr	r2, [r7, #24]
 80020da:	4013      	ands	r3, r2
 80020dc:	61bb      	str	r3, [r7, #24]
 80020de:	687b      	ldr	r3, [r7, #4]
 80020e0:	4a4f      	ldr	r2, [pc, #316]	@ (8002220 <HAL_GPIO_Init+0x308>)
 80020e2:	4293      	cmp	r3, r2
 80020e4:	d025      	beq.n	8002132 <HAL_GPIO_Init+0x21a>
 80020e6:	687b      	ldr	r3, [r7, #4]
 80020e8:	4a4e      	ldr	r2, [pc, #312]	@ (8002224 <HAL_GPIO_Init+0x30c>)
 80020ea:	4293      	cmp	r3, r2
 80020ec:	d01f      	beq.n	800212e <HAL_GPIO_Init+0x216>
 80020ee:	687b      	ldr	r3, [r7, #4]
 80020f0:	4a4d      	ldr	r2, [pc, #308]	@ (8002228 <HAL_GPIO_Init+0x310>)
 80020f2:	4293      	cmp	r3, r2
 80020f4:	d019      	beq.n	800212a <HAL_GPIO_Init+0x212>
 80020f6:	687b      	ldr	r3, [r7, #4]
 80020f8:	4a4c      	ldr	r2, [pc, #304]	@ (800222c <HAL_GPIO_Init+0x314>)
 80020fa:	4293      	cmp	r3, r2
 80020fc:	d013      	beq.n	8002126 <HAL_GPIO_Init+0x20e>
 80020fe:	687b      	ldr	r3, [r7, #4]
 8002100:	4a4b      	ldr	r2, [pc, #300]	@ (8002230 <HAL_GPIO_Init+0x318>)
 8002102:	4293      	cmp	r3, r2
 8002104:	d00d      	beq.n	8002122 <HAL_GPIO_Init+0x20a>
 8002106:	687b      	ldr	r3, [r7, #4]
 8002108:	4a4a      	ldr	r2, [pc, #296]	@ (8002234 <HAL_GPIO_Init+0x31c>)
 800210a:	4293      	cmp	r3, r2
 800210c:	d007      	beq.n	800211e <HAL_GPIO_Init+0x206>
 800210e:	687b      	ldr	r3, [r7, #4]
 8002110:	4a49      	ldr	r2, [pc, #292]	@ (8002238 <HAL_GPIO_Init+0x320>)
 8002112:	4293      	cmp	r3, r2
 8002114:	d101      	bne.n	800211a <HAL_GPIO_Init+0x202>
 8002116:	2306      	movs	r3, #6
 8002118:	e00c      	b.n	8002134 <HAL_GPIO_Init+0x21c>
 800211a:	2307      	movs	r3, #7
 800211c:	e00a      	b.n	8002134 <HAL_GPIO_Init+0x21c>
 800211e:	2305      	movs	r3, #5
 8002120:	e008      	b.n	8002134 <HAL_GPIO_Init+0x21c>
 8002122:	2304      	movs	r3, #4
 8002124:	e006      	b.n	8002134 <HAL_GPIO_Init+0x21c>
 8002126:	2303      	movs	r3, #3
 8002128:	e004      	b.n	8002134 <HAL_GPIO_Init+0x21c>
 800212a:	2302      	movs	r3, #2
 800212c:	e002      	b.n	8002134 <HAL_GPIO_Init+0x21c>
 800212e:	2301      	movs	r3, #1
 8002130:	e000      	b.n	8002134 <HAL_GPIO_Init+0x21c>
 8002132:	2300      	movs	r3, #0
 8002134:	69fa      	ldr	r2, [r7, #28]
 8002136:	f002 0203 	and.w	r2, r2, #3
 800213a:	0092      	lsls	r2, r2, #2
 800213c:	4093      	lsls	r3, r2
 800213e:	69ba      	ldr	r2, [r7, #24]
 8002140:	4313      	orrs	r3, r2
 8002142:	61bb      	str	r3, [r7, #24]
 8002144:	4935      	ldr	r1, [pc, #212]	@ (800221c <HAL_GPIO_Init+0x304>)
 8002146:	69fb      	ldr	r3, [r7, #28]
 8002148:	089b      	lsrs	r3, r3, #2
 800214a:	3302      	adds	r3, #2
 800214c:	69ba      	ldr	r2, [r7, #24]
 800214e:	f841 2023 	str.w	r2, [r1, r3, lsl #2]
 8002152:	4b3a      	ldr	r3, [pc, #232]	@ (800223c <HAL_GPIO_Init+0x324>)
 8002154:	689b      	ldr	r3, [r3, #8]
 8002156:	61bb      	str	r3, [r7, #24]
 8002158:	693b      	ldr	r3, [r7, #16]
 800215a:	43db      	mvns	r3, r3
 800215c:	69ba      	ldr	r2, [r7, #24]
 800215e:	4013      	ands	r3, r2
 8002160:	61bb      	str	r3, [r7, #24]
 8002162:	683b      	ldr	r3, [r7, #0]
 8002164:	685b      	ldr	r3, [r3, #4]
 8002166:	f403 1380 	and.w	r3, r3, #1048576	@ 0x100000
 800216a:	2b00      	cmp	r3, #0
 800216c:	d003      	beq.n	8002176 <HAL_GPIO_Init+0x25e>
 800216e:	69ba      	ldr	r2, [r7, #24]
 8002170:	693b      	ldr	r3, [r7, #16]
 8002172:	4313      	orrs	r3, r2
 8002174:	61bb      	str	r3, [r7, #24]
 8002176:	4a31      	ldr	r2, [pc, #196]	@ (800223c <HAL_GPIO_Init+0x324>)
 8002178:	69bb      	ldr	r3, [r7, #24]
 800217a:	6093      	str	r3, [r2, #8]
 800217c:	4b2f      	ldr	r3, [pc, #188]	@ (800223c <HAL_GPIO_Init+0x324>)
 800217e:	68db      	ldr	r3, [r3, #12]
 8002180:	61bb      	str	r3, [r7, #24]
 8002182:	693b      	ldr	r3, [r7, #16]
 8002184:	43db      	mvns	r3, r3
 8002186:	69ba      	ldr	r2, [r7, #24]
 8002188:	4013      	ands	r3, r2
 800218a:	61bb      	str	r3, [r7, #24]
 800218c:	683b      	ldr	r3, [r7, #0]
 800218e:	685b      	ldr	r3, [r3, #4]
 8002190:	f403 1300 	and.w	r3, r3, #2097152	@ 0x200000
 8002194:	2b00      	cmp	r3, #0
 8002196:	d003      	beq.n	80021a0 <HAL_GPIO_Init+0x288>
 8002198:	69ba      	ldr	r2, [r7, #24]
 800219a:	693b      	ldr	r3, [r7, #16]
 800219c:	4313      	orrs	r3, r2
 800219e:	61bb      	str	r3, [r7, #24]
 80021a0:	4a26      	ldr	r2, [pc, #152]	@ (800223c <HAL_GPIO_Init+0x324>)
 80021a2:	69bb      	ldr	r3, [r7, #24]
 80021a4:	60d3      	str	r3, [r2, #12]
 80021a6:	4b25      	ldr	r3, [pc, #148]	@ (800223c <HAL_GPIO_Init+0x324>)
 80021a8:	685b      	ldr	r3, [r3, #4]
 80021aa:	61bb      	str	r3, [r7, #24]
 80021ac:	693b      	ldr	r3, [r7, #16]
 80021ae:	43db      	mvns	r3, r3
 80021b0:	69ba      	ldr	r2, [r7, #24]
 80021b2:	4013      	ands	r3, r2
 80021b4:	61bb      	str	r3, [r7, #24]
 80021b6:	683b      	ldr	r3, [r7, #0]
 80021b8:	685b      	ldr	r3, [r3, #4]
 80021ba:	f403 3300 	and.w	r3, r3, #131072	@ 0x20000
 80021be:	2b00      	cmp	r3, #0
 80021c0:	d003      	beq.n	80021ca <HAL_GPIO_Init+0x2b2>
 80021c2:	69ba      	ldr	r2, [r7, #24]
 80021c4:	693b      	ldr	r3, [r7, #16]
 80021c6:	4313      	orrs	r3, r2
 80021c8:	61bb      	str	r3, [r7, #24]
 80021ca:	4a1c      	ldr	r2, [pc, #112]	@ (800223c <HAL_GPIO_Init+0x324>)
 80021cc:	69bb      	ldr	r3, [r7, #24]
 80021ce:	6053      	str	r3, [r2, #4]
 80021d0:	4b1a      	ldr	r3, [pc, #104]	@ (800223c <HAL_GPIO_Init+0x324>)
 80021d2:	681b      	ldr	r3, [r3, #0]
 80021d4:	61bb      	str	r3, [r7, #24]
 80021d6:	693b      	ldr	r3, [r7, #16]
 80021d8:	43db      	mvns	r3, r3
 80021da:	69ba      	ldr	r2, [r7, #24]
 80021dc:	4013      	ands	r3, r2
 80021de:	61bb      	str	r3, [r7, #24]
 80021e0:	683b      	ldr	r3, [r7, #0]
 80021e2:	685b      	ldr	r3, [r3, #4]
 80021e4:	f403 3380 	and.w	r3, r3, #65536	@ 0x10000
 80021e8:	2b00      	cmp	r3, #0
 80021ea:	d003      	beq.n	80021f4 <HAL_GPIO_Init+0x2dc>
 80021ec:	69ba      	ldr	r2, [r7, #24]
 80021ee:	693b      	ldr	r3, [r7, #16]
 80021f0:	4313      	orrs	r3, r2
 80021f2:	61bb      	str	r3, [r7, #24]
 80021f4:	4a11      	ldr	r2, [pc, #68]	@ (800223c <HAL_GPIO_Init+0x324>)
 80021f6:	69bb      	ldr	r3, [r7, #24]
 80021f8:	6013      	str	r3, [r2, #0]
 80021fa:	69fb      	ldr	r3, [r7, #28]
 80021fc:	3301      	adds	r3, #1
 80021fe:	61fb      	str	r3, [r7, #28]
 8002200:	69fb      	ldr	r3, [r7, #28]
 8002202:	2b0f      	cmp	r3, #15
 8002204:	f67f ae96 	bls.w	8001f34 <HAL_GPIO_Init+0x1c>
 8002208:	bf00      	nop
 800220a:	bf00      	nop
 800220c:	3724      	adds	r7, #36	@ 0x24
 800220e:	46bd      	mov	sp, r7
 8002210:	f85d 7b04 	ldr.w	r7, [sp], #4
 8002214:	4770      	bx	lr
 8002216:	bf00      	nop
 8002218:	40023800 	.word	0x40023800
 800221c:	40013800 	.word	0x40013800
 8002220:	40020000 	.word	0x40020000
 8002224:	40020400 	.word	0x40020400
 8002228:	40020800 	.word	0x40020800
 800222c:	40020c00 	.word	0x40020c00
 8002230:	40021000 	.word	0x40021000
 8002234:	40021400 	.word	0x40021400
 8002238:	40021800 	.word	0x40021800
 800223c:	40013c00 	.word	0x40013c00

08002240 <HAL_GPIO_WritePin>:
 8002240:	b480      	push	{r7}
 8002242:	b083      	sub	sp, #12
 8002244:	af00      	add	r7, sp, #0
 8002246:	6078      	str	r0, [r7, #4]
 8002248:	460b      	mov	r3, r1
 800224a:	807b      	strh	r3, [r7, #2]
 800224c:	4613      	mov	r3, r2
 800224e:	707b      	strb	r3, [r7, #1]
 8002250:	787b      	ldrb	r3, [r7, #1]
 8002252:	2b00      	cmp	r3, #0
 8002254:	d003      	beq.n	800225e <HAL_GPIO_WritePin+0x1e>
 8002256:	887a      	ldrh	r2, [r7, #2]
 8002258:	687b      	ldr	r3, [r7, #4]
 800225a:	619a      	str	r2, [r3, #24]
 800225c:	e003      	b.n	8002266 <HAL_GPIO_WritePin+0x26>
 800225e:	887b      	ldrh	r3, [r7, #2]
 8002260:	041a      	lsls	r2, r3, #16
 8002262:	687b      	ldr	r3, [r7, #4]
 8002264:	619a      	str	r2, [r3, #24]
 8002266:	bf00      	nop
 8002268:	370c      	adds	r7, #12
 800226a:	46bd      	mov	sp, r7
 800226c:	f85d 7b04 	ldr.w	r7, [sp], #4
 8002270:	4770      	bx	lr

08002272 <HAL_GPIO_TogglePin>:
 8002272:	b480      	push	{r7}
 8002274:	b085      	sub	sp, #20
 8002276:	af00      	add	r7, sp, #0
 8002278:	6078      	str	r0, [r7, #4]
 800227a:	460b      	mov	r3, r1
 800227c:	807b      	strh	r3, [r7, #2]
 800227e:	687b      	ldr	r3, [r7, #4]
 8002280:	695b      	ldr	r3, [r3, #20]
 8002282:	60fb      	str	r3, [r7, #12]
 8002284:	887a      	ldrh	r2, [r7, #2]
 8002286:	68fb      	ldr	r3, [r7, #12]
 8002288:	4013      	ands	r3, r2
 800228a:	041a      	lsls	r2, r3, #16
 800228c:	68fb      	ldr	r3, [r7, #12]
 800228e:	43d9      	mvns	r1, r3
 8002290:	887b      	ldrh	r3, [r7, #2]
 8002292:	400b      	ands	r3, r1
 8002294:	431a      	orrs	r2, r3
 8002296:	687b      	ldr	r3, [r7, #4]
 8002298:	619a      	str	r2, [r3, #24]
 800229a:	bf00      	nop
 800229c:	3714      	adds	r7, #20
 800229e:	46bd      	mov	sp, r7
 80022a0:	f85d 7b04 	ldr.w	r7, [sp], #4
 80022a4:	4770      	bx	lr
	...

080022a8 <HAL_RCC_ClockConfig>:
 80022a8:	b580      	push	{r7, lr}
 80022aa:	b084      	sub	sp, #16
 80022ac:	af00      	add	r7, sp, #0
 80022ae:	6078      	str	r0, [r7, #4]
 80022b0:	6039      	str	r1, [r7, #0]
 80022b2:	687b      	ldr	r3, [r7, #4]
 80022b4:	2b00      	cmp	r3, #0
 80022b6:	d101      	bne.n	80022bc <HAL_RCC_ClockConfig+0x14>
 80022b8:	2301      	movs	r3, #1
 80022ba:	e0cc      	b.n	8002456 <HAL_RCC_ClockConfig+0x1ae>
 80022bc:	4b68      	ldr	r3, [pc, #416]	@ (8002460 <HAL_RCC_ClockConfig+0x1b8>)
 80022be:	681b      	ldr	r3, [r3, #0]
 80022c0:	f003 030f 	and.w	r3, r3, #15
 80022c4:	683a      	ldr	r2, [r7, #0]
 80022c6:	429a      	cmp	r2, r3
 80022c8:	d90c      	bls.n	80022e4 <HAL_RCC_ClockConfig+0x3c>
 80022ca:	4b65      	ldr	r3, [pc, #404]	@ (8002460 <HAL_RCC_ClockConfig+0x1b8>)
 80022cc:	683a      	ldr	r2, [r7, #0]
 80022ce:	b2d2      	uxtb	r2, r2
 80022d0:	701a      	strb	r2, [r3, #0]
 80022d2:	4b63      	ldr	r3, [pc, #396]	@ (8002460 <HAL_RCC_ClockConfig+0x1b8>)
 80022d4:	681b      	ldr	r3, [r3, #0]
 80022d6:	f003 030f 	and.w	r3, r3, #15
 80022da:	683a      	ldr	r2, [r7, #0]
 80022dc:	429a      	cmp	r2, r3
 80022de:	d001      	beq.n	80022e4 <HAL_RCC_ClockConfig+0x3c>
 80022e0:	2301      	movs	r3, #1
 80022e2:	e0b8      	b.n	8002456 <HAL_RCC_ClockConfig+0x1ae>
 80022e4:	687b      	ldr	r3, [r7, #4]
 80022e6:	681b      	ldr	r3, [r3, #0]
 80022e8:	f003 0302 	and.w	r3, r3, #2
 80022ec:	2b00      	cmp	r3, #0
 80022ee:	d020      	beq.n	8002332 <HAL_RCC_ClockConfig+0x8a>
 80022f0:	687b      	ldr	r3, [r7, #4]
 80022f2:	681b      	ldr	r3, [r3, #0]
 80022f4:	f003 0304 	and.w	r3, r3, #4
 80022f8:	2b00      	cmp	r3, #0
 80022fa:	d005      	beq.n	8002308 <HAL_RCC_ClockConfig+0x60>
 80022fc:	4b59      	ldr	r3, [pc, #356]	@ (8002464 <HAL_RCC_ClockConfig+0x1bc>)
 80022fe:	689b      	ldr	r3, [r3, #8]
 8002300:	4a58      	ldr	r2, [pc, #352]	@ (8002464 <HAL_RCC_ClockConfig+0x1bc>)
 8002302:	f443 53e0 	orr.w	r3, r3, #7168	@ 0x1c00
 8002306:	6093      	str	r3, [r2, #8]
 8002308:	687b      	ldr	r3, [r7, #4]
 800230a:	681b      	ldr	r3, [r3, #0]
 800230c:	f003 0308 	and.w	r3, r3, #8
 8002310:	2b00      	cmp	r3, #0
 8002312:	d005      	beq.n	8002320 <HAL_RCC_ClockConfig+0x78>
 8002314:	4b53      	ldr	r3, [pc, #332]	@ (8002464 <HAL_RCC_ClockConfig+0x1bc>)
 8002316:	689b      	ldr	r3, [r3, #8]
 8002318:	4a52      	ldr	r2, [pc, #328]	@ (8002464 <HAL_RCC_ClockConfig+0x1bc>)
 800231a:	f443 4360 	orr.w	r3, r3, #57344	@ 0xe000
 800231e:	6093      	str	r3, [r2, #8]
 8002320:	4b50      	ldr	r3, [pc, #320]	@ (8002464 <HAL_RCC_ClockConfig+0x1bc>)
 8002322:	689b      	ldr	r3, [r3, #8]
 8002324:	f023 02f0 	bic.w	r2, r3, #240	@ 0xf0
 8002328:	687b      	ldr	r3, [r7, #4]
 800232a:	689b      	ldr	r3, [r3, #8]
 800232c:	494d      	ldr	r1, [pc, #308]	@ (8002464 <HAL_RCC_ClockConfig+0x1bc>)
 800232e:	4313      	orrs	r3, r2
 8002330:	608b      	str	r3, [r1, #8]
 8002332:	687b      	ldr	r3, [r7, #4]
 8002334:	681b      	ldr	r3, [r3, #0]
 8002336:	f003 0301 	and.w	r3, r3, #1
 800233a:	2b00      	cmp	r3, #0
 800233c:	d044      	beq.n	80023c8 <HAL_RCC_ClockConfig+0x120>
 800233e:	687b      	ldr	r3, [r7, #4]
 8002340:	685b      	ldr	r3, [r3, #4]
 8002342:	2b01      	cmp	r3, #1
 8002344:	d107      	bne.n	8002356 <HAL_RCC_ClockConfig+0xae>
 8002346:	4b47      	ldr	r3, [pc, #284]	@ (8002464 <HAL_RCC_ClockConfig+0x1bc>)
 8002348:	681b      	ldr	r3, [r3, #0]
 800234a:	f403 3300 	and.w	r3, r3, #131072	@ 0x20000
 800234e:	2b00      	cmp	r3, #0
 8002350:	d119      	bne.n	8002386 <HAL_RCC_ClockConfig+0xde>
 8002352:	2301      	movs	r3, #1
 8002354:	e07f      	b.n	8002456 <HAL_RCC_ClockConfig+0x1ae>
 8002356:	687b      	ldr	r3, [r7, #4]
 8002358:	685b      	ldr	r3, [r3, #4]
 800235a:	2b02      	cmp	r3, #2
 800235c:	d003      	beq.n	8002366 <HAL_RCC_ClockConfig+0xbe>
 800235e:	687b      	ldr	r3, [r7, #4]
 8002360:	685b      	ldr	r3, [r3, #4]
 8002362:	2b03      	cmp	r3, #3
 8002364:	d107      	bne.n	8002376 <HAL_RCC_ClockConfig+0xce>
 8002366:	4b3f      	ldr	r3, [pc, #252]	@ (8002464 <HAL_RCC_ClockConfig+0x1bc>)
 8002368:	681b      	ldr	r3, [r3, #0]
 800236a:	f003 7300 	and.w	r3, r3, #33554432	@ 0x2000000
 800236e:	2b00      	cmp	r3, #0
 8002370:	d109      	bne.n	8002386 <HAL_RCC_ClockConfig+0xde>
 8002372:	2301      	movs	r3, #1
 8002374:	e06f      	b.n	8002456 <HAL_RCC_ClockConfig+0x1ae>
 8002376:	4b3b      	ldr	r3, [pc, #236]	@ (8002464 <HAL_RCC_ClockConfig+0x1bc>)
 8002378:	681b      	ldr	r3, [r3, #0]
 800237a:	f003 0302 	and.w	r3, r3, #2
 800237e:	2b00      	cmp	r3, #0
 8002380:	d101      	bne.n	8002386 <HAL_RCC_ClockConfig+0xde>
 8002382:	2301      	movs	r3, #1
 8002384:	e067      	b.n	8002456 <HAL_RCC_ClockConfig+0x1ae>
 8002386:	4b37      	ldr	r3, [pc, #220]	@ (8002464 <HAL_RCC_ClockConfig+0x1bc>)
 8002388:	689b      	ldr	r3, [r3, #8]
 800238a:	f023 0203 	bic.w	r2, r3, #3
 800238e:	687b      	ldr	r3, [r7, #4]
 8002390:	685b      	ldr	r3, [r3, #4]
 8002392:	4934      	ldr	r1, [pc, #208]	@ (8002464 <HAL_RCC_ClockConfig+0x1bc>)
 8002394:	4313      	orrs	r3, r2
 8002396:	608b      	str	r3, [r1, #8]
 8002398:	f7ff fbea 	bl	8001b70 <HAL_GetTick>
 800239c:	60f8      	str	r0, [r7, #12]
 800239e:	e00a      	b.n	80023b6 <HAL_RCC_ClockConfig+0x10e>
 80023a0:	f7ff fbe6 	bl	8001b70 <HAL_GetTick>
 80023a4:	4602      	mov	r2, r0
 80023a6:	68fb      	ldr	r3, [r7, #12]
 80023a8:	1ad3      	subs	r3, r2, r3
 80023aa:	f241 3288 	movw	r2, #5000	@ 0x1388
 80023ae:	4293      	cmp	r3, r2
 80023b0:	d901      	bls.n	80023b6 <HAL_RCC_ClockConfig+0x10e>
 80023b2:	2303      	movs	r3, #3
 80023b4:	e04f      	b.n	8002456 <HAL_RCC_ClockConfig+0x1ae>
 80023b6:	4b2b      	ldr	r3, [pc, #172]	@ (8002464 <HAL_RCC_ClockConfig+0x1bc>)
 80023b8:	689b      	ldr	r3, [r3, #8]
 80023ba:	f003 020c 	and.w	r2, r3, #12
 80023be:	687b      	ldr	r3, [r7, #4]
 80023c0:	685b      	ldr	r3, [r3, #4]
 80023c2:	009b      	lsls	r3, r3, #2
 80023c4:	429a      	cmp	r2, r3
 80023c6:	d1eb      	bne.n	80023a0 <HAL_RCC_ClockConfig+0xf8>
 80023c8:	4b25      	ldr	r3, [pc, #148]	@ (8002460 <HAL_RCC_ClockConfig+0x1b8>)
 80023ca:	681b      	ldr	r3, [r3, #0]
 80023cc:	f003 030f 	and.w	r3, r3, #15
 80023d0:	683a      	ldr	r2, [r7, #0]
 80023d2:	429a      	cmp	r2, r3
 80023d4:	d20c      	bcs.n	80023f0 <HAL_RCC_ClockConfig+0x148>
 80023d6:	4b22      	ldr	r3, [pc, #136]	@ (8002460 <HAL_RCC_ClockConfig+0x1b8>)
 80023d8:	683a      	ldr	r2, [r7, #0]
 80023da:	b2d2      	uxtb	r2, r2
 80023dc:	701a      	strb	r2, [r3, #0]
 80023de:	4b20      	ldr	r3, [pc, #128]	@ (8002460 <HAL_RCC_ClockConfig+0x1b8>)
 80023e0:	681b      	ldr	r3, [r3, #0]
 80023e2:	f003 030f 	and.w	r3, r3, #15
 80023e6:	683a      	ldr	r2, [r7, #0]
 80023e8:	429a      	cmp	r2, r3
 80023ea:	d001      	beq.n	80023f0 <HAL_RCC_ClockConfig+0x148>
 80023ec:	2301      	movs	r3, #1
 80023ee:	e032      	b.n	8002456 <HAL_RCC_ClockConfig+0x1ae>
 80023f0:	687b      	ldr	r3, [r7, #4]
 80023f2:	681b      	ldr	r3, [r3, #0]
 80023f4:	f003 0304 	and.w	r3, r3, #4
 80023f8:	2b00      	cmp	r3, #0
 80023fa:	d008      	beq.n	800240e <HAL_RCC_ClockConfig+0x166>
 80023fc:	4b19      	ldr	r3, [pc, #100]	@ (8002464 <HAL_RCC_ClockConfig+0x1bc>)
 80023fe:	689b      	ldr	r3, [r3, #8]
 8002400:	f423 52e0 	bic.w	r2, r3, #7168	@ 0x1c00
 8002404:	687b      	ldr	r3, [r7, #4]
 8002406:	68db      	ldr	r3, [r3, #12]
 8002408:	4916      	ldr	r1, [pc, #88]	@ (8002464 <HAL_RCC_ClockConfig+0x1bc>)
 800240a:	4313      	orrs	r3, r2
 800240c:	608b      	str	r3, [r1, #8]
 800240e:	687b      	ldr	r3, [r7, #4]
 8002410:	681b      	ldr	r3, [r3, #0]
 8002412:	f003 0308 	and.w	r3, r3, #8
 8002416:	2b00      	cmp	r3, #0
 8002418:	d009      	beq.n	800242e <HAL_RCC_ClockConfig+0x186>
 800241a:	4b12      	ldr	r3, [pc, #72]	@ (8002464 <HAL_RCC_ClockConfig+0x1bc>)
 800241c:	689b      	ldr	r3, [r3, #8]
 800241e:	f423 4260 	bic.w	r2, r3, #57344	@ 0xe000
 8002422:	687b      	ldr	r3, [r7, #4]
 8002424:	691b      	ldr	r3, [r3, #16]
 8002426:	00db      	lsls	r3, r3, #3
 8002428:	490e      	ldr	r1, [pc, #56]	@ (8002464 <HAL_RCC_ClockConfig+0x1bc>)
 800242a:	4313      	orrs	r3, r2
 800242c:	608b      	str	r3, [r1, #8]
 800242e:	f000 f855 	bl	80024dc <HAL_RCC_GetSysClockFreq>
 8002432:	4602      	mov	r2, r0
 8002434:	4b0b      	ldr	r3, [pc, #44]	@ (8002464 <HAL_RCC_ClockConfig+0x1bc>)
 8002436:	689b      	ldr	r3, [r3, #8]
 8002438:	091b      	lsrs	r3, r3, #4
 800243a:	f003 030f 	and.w	r3, r3, #15
 800243e:	490a      	ldr	r1, [pc, #40]	@ (8002468 <HAL_RCC_ClockConfig+0x1c0>)
 8002440:	5ccb      	ldrb	r3, [r1, r3]
 8002442:	fa22 f303 	lsr.w	r3, r2, r3
 8002446:	4a09      	ldr	r2, [pc, #36]	@ (800246c <HAL_RCC_ClockConfig+0x1c4>)
 8002448:	6013      	str	r3, [r2, #0]
 800244a:	4b09      	ldr	r3, [pc, #36]	@ (8002470 <HAL_RCC_ClockConfig+0x1c8>)
 800244c:	681b      	ldr	r3, [r3, #0]
 800244e:	4618      	mov	r0, r3
 8002450:	f7ff fb4a 	bl	8001ae8 <HAL_InitTick>
 8002454:	2300      	movs	r3, #0
 8002456:	4618      	mov	r0, r3
 8002458:	3710      	adds	r7, #16
 800245a:	46bd      	mov	sp, r7
 800245c:	bd80      	pop	{r7, pc}
 800245e:	bf00      	nop
 8002460:	40023c00 	.word	0x40023c00
 8002464:	40023800 	.word	0x40023800
 8002468:	0800ba28 	.word	0x0800ba28
 800246c:	20000000 	.word	0x20000000
 8002470:	20000004 	.word	0x20000004

08002474 <HAL_RCC_GetHCLKFreq>:
 8002474:	b480      	push	{r7}
 8002476:	af00      	add	r7, sp, #0
 8002478:	4b03      	ldr	r3, [pc, #12]	@ (8002488 <HAL_RCC_GetHCLKFreq+0x14>)
 800247a:	681b      	ldr	r3, [r3, #0]
 800247c:	4618      	mov	r0, r3
 800247e:	46bd      	mov	sp, r7
 8002480:	f85d 7b04 	ldr.w	r7, [sp], #4
 8002484:	4770      	bx	lr
 8002486:	bf00      	nop
 8002488:	20000000 	.word	0x20000000

0800248c <HAL_RCC_GetPCLK1Freq>:
 800248c:	b580      	push	{r7, lr}
 800248e:	af00      	add	r7, sp, #0
 8002490:	f7ff fff0 	bl	8002474 <HAL_RCC_GetHCLKFreq>
 8002494:	4602      	mov	r2, r0
 8002496:	4b05      	ldr	r3, [pc, #20]	@ (80024ac <HAL_RCC_GetPCLK1Freq+0x20>)
 8002498:	689b      	ldr	r3, [r3, #8]
 800249a:	0a9b      	lsrs	r3, r3, #10
 800249c:	f003 0307 	and.w	r3, r3, #7
 80024a0:	4903      	ldr	r1, [pc, #12]	@ (80024b0 <HAL_RCC_GetPCLK1Freq+0x24>)
 80024a2:	5ccb      	ldrb	r3, [r1, r3]
 80024a4:	fa22 f303 	lsr.w	r3, r2, r3
 80024a8:	4618      	mov	r0, r3
 80024aa:	bd80      	pop	{r7, pc}
 80024ac:	40023800 	.word	0x40023800
 80024b0:	0800ba38 	.word	0x0800ba38

080024b4 <HAL_RCC_GetPCLK2Freq>:
 80024b4:	b580      	push	{r7, lr}
 80024b6:	af00      	add	r7, sp, #0
 80024b8:	f7ff ffdc 	bl	8002474 <HAL_RCC_GetHCLKFreq>
 80024bc:	4602      	mov	r2, r0
 80024be:	4b05      	ldr	r3, [pc, #20]	@ (80024d4 <HAL_RCC_GetPCLK2Freq+0x20>)
 80024c0:	689b      	ldr	r3, [r3, #8]
 80024c2:	0b5b      	lsrs	r3, r3, #13
 80024c4:	f003 0307 	and.w	r3, r3, #7
 80024c8:	4903      	ldr	r1, [pc, #12]	@ (80024d8 <HAL_RCC_GetPCLK2Freq+0x24>)
 80024ca:	5ccb      	ldrb	r3, [r1, r3]
 80024cc:	fa22 f303 	lsr.w	r3, r2, r3
 80024d0:	4618      	mov	r0, r3
 80024d2:	bd80      	pop	{r7, pc}
 80024d4:	40023800 	.word	0x40023800
 80024d8:	0800ba38 	.word	0x0800ba38

080024dc <HAL_RCC_GetSysClockFreq>:
 80024dc:	e92d 4fb0 	stmdb	sp!, {r4, r5, r7, r8, r9, sl, fp, lr}
 80024e0:	b0ae      	sub	sp, #184	@ 0xb8
 80024e2:	af00      	add	r7, sp, #0
 80024e4:	2300      	movs	r3, #0
 80024e6:	f8c7 30ac 	str.w	r3, [r7, #172]	@ 0xac
 80024ea:	2300      	movs	r3, #0
 80024ec:	f8c7 30b4 	str.w	r3, [r7, #180]	@ 0xb4
 80024f0:	2300      	movs	r3, #0
 80024f2:	f8c7 30a8 	str.w	r3, [r7, #168]	@ 0xa8
 80024f6:	2300      	movs	r3, #0
 80024f8:	f8c7 30a4 	str.w	r3, [r7, #164]	@ 0xa4
 80024fc:	2300      	movs	r3, #0
 80024fe:	f8c7 30b0 	str.w	r3, [r7, #176]	@ 0xb0
 8002502:	4bcb      	ldr	r3, [pc, #812]	@ (8002830 <HAL_RCC_GetSysClockFreq+0x354>)
 8002504:	689b      	ldr	r3, [r3, #8]
 8002506:	f003 030c 	and.w	r3, r3, #12
 800250a:	2b0c      	cmp	r3, #12
 800250c:	f200 8206 	bhi.w	800291c <HAL_RCC_GetSysClockFreq+0x440>
 8002510:	a201      	add	r2, pc, #4	@ (adr r2, 8002518 <HAL_RCC_GetSysClockFreq+0x3c>)
 8002512:	f852 f023 	ldr.w	pc, [r2, r3, lsl #2]
 8002516:	bf00      	nop
 8002518:	0800254d 	.word	0x0800254d
 800251c:	0800291d 	.word	0x0800291d
 8002520:	0800291d 	.word	0x0800291d
 8002524:	0800291d 	.word	0x0800291d
 8002528:	08002555 	.word	0x08002555
 800252c:	0800291d 	.word	0x0800291d
 8002530:	0800291d 	.word	0x0800291d
 8002534:	0800291d 	.word	0x0800291d
 8002538:	0800255d 	.word	0x0800255d
 800253c:	0800291d 	.word	0x0800291d
 8002540:	0800291d 	.word	0x0800291d
 8002544:	0800291d 	.word	0x0800291d
 8002548:	0800274d 	.word	0x0800274d
 800254c:	4bb9      	ldr	r3, [pc, #740]	@ (8002834 <HAL_RCC_GetSysClockFreq+0x358>)
 800254e:	f8c7 30b0 	str.w	r3, [r7, #176]	@ 0xb0
 8002552:	e1e7      	b.n	8002924 <HAL_RCC_GetSysClockFreq+0x448>
 8002554:	4bb8      	ldr	r3, [pc, #736]	@ (8002838 <HAL_RCC_GetSysClockFreq+0x35c>)
 8002556:	f8c7 30b0 	str.w	r3, [r7, #176]	@ 0xb0
 800255a:	e1e3      	b.n	8002924 <HAL_RCC_GetSysClockFreq+0x448>
 800255c:	4bb4      	ldr	r3, [pc, #720]	@ (8002830 <HAL_RCC_GetSysClockFreq+0x354>)
 800255e:	685b      	ldr	r3, [r3, #4]
 8002560:	f003 033f 	and.w	r3, r3, #63	@ 0x3f
 8002564:	f8c7 30ac 	str.w	r3, [r7, #172]	@ 0xac
 8002568:	4bb1      	ldr	r3, [pc, #708]	@ (8002830 <HAL_RCC_GetSysClockFreq+0x354>)
 800256a:	685b      	ldr	r3, [r3, #4]
 800256c:	f403 0380 	and.w	r3, r3, #4194304	@ 0x400000
 8002570:	2b00      	cmp	r3, #0
 8002572:	d071      	beq.n	8002658 <HAL_RCC_GetSysClockFreq+0x17c>
 8002574:	4bae      	ldr	r3, [pc, #696]	@ (8002830 <HAL_RCC_GetSysClockFreq+0x354>)
 8002576:	685b      	ldr	r3, [r3, #4]
 8002578:	099b      	lsrs	r3, r3, #6
 800257a:	2200      	movs	r2, #0
 800257c:	f8c7 3098 	str.w	r3, [r7, #152]	@ 0x98
 8002580:	f8c7 209c 	str.w	r2, [r7, #156]	@ 0x9c
 8002584:	f8d7 3098 	ldr.w	r3, [r7, #152]	@ 0x98
 8002588:	f3c3 0308 	ubfx	r3, r3, #0, #9
 800258c:	f8c7 3090 	str.w	r3, [r7, #144]	@ 0x90
 8002590:	2300      	movs	r3, #0
 8002592:	f8c7 3094 	str.w	r3, [r7, #148]	@ 0x94
 8002596:	e9d7 4524 	ldrd	r4, r5, [r7, #144]	@ 0x90
 800259a:	4622      	mov	r2, r4
 800259c:	462b      	mov	r3, r5
 800259e:	f04f 0000 	mov.w	r0, #0
 80025a2:	f04f 0100 	mov.w	r1, #0
 80025a6:	0159      	lsls	r1, r3, #5
 80025a8:	ea41 61d2 	orr.w	r1, r1, r2, lsr #27
 80025ac:	0150      	lsls	r0, r2, #5
 80025ae:	4602      	mov	r2, r0
 80025b0:	460b      	mov	r3, r1
 80025b2:	4621      	mov	r1, r4
 80025b4:	1a51      	subs	r1, r2, r1
 80025b6:	6439      	str	r1, [r7, #64]	@ 0x40
 80025b8:	4629      	mov	r1, r5
 80025ba:	eb63 0301 	sbc.w	r3, r3, r1
 80025be:	647b      	str	r3, [r7, #68]	@ 0x44
 80025c0:	f04f 0200 	mov.w	r2, #0
 80025c4:	f04f 0300 	mov.w	r3, #0
 80025c8:	e9d7 8910 	ldrd	r8, r9, [r7, #64]	@ 0x40
 80025cc:	4649      	mov	r1, r9
 80025ce:	018b      	lsls	r3, r1, #6
 80025d0:	4641      	mov	r1, r8
 80025d2:	ea43 6391 	orr.w	r3, r3, r1, lsr #26
 80025d6:	4641      	mov	r1, r8
 80025d8:	018a      	lsls	r2, r1, #6
 80025da:	4641      	mov	r1, r8
 80025dc:	1a51      	subs	r1, r2, r1
 80025de:	63b9      	str	r1, [r7, #56]	@ 0x38
 80025e0:	4649      	mov	r1, r9
 80025e2:	eb63 0301 	sbc.w	r3, r3, r1
 80025e6:	63fb      	str	r3, [r7, #60]	@ 0x3c
 80025e8:	f04f 0200 	mov.w	r2, #0
 80025ec:	f04f 0300 	mov.w	r3, #0
 80025f0:	e9d7 890e 	ldrd	r8, r9, [r7, #56]	@ 0x38
 80025f4:	4649      	mov	r1, r9
 80025f6:	00cb      	lsls	r3, r1, #3
 80025f8:	4641      	mov	r1, r8
 80025fa:	ea43 7351 	orr.w	r3, r3, r1, lsr #29
 80025fe:	4641      	mov	r1, r8
 8002600:	00ca      	lsls	r2, r1, #3
 8002602:	4610      	mov	r0, r2
 8002604:	4619      	mov	r1, r3
 8002606:	4603      	mov	r3, r0
 8002608:	4622      	mov	r2, r4
 800260a:	189b      	adds	r3, r3, r2
 800260c:	633b      	str	r3, [r7, #48]	@ 0x30
 800260e:	462b      	mov	r3, r5
 8002610:	460a      	mov	r2, r1
 8002612:	eb42 0303 	adc.w	r3, r2, r3
 8002616:	637b      	str	r3, [r7, #52]	@ 0x34
 8002618:	f04f 0200 	mov.w	r2, #0
 800261c:	f04f 0300 	mov.w	r3, #0
 8002620:	e9d7 450c 	ldrd	r4, r5, [r7, #48]	@ 0x30
 8002624:	4629      	mov	r1, r5
 8002626:	024b      	lsls	r3, r1, #9
 8002628:	4621      	mov	r1, r4
 800262a:	ea43 53d1 	orr.w	r3, r3, r1, lsr #23
 800262e:	4621      	mov	r1, r4
 8002630:	024a      	lsls	r2, r1, #9
 8002632:	4610      	mov	r0, r2
 8002634:	4619      	mov	r1, r3
 8002636:	f8d7 30ac 	ldr.w	r3, [r7, #172]	@ 0xac
 800263a:	2200      	movs	r2, #0
 800263c:	f8c7 3088 	str.w	r3, [r7, #136]	@ 0x88
 8002640:	f8c7 208c 	str.w	r2, [r7, #140]	@ 0x8c
 8002644:	e9d7 2322 	ldrd	r2, r3, [r7, #136]	@ 0x88
 8002648:	f7fe fb3e 	bl	8000cc8 <__aeabi_uldivmod>
 800264c:	4602      	mov	r2, r0
 800264e:	460b      	mov	r3, r1
 8002650:	4613      	mov	r3, r2
 8002652:	f8c7 30b4 	str.w	r3, [r7, #180]	@ 0xb4
 8002656:	e067      	b.n	8002728 <HAL_RCC_GetSysClockFreq+0x24c>
 8002658:	4b75      	ldr	r3, [pc, #468]	@ (8002830 <HAL_RCC_GetSysClockFreq+0x354>)
 800265a:	685b      	ldr	r3, [r3, #4]
 800265c:	099b      	lsrs	r3, r3, #6
 800265e:	2200      	movs	r2, #0
 8002660:	f8c7 3080 	str.w	r3, [r7, #128]	@ 0x80
 8002664:	f8c7 2084 	str.w	r2, [r7, #132]	@ 0x84
 8002668:	f8d7 3080 	ldr.w	r3, [r7, #128]	@ 0x80
 800266c:	f3c3 0308 	ubfx	r3, r3, #0, #9
 8002670:	67bb      	str	r3, [r7, #120]	@ 0x78
 8002672:	2300      	movs	r3, #0
 8002674:	67fb      	str	r3, [r7, #124]	@ 0x7c
 8002676:	e9d7 451e 	ldrd	r4, r5, [r7, #120]	@ 0x78
 800267a:	4622      	mov	r2, r4
 800267c:	462b      	mov	r3, r5
 800267e:	f04f 0000 	mov.w	r0, #0
 8002682:	f04f 0100 	mov.w	r1, #0
 8002686:	0159      	lsls	r1, r3, #5
 8002688:	ea41 61d2 	orr.w	r1, r1, r2, lsr #27
 800268c:	0150      	lsls	r0, r2, #5
 800268e:	4602      	mov	r2, r0
 8002690:	460b      	mov	r3, r1
 8002692:	4621      	mov	r1, r4
 8002694:	1a51      	subs	r1, r2, r1
 8002696:	62b9      	str	r1, [r7, #40]	@ 0x28
 8002698:	4629      	mov	r1, r5
 800269a:	eb63 0301 	sbc.w	r3, r3, r1
 800269e:	62fb      	str	r3, [r7, #44]	@ 0x2c
 80026a0:	f04f 0200 	mov.w	r2, #0
 80026a4:	f04f 0300 	mov.w	r3, #0
 80026a8:	e9d7 890a 	ldrd	r8, r9, [r7, #40]	@ 0x28
 80026ac:	4649      	mov	r1, r9
 80026ae:	018b      	lsls	r3, r1, #6
 80026b0:	4641      	mov	r1, r8
 80026b2:	ea43 6391 	orr.w	r3, r3, r1, lsr #26
 80026b6:	4641      	mov	r1, r8
 80026b8:	018a      	lsls	r2, r1, #6
 80026ba:	4641      	mov	r1, r8
 80026bc:	ebb2 0a01 	subs.w	sl, r2, r1
 80026c0:	4649      	mov	r1, r9
 80026c2:	eb63 0b01 	sbc.w	fp, r3, r1
 80026c6:	f04f 0200 	mov.w	r2, #0
 80026ca:	f04f 0300 	mov.w	r3, #0
 80026ce:	ea4f 03cb 	mov.w	r3, fp, lsl #3
 80026d2:	ea43 735a 	orr.w	r3, r3, sl, lsr #29
 80026d6:	ea4f 02ca 	mov.w	r2, sl, lsl #3
 80026da:	4692      	mov	sl, r2
 80026dc:	469b      	mov	fp, r3
 80026de:	4623      	mov	r3, r4
 80026e0:	eb1a 0303 	adds.w	r3, sl, r3
 80026e4:	623b      	str	r3, [r7, #32]
 80026e6:	462b      	mov	r3, r5
 80026e8:	eb4b 0303 	adc.w	r3, fp, r3
 80026ec:	627b      	str	r3, [r7, #36]	@ 0x24
 80026ee:	f04f 0200 	mov.w	r2, #0
 80026f2:	f04f 0300 	mov.w	r3, #0
 80026f6:	e9d7 4508 	ldrd	r4, r5, [r7, #32]
 80026fa:	4629      	mov	r1, r5
 80026fc:	028b      	lsls	r3, r1, #10
 80026fe:	4621      	mov	r1, r4
 8002700:	ea43 5391 	orr.w	r3, r3, r1, lsr #22
 8002704:	4621      	mov	r1, r4
 8002706:	028a      	lsls	r2, r1, #10
 8002708:	4610      	mov	r0, r2
 800270a:	4619      	mov	r1, r3
 800270c:	f8d7 30ac 	ldr.w	r3, [r7, #172]	@ 0xac
 8002710:	2200      	movs	r2, #0
 8002712:	673b      	str	r3, [r7, #112]	@ 0x70
 8002714:	677a      	str	r2, [r7, #116]	@ 0x74
 8002716:	e9d7 231c 	ldrd	r2, r3, [r7, #112]	@ 0x70
 800271a:	f7fe fad5 	bl	8000cc8 <__aeabi_uldivmod>
 800271e:	4602      	mov	r2, r0
 8002720:	460b      	mov	r3, r1
 8002722:	4613      	mov	r3, r2
 8002724:	f8c7 30b4 	str.w	r3, [r7, #180]	@ 0xb4
 8002728:	4b41      	ldr	r3, [pc, #260]	@ (8002830 <HAL_RCC_GetSysClockFreq+0x354>)
 800272a:	685b      	ldr	r3, [r3, #4]
 800272c:	0c1b      	lsrs	r3, r3, #16
 800272e:	f003 0303 	and.w	r3, r3, #3
 8002732:	3301      	adds	r3, #1
 8002734:	005b      	lsls	r3, r3, #1
 8002736:	f8c7 30a8 	str.w	r3, [r7, #168]	@ 0xa8
 800273a:	f8d7 20b4 	ldr.w	r2, [r7, #180]	@ 0xb4
 800273e:	f8d7 30a8 	ldr.w	r3, [r7, #168]	@ 0xa8
 8002742:	fbb2 f3f3 	udiv	r3, r2, r3
 8002746:	f8c7 30b0 	str.w	r3, [r7, #176]	@ 0xb0
 800274a:	e0eb      	b.n	8002924 <HAL_RCC_GetSysClockFreq+0x448>
 800274c:	4b38      	ldr	r3, [pc, #224]	@ (8002830 <HAL_RCC_GetSysClockFreq+0x354>)
 800274e:	685b      	ldr	r3, [r3, #4]
 8002750:	f003 033f 	and.w	r3, r3, #63	@ 0x3f
 8002754:	f8c7 30ac 	str.w	r3, [r7, #172]	@ 0xac
 8002758:	4b35      	ldr	r3, [pc, #212]	@ (8002830 <HAL_RCC_GetSysClockFreq+0x354>)
 800275a:	685b      	ldr	r3, [r3, #4]
 800275c:	f403 0380 	and.w	r3, r3, #4194304	@ 0x400000
 8002760:	2b00      	cmp	r3, #0
 8002762:	d06b      	beq.n	800283c <HAL_RCC_GetSysClockFreq+0x360>
 8002764:	4b32      	ldr	r3, [pc, #200]	@ (8002830 <HAL_RCC_GetSysClockFreq+0x354>)
 8002766:	685b      	ldr	r3, [r3, #4]
 8002768:	099b      	lsrs	r3, r3, #6
 800276a:	2200      	movs	r2, #0
 800276c:	66bb      	str	r3, [r7, #104]	@ 0x68
 800276e:	66fa      	str	r2, [r7, #108]	@ 0x6c
 8002770:	6ebb      	ldr	r3, [r7, #104]	@ 0x68
 8002772:	f3c3 0308 	ubfx	r3, r3, #0, #9
 8002776:	663b      	str	r3, [r7, #96]	@ 0x60
 8002778:	2300      	movs	r3, #0
 800277a:	667b      	str	r3, [r7, #100]	@ 0x64
 800277c:	e9d7 4518 	ldrd	r4, r5, [r7, #96]	@ 0x60
 8002780:	4622      	mov	r2, r4
 8002782:	462b      	mov	r3, r5
 8002784:	f04f 0000 	mov.w	r0, #0
 8002788:	f04f 0100 	mov.w	r1, #0
 800278c:	0159      	lsls	r1, r3, #5
 800278e:	ea41 61d2 	orr.w	r1, r1, r2, lsr #27
 8002792:	0150      	lsls	r0, r2, #5
 8002794:	4602      	mov	r2, r0
 8002796:	460b      	mov	r3, r1
 8002798:	4621      	mov	r1, r4
 800279a:	1a51      	subs	r1, r2, r1
 800279c:	61b9      	str	r1, [r7, #24]
 800279e:	4629      	mov	r1, r5
 80027a0:	eb63 0301 	sbc.w	r3, r3, r1
 80027a4:	61fb      	str	r3, [r7, #28]
 80027a6:	f04f 0200 	mov.w	r2, #0
 80027aa:	f04f 0300 	mov.w	r3, #0
 80027ae:	e9d7 ab06 	ldrd	sl, fp, [r7, #24]
 80027b2:	4659      	mov	r1, fp
 80027b4:	018b      	lsls	r3, r1, #6
 80027b6:	4651      	mov	r1, sl
 80027b8:	ea43 6391 	orr.w	r3, r3, r1, lsr #26
 80027bc:	4651      	mov	r1, sl
 80027be:	018a      	lsls	r2, r1, #6
 80027c0:	4651      	mov	r1, sl
 80027c2:	ebb2 0801 	subs.w	r8, r2, r1
 80027c6:	4659      	mov	r1, fp
 80027c8:	eb63 0901 	sbc.w	r9, r3, r1
 80027cc:	f04f 0200 	mov.w	r2, #0
 80027d0:	f04f 0300 	mov.w	r3, #0
 80027d4:	ea4f 03c9 	mov.w	r3, r9, lsl #3
 80027d8:	ea43 7358 	orr.w	r3, r3, r8, lsr #29
 80027dc:	ea4f 02c8 	mov.w	r2, r8, lsl #3
 80027e0:	4690      	mov	r8, r2
 80027e2:	4699      	mov	r9, r3
 80027e4:	4623      	mov	r3, r4
 80027e6:	eb18 0303 	adds.w	r3, r8, r3
 80027ea:	613b      	str	r3, [r7, #16]
 80027ec:	462b      	mov	r3, r5
 80027ee:	eb49 0303 	adc.w	r3, r9, r3
 80027f2:	617b      	str	r3, [r7, #20]
 80027f4:	f04f 0200 	mov.w	r2, #0
 80027f8:	f04f 0300 	mov.w	r3, #0
 80027fc:	e9d7 4504 	ldrd	r4, r5, [r7, #16]
 8002800:	4629      	mov	r1, r5
 8002802:	024b      	lsls	r3, r1, #9
 8002804:	4621      	mov	r1, r4
 8002806:	ea43 53d1 	orr.w	r3, r3, r1, lsr #23
 800280a:	4621      	mov	r1, r4
 800280c:	024a      	lsls	r2, r1, #9
 800280e:	4610      	mov	r0, r2
 8002810:	4619      	mov	r1, r3
 8002812:	f8d7 30ac 	ldr.w	r3, [r7, #172]	@ 0xac
 8002816:	2200      	movs	r2, #0
 8002818:	65bb      	str	r3, [r7, #88]	@ 0x58
 800281a:	65fa      	str	r2, [r7, #92]	@ 0x5c
 800281c:	e9d7 2316 	ldrd	r2, r3, [r7, #88]	@ 0x58
 8002820:	f7fe fa52 	bl	8000cc8 <__aeabi_uldivmod>
 8002824:	4602      	mov	r2, r0
 8002826:	460b      	mov	r3, r1
 8002828:	4613      	mov	r3, r2
 800282a:	f8c7 30b4 	str.w	r3, [r7, #180]	@ 0xb4
 800282e:	e065      	b.n	80028fc <HAL_RCC_GetSysClockFreq+0x420>
 8002830:	40023800 	.word	0x40023800
 8002834:	00f42400 	.word	0x00f42400
 8002838:	007a1200 	.word	0x007a1200
 800283c:	4b3d      	ldr	r3, [pc, #244]	@ (8002934 <HAL_RCC_GetSysClockFreq+0x458>)
 800283e:	685b      	ldr	r3, [r3, #4]
 8002840:	099b      	lsrs	r3, r3, #6
 8002842:	2200      	movs	r2, #0
 8002844:	4618      	mov	r0, r3
 8002846:	4611      	mov	r1, r2
 8002848:	f3c0 0308 	ubfx	r3, r0, #0, #9
 800284c:	653b      	str	r3, [r7, #80]	@ 0x50
 800284e:	2300      	movs	r3, #0
 8002850:	657b      	str	r3, [r7, #84]	@ 0x54
 8002852:	e9d7 8914 	ldrd	r8, r9, [r7, #80]	@ 0x50
 8002856:	4642      	mov	r2, r8
 8002858:	464b      	mov	r3, r9
 800285a:	f04f 0000 	mov.w	r0, #0
 800285e:	f04f 0100 	mov.w	r1, #0
 8002862:	0159      	lsls	r1, r3, #5
 8002864:	ea41 61d2 	orr.w	r1, r1, r2, lsr #27
 8002868:	0150      	lsls	r0, r2, #5
 800286a:	4602      	mov	r2, r0
 800286c:	460b      	mov	r3, r1
 800286e:	4641      	mov	r1, r8
 8002870:	1a51      	subs	r1, r2, r1
 8002872:	60b9      	str	r1, [r7, #8]
 8002874:	4649      	mov	r1, r9
 8002876:	eb63 0301 	sbc.w	r3, r3, r1
 800287a:	60fb      	str	r3, [r7, #12]
 800287c:	f04f 0200 	mov.w	r2, #0
 8002880:	f04f 0300 	mov.w	r3, #0
 8002884:	e9d7 ab02 	ldrd	sl, fp, [r7, #8]
 8002888:	4659      	mov	r1, fp
 800288a:	018b      	lsls	r3, r1, #6
 800288c:	4651      	mov	r1, sl
 800288e:	ea43 6391 	orr.w	r3, r3, r1, lsr #26
 8002892:	4651      	mov	r1, sl
 8002894:	018a      	lsls	r2, r1, #6
 8002896:	4651      	mov	r1, sl
 8002898:	1a54      	subs	r4, r2, r1
 800289a:	4659      	mov	r1, fp
 800289c:	eb63 0501 	sbc.w	r5, r3, r1
 80028a0:	f04f 0200 	mov.w	r2, #0
 80028a4:	f04f 0300 	mov.w	r3, #0
 80028a8:	00eb      	lsls	r3, r5, #3
 80028aa:	ea43 7354 	orr.w	r3, r3, r4, lsr #29
 80028ae:	00e2      	lsls	r2, r4, #3
 80028b0:	4614      	mov	r4, r2
 80028b2:	461d      	mov	r5, r3
 80028b4:	4643      	mov	r3, r8
 80028b6:	18e3      	adds	r3, r4, r3
 80028b8:	603b      	str	r3, [r7, #0]
 80028ba:	464b      	mov	r3, r9
 80028bc:	eb45 0303 	adc.w	r3, r5, r3
 80028c0:	607b      	str	r3, [r7, #4]
 80028c2:	f04f 0200 	mov.w	r2, #0
 80028c6:	f04f 0300 	mov.w	r3, #0
 80028ca:	e9d7 4500 	ldrd	r4, r5, [r7]
 80028ce:	4629      	mov	r1, r5
 80028d0:	028b      	lsls	r3, r1, #10
 80028d2:	4621      	mov	r1, r4
 80028d4:	ea43 5391 	orr.w	r3, r3, r1, lsr #22
 80028d8:	4621      	mov	r1, r4
 80028da:	028a      	lsls	r2, r1, #10
 80028dc:	4610      	mov	r0, r2
 80028de:	4619      	mov	r1, r3
 80028e0:	f8d7 30ac 	ldr.w	r3, [r7, #172]	@ 0xac
 80028e4:	2200      	movs	r2, #0
 80028e6:	64bb      	str	r3, [r7, #72]	@ 0x48
 80028e8:	64fa      	str	r2, [r7, #76]	@ 0x4c
 80028ea:	e9d7 2312 	ldrd	r2, r3, [r7, #72]	@ 0x48
 80028ee:	f7fe f9eb 	bl	8000cc8 <__aeabi_uldivmod>
 80028f2:	4602      	mov	r2, r0
 80028f4:	460b      	mov	r3, r1
 80028f6:	4613      	mov	r3, r2
 80028f8:	f8c7 30b4 	str.w	r3, [r7, #180]	@ 0xb4
 80028fc:	4b0d      	ldr	r3, [pc, #52]	@ (8002934 <HAL_RCC_GetSysClockFreq+0x458>)
 80028fe:	685b      	ldr	r3, [r3, #4]
 8002900:	0f1b      	lsrs	r3, r3, #28
 8002902:	f003 0307 	and.w	r3, r3, #7
 8002906:	f8c7 30a4 	str.w	r3, [r7, #164]	@ 0xa4
 800290a:	f8d7 20b4 	ldr.w	r2, [r7, #180]	@ 0xb4
 800290e:	f8d7 30a4 	ldr.w	r3, [r7, #164]	@ 0xa4
 8002912:	fbb2 f3f3 	udiv	r3, r2, r3
 8002916:	f8c7 30b0 	str.w	r3, [r7, #176]	@ 0xb0
 800291a:	e003      	b.n	8002924 <HAL_RCC_GetSysClockFreq+0x448>
 800291c:	4b06      	ldr	r3, [pc, #24]	@ (8002938 <HAL_RCC_GetSysClockFreq+0x45c>)
 800291e:	f8c7 30b0 	str.w	r3, [r7, #176]	@ 0xb0
 8002922:	bf00      	nop
 8002924:	f8d7 30b0 	ldr.w	r3, [r7, #176]	@ 0xb0
 8002928:	4618      	mov	r0, r3
 800292a:	37b8      	adds	r7, #184	@ 0xb8
 800292c:	46bd      	mov	sp, r7
 800292e:	e8bd 8fb0 	ldmia.w	sp!, {r4, r5, r7, r8, r9, sl, fp, pc}
 8002932:	bf00      	nop
 8002934:	40023800 	.word	0x40023800
 8002938:	00f42400 	.word	0x00f42400

0800293c <HAL_RCC_OscConfig>:
 800293c:	b580      	push	{r7, lr}
 800293e:	b086      	sub	sp, #24
 8002940:	af00      	add	r7, sp, #0
 8002942:	6078      	str	r0, [r7, #4]
 8002944:	687b      	ldr	r3, [r7, #4]
 8002946:	2b00      	cmp	r3, #0
 8002948:	d101      	bne.n	800294e <HAL_RCC_OscConfig+0x12>
 800294a:	2301      	movs	r3, #1
 800294c:	e28d      	b.n	8002e6a <HAL_RCC_OscConfig+0x52e>
 800294e:	687b      	ldr	r3, [r7, #4]
 8002950:	681b      	ldr	r3, [r3, #0]
 8002952:	f003 0301 	and.w	r3, r3, #1
 8002956:	2b00      	cmp	r3, #0
 8002958:	f000 8083 	beq.w	8002a62 <HAL_RCC_OscConfig+0x126>
 800295c:	4b94      	ldr	r3, [pc, #592]	@ (8002bb0 <HAL_RCC_OscConfig+0x274>)
 800295e:	689b      	ldr	r3, [r3, #8]
 8002960:	f003 030c 	and.w	r3, r3, #12
 8002964:	2b04      	cmp	r3, #4
 8002966:	d019      	beq.n	800299c <HAL_RCC_OscConfig+0x60>
 8002968:	4b91      	ldr	r3, [pc, #580]	@ (8002bb0 <HAL_RCC_OscConfig+0x274>)
 800296a:	689b      	ldr	r3, [r3, #8]
 800296c:	f003 030c 	and.w	r3, r3, #12
 8002970:	2b08      	cmp	r3, #8
 8002972:	d106      	bne.n	8002982 <HAL_RCC_OscConfig+0x46>
 8002974:	4b8e      	ldr	r3, [pc, #568]	@ (8002bb0 <HAL_RCC_OscConfig+0x274>)
 8002976:	685b      	ldr	r3, [r3, #4]
 8002978:	f403 0380 	and.w	r3, r3, #4194304	@ 0x400000
 800297c:	f5b3 0f80 	cmp.w	r3, #4194304	@ 0x400000
 8002980:	d00c      	beq.n	800299c <HAL_RCC_OscConfig+0x60>
 8002982:	4b8b      	ldr	r3, [pc, #556]	@ (8002bb0 <HAL_RCC_OscConfig+0x274>)
 8002984:	689b      	ldr	r3, [r3, #8]
 8002986:	f003 030c 	and.w	r3, r3, #12
 800298a:	2b0c      	cmp	r3, #12
 800298c:	d112      	bne.n	80029b4 <HAL_RCC_OscConfig+0x78>
 800298e:	4b88      	ldr	r3, [pc, #544]	@ (8002bb0 <HAL_RCC_OscConfig+0x274>)
 8002990:	685b      	ldr	r3, [r3, #4]
 8002992:	f403 0380 	and.w	r3, r3, #4194304	@ 0x400000
 8002996:	f5b3 0f80 	cmp.w	r3, #4194304	@ 0x400000
 800299a:	d10b      	bne.n	80029b4 <HAL_RCC_OscConfig+0x78>
 800299c:	4b84      	ldr	r3, [pc, #528]	@ (8002bb0 <HAL_RCC_OscConfig+0x274>)
 800299e:	681b      	ldr	r3, [r3, #0]
 80029a0:	f403 3300 	and.w	r3, r3, #131072	@ 0x20000
 80029a4:	2b00      	cmp	r3, #0
 80029a6:	d05b      	beq.n	8002a60 <HAL_RCC_OscConfig+0x124>
 80029a8:	687b      	ldr	r3, [r7, #4]
 80029aa:	685b      	ldr	r3, [r3, #4]
 80029ac:	2b00      	cmp	r3, #0
 80029ae:	d157      	bne.n	8002a60 <HAL_RCC_OscConfig+0x124>
 80029b0:	2301      	movs	r3, #1
 80029b2:	e25a      	b.n	8002e6a <HAL_RCC_OscConfig+0x52e>
 80029b4:	687b      	ldr	r3, [r7, #4]
 80029b6:	685b      	ldr	r3, [r3, #4]
 80029b8:	f5b3 3f80 	cmp.w	r3, #65536	@ 0x10000
 80029bc:	d106      	bne.n	80029cc <HAL_RCC_OscConfig+0x90>
 80029be:	4b7c      	ldr	r3, [pc, #496]	@ (8002bb0 <HAL_RCC_OscConfig+0x274>)
 80029c0:	681b      	ldr	r3, [r3, #0]
 80029c2:	4a7b      	ldr	r2, [pc, #492]	@ (8002bb0 <HAL_RCC_OscConfig+0x274>)
 80029c4:	f443 3380 	orr.w	r3, r3, #65536	@ 0x10000
 80029c8:	6013      	str	r3, [r2, #0]
 80029ca:	e01d      	b.n	8002a08 <HAL_RCC_OscConfig+0xcc>
 80029cc:	687b      	ldr	r3, [r7, #4]
 80029ce:	685b      	ldr	r3, [r3, #4]
 80029d0:	f5b3 2fa0 	cmp.w	r3, #327680	@ 0x50000
 80029d4:	d10c      	bne.n	80029f0 <HAL_RCC_OscConfig+0xb4>
 80029d6:	4b76      	ldr	r3, [pc, #472]	@ (8002bb0 <HAL_RCC_OscConfig+0x274>)
 80029d8:	681b      	ldr	r3, [r3, #0]
 80029da:	4a75      	ldr	r2, [pc, #468]	@ (8002bb0 <HAL_RCC_OscConfig+0x274>)
 80029dc:	f443 2380 	orr.w	r3, r3, #262144	@ 0x40000
 80029e0:	6013      	str	r3, [r2, #0]
 80029e2:	4b73      	ldr	r3, [pc, #460]	@ (8002bb0 <HAL_RCC_OscConfig+0x274>)
 80029e4:	681b      	ldr	r3, [r3, #0]
 80029e6:	4a72      	ldr	r2, [pc, #456]	@ (8002bb0 <HAL_RCC_OscConfig+0x274>)
 80029e8:	f443 3380 	orr.w	r3, r3, #65536	@ 0x10000
 80029ec:	6013      	str	r3, [r2, #0]
 80029ee:	e00b      	b.n	8002a08 <HAL_RCC_OscConfig+0xcc>
 80029f0:	4b6f      	ldr	r3, [pc, #444]	@ (8002bb0 <HAL_RCC_OscConfig+0x274>)
 80029f2:	681b      	ldr	r3, [r3, #0]
 80029f4:	4a6e      	ldr	r2, [pc, #440]	@ (8002bb0 <HAL_RCC_OscConfig+0x274>)
 80029f6:	f423 3380 	bic.w	r3, r3, #65536	@ 0x10000
 80029fa:	6013      	str	r3, [r2, #0]
 80029fc:	4b6c      	ldr	r3, [pc, #432]	@ (8002bb0 <HAL_RCC_OscConfig+0x274>)
 80029fe:	681b      	ldr	r3, [r3, #0]
 8002a00:	4a6b      	ldr	r2, [pc, #428]	@ (8002bb0 <HAL_RCC_OscConfig+0x274>)
 8002a02:	f423 2380 	bic.w	r3, r3, #262144	@ 0x40000
 8002a06:	6013      	str	r3, [r2, #0]
 8002a08:	687b      	ldr	r3, [r7, #4]
 8002a0a:	685b      	ldr	r3, [r3, #4]
 8002a0c:	2b00      	cmp	r3, #0
 8002a0e:	d013      	beq.n	8002a38 <HAL_RCC_OscConfig+0xfc>
 8002a10:	f7ff f8ae 	bl	8001b70 <HAL_GetTick>
 8002a14:	6138      	str	r0, [r7, #16]
 8002a16:	e008      	b.n	8002a2a <HAL_RCC_OscConfig+0xee>
 8002a18:	f7ff f8aa 	bl	8001b70 <HAL_GetTick>
 8002a1c:	4602      	mov	r2, r0
 8002a1e:	693b      	ldr	r3, [r7, #16]
 8002a20:	1ad3      	subs	r3, r2, r3
 8002a22:	2b64      	cmp	r3, #100	@ 0x64
 8002a24:	d901      	bls.n	8002a2a <HAL_RCC_OscConfig+0xee>
 8002a26:	2303      	movs	r3, #3
 8002a28:	e21f      	b.n	8002e6a <HAL_RCC_OscConfig+0x52e>
 8002a2a:	4b61      	ldr	r3, [pc, #388]	@ (8002bb0 <HAL_RCC_OscConfig+0x274>)
 8002a2c:	681b      	ldr	r3, [r3, #0]
 8002a2e:	f403 3300 	and.w	r3, r3, #131072	@ 0x20000
 8002a32:	2b00      	cmp	r3, #0
 8002a34:	d0f0      	beq.n	8002a18 <HAL_RCC_OscConfig+0xdc>
 8002a36:	e014      	b.n	8002a62 <HAL_RCC_OscConfig+0x126>
 8002a38:	f7ff f89a 	bl	8001b70 <HAL_GetTick>
 8002a3c:	6138      	str	r0, [r7, #16]
 8002a3e:	e008      	b.n	8002a52 <HAL_RCC_OscConfig+0x116>
 8002a40:	f7ff f896 	bl	8001b70 <HAL_GetTick>
 8002a44:	4602      	mov	r2, r0
 8002a46:	693b      	ldr	r3, [r7, #16]
 8002a48:	1ad3      	subs	r3, r2, r3
 8002a4a:	2b64      	cmp	r3, #100	@ 0x64
 8002a4c:	d901      	bls.n	8002a52 <HAL_RCC_OscConfig+0x116>
 8002a4e:	2303      	movs	r3, #3
 8002a50:	e20b      	b.n	8002e6a <HAL_RCC_OscConfig+0x52e>
 8002a52:	4b57      	ldr	r3, [pc, #348]	@ (8002bb0 <HAL_RCC_OscConfig+0x274>)
 8002a54:	681b      	ldr	r3, [r3, #0]
 8002a56:	f403 3300 	and.w	r3, r3, #131072	@ 0x20000
 8002a5a:	2b00      	cmp	r3, #0
 8002a5c:	d1f0      	bne.n	8002a40 <HAL_RCC_OscConfig+0x104>
 8002a5e:	e000      	b.n	8002a62 <HAL_RCC_OscConfig+0x126>
 8002a60:	bf00      	nop
 8002a62:	687b      	ldr	r3, [r7, #4]
 8002a64:	681b      	ldr	r3, [r3, #0]
 8002a66:	f003 0302 	and.w	r3, r3, #2
 8002a6a:	2b00      	cmp	r3, #0
 8002a6c:	d06f      	beq.n	8002b4e <HAL_RCC_OscConfig+0x212>
 8002a6e:	4b50      	ldr	r3, [pc, #320]	@ (8002bb0 <HAL_RCC_OscConfig+0x274>)
 8002a70:	689b      	ldr	r3, [r3, #8]
 8002a72:	f003 030c 	and.w	r3, r3, #12
 8002a76:	2b00      	cmp	r3, #0
 8002a78:	d017      	beq.n	8002aaa <HAL_RCC_OscConfig+0x16e>
 8002a7a:	4b4d      	ldr	r3, [pc, #308]	@ (8002bb0 <HAL_RCC_OscConfig+0x274>)
 8002a7c:	689b      	ldr	r3, [r3, #8]
 8002a7e:	f003 030c 	and.w	r3, r3, #12
 8002a82:	2b08      	cmp	r3, #8
 8002a84:	d105      	bne.n	8002a92 <HAL_RCC_OscConfig+0x156>
 8002a86:	4b4a      	ldr	r3, [pc, #296]	@ (8002bb0 <HAL_RCC_OscConfig+0x274>)
 8002a88:	685b      	ldr	r3, [r3, #4]
 8002a8a:	f403 0380 	and.w	r3, r3, #4194304	@ 0x400000
 8002a8e:	2b00      	cmp	r3, #0
 8002a90:	d00b      	beq.n	8002aaa <HAL_RCC_OscConfig+0x16e>
 8002a92:	4b47      	ldr	r3, [pc, #284]	@ (8002bb0 <HAL_RCC_OscConfig+0x274>)
 8002a94:	689b      	ldr	r3, [r3, #8]
 8002a96:	f003 030c 	and.w	r3, r3, #12
 8002a9a:	2b0c      	cmp	r3, #12
 8002a9c:	d11c      	bne.n	8002ad8 <HAL_RCC_OscConfig+0x19c>
 8002a9e:	4b44      	ldr	r3, [pc, #272]	@ (8002bb0 <HAL_RCC_OscConfig+0x274>)
 8002aa0:	685b      	ldr	r3, [r3, #4]
 8002aa2:	f403 0380 	and.w	r3, r3, #4194304	@ 0x400000
 8002aa6:	2b00      	cmp	r3, #0
 8002aa8:	d116      	bne.n	8002ad8 <HAL_RCC_OscConfig+0x19c>
 8002aaa:	4b41      	ldr	r3, [pc, #260]	@ (8002bb0 <HAL_RCC_OscConfig+0x274>)
 8002aac:	681b      	ldr	r3, [r3, #0]
 8002aae:	f003 0302 	and.w	r3, r3, #2
 8002ab2:	2b00      	cmp	r3, #0
 8002ab4:	d005      	beq.n	8002ac2 <HAL_RCC_OscConfig+0x186>
 8002ab6:	687b      	ldr	r3, [r7, #4]
 8002ab8:	68db      	ldr	r3, [r3, #12]
 8002aba:	2b01      	cmp	r3, #1
 8002abc:	d001      	beq.n	8002ac2 <HAL_RCC_OscConfig+0x186>
 8002abe:	2301      	movs	r3, #1
 8002ac0:	e1d3      	b.n	8002e6a <HAL_RCC_OscConfig+0x52e>
 8002ac2:	4b3b      	ldr	r3, [pc, #236]	@ (8002bb0 <HAL_RCC_OscConfig+0x274>)
 8002ac4:	681b      	ldr	r3, [r3, #0]
 8002ac6:	f023 02f8 	bic.w	r2, r3, #248	@ 0xf8
 8002aca:	687b      	ldr	r3, [r7, #4]
 8002acc:	691b      	ldr	r3, [r3, #16]
 8002ace:	00db      	lsls	r3, r3, #3
 8002ad0:	4937      	ldr	r1, [pc, #220]	@ (8002bb0 <HAL_RCC_OscConfig+0x274>)
 8002ad2:	4313      	orrs	r3, r2
 8002ad4:	600b      	str	r3, [r1, #0]
 8002ad6:	e03a      	b.n	8002b4e <HAL_RCC_OscConfig+0x212>
 8002ad8:	687b      	ldr	r3, [r7, #4]
 8002ada:	68db      	ldr	r3, [r3, #12]
 8002adc:	2b00      	cmp	r3, #0
 8002ade:	d020      	beq.n	8002b22 <HAL_RCC_OscConfig+0x1e6>
 8002ae0:	4b34      	ldr	r3, [pc, #208]	@ (8002bb4 <HAL_RCC_OscConfig+0x278>)
 8002ae2:	2201      	movs	r2, #1
 8002ae4:	601a      	str	r2, [r3, #0]
 8002ae6:	f7ff f843 	bl	8001b70 <HAL_GetTick>
 8002aea:	6138      	str	r0, [r7, #16]
 8002aec:	e008      	b.n	8002b00 <HAL_RCC_OscConfig+0x1c4>
 8002aee:	f7ff f83f 	bl	8001b70 <HAL_GetTick>
 8002af2:	4602      	mov	r2, r0
 8002af4:	693b      	ldr	r3, [r7, #16]
 8002af6:	1ad3      	subs	r3, r2, r3
 8002af8:	2b02      	cmp	r3, #2
 8002afa:	d901      	bls.n	8002b00 <HAL_RCC_OscConfig+0x1c4>
 8002afc:	2303      	movs	r3, #3
 8002afe:	e1b4      	b.n	8002e6a <HAL_RCC_OscConfig+0x52e>
 8002b00:	4b2b      	ldr	r3, [pc, #172]	@ (8002bb0 <HAL_RCC_OscConfig+0x274>)
 8002b02:	681b      	ldr	r3, [r3, #0]
 8002b04:	f003 0302 	and.w	r3, r3, #2
 8002b08:	2b00      	cmp	r3, #0
 8002b0a:	d0f0      	beq.n	8002aee <HAL_RCC_OscConfig+0x1b2>
 8002b0c:	4b28      	ldr	r3, [pc, #160]	@ (8002bb0 <HAL_RCC_OscConfig+0x274>)
 8002b0e:	681b      	ldr	r3, [r3, #0]
 8002b10:	f023 02f8 	bic.w	r2, r3, #248	@ 0xf8
 8002b14:	687b      	ldr	r3, [r7, #4]
 8002b16:	691b      	ldr	r3, [r3, #16]
 8002b18:	00db      	lsls	r3, r3, #3
 8002b1a:	4925      	ldr	r1, [pc, #148]	@ (8002bb0 <HAL_RCC_OscConfig+0x274>)
 8002b1c:	4313      	orrs	r3, r2
 8002b1e:	600b      	str	r3, [r1, #0]
 8002b20:	e015      	b.n	8002b4e <HAL_RCC_OscConfig+0x212>
 8002b22:	4b24      	ldr	r3, [pc, #144]	@ (8002bb4 <HAL_RCC_OscConfig+0x278>)
 8002b24:	2200      	movs	r2, #0
 8002b26:	601a      	str	r2, [r3, #0]
 8002b28:	f7ff f822 	bl	8001b70 <HAL_GetTick>
 8002b2c:	6138      	str	r0, [r7, #16]
 8002b2e:	e008      	b.n	8002b42 <HAL_RCC_OscConfig+0x206>
 8002b30:	f7ff f81e 	bl	8001b70 <HAL_GetTick>
 8002b34:	4602      	mov	r2, r0
 8002b36:	693b      	ldr	r3, [r7, #16]
 8002b38:	1ad3      	subs	r3, r2, r3
 8002b3a:	2b02      	cmp	r3, #2
 8002b3c:	d901      	bls.n	8002b42 <HAL_RCC_OscConfig+0x206>
 8002b3e:	2303      	movs	r3, #3
 8002b40:	e193      	b.n	8002e6a <HAL_RCC_OscConfig+0x52e>
 8002b42:	4b1b      	ldr	r3, [pc, #108]	@ (8002bb0 <HAL_RCC_OscConfig+0x274>)
 8002b44:	681b      	ldr	r3, [r3, #0]
 8002b46:	f003 0302 	and.w	r3, r3, #2
 8002b4a:	2b00      	cmp	r3, #0
 8002b4c:	d1f0      	bne.n	8002b30 <HAL_RCC_OscConfig+0x1f4>
 8002b4e:	687b      	ldr	r3, [r7, #4]
 8002b50:	681b      	ldr	r3, [r3, #0]
 8002b52:	f003 0308 	and.w	r3, r3, #8
 8002b56:	2b00      	cmp	r3, #0
 8002b58:	d036      	beq.n	8002bc8 <HAL_RCC_OscConfig+0x28c>
 8002b5a:	687b      	ldr	r3, [r7, #4]
 8002b5c:	695b      	ldr	r3, [r3, #20]
 8002b5e:	2b00      	cmp	r3, #0
 8002b60:	d016      	beq.n	8002b90 <HAL_RCC_OscConfig+0x254>
 8002b62:	4b15      	ldr	r3, [pc, #84]	@ (8002bb8 <HAL_RCC_OscConfig+0x27c>)
 8002b64:	2201      	movs	r2, #1
 8002b66:	601a      	str	r2, [r3, #0]
 8002b68:	f7ff f802 	bl	8001b70 <HAL_GetTick>
 8002b6c:	6138      	str	r0, [r7, #16]
 8002b6e:	e008      	b.n	8002b82 <HAL_RCC_OscConfig+0x246>
 8002b70:	f7fe fffe 	bl	8001b70 <HAL_GetTick>
 8002b74:	4602      	mov	r2, r0
 8002b76:	693b      	ldr	r3, [r7, #16]
 8002b78:	1ad3      	subs	r3, r2, r3
 8002b7a:	2b02      	cmp	r3, #2
 8002b7c:	d901      	bls.n	8002b82 <HAL_RCC_OscConfig+0x246>
 8002b7e:	2303      	movs	r3, #3
 8002b80:	e173      	b.n	8002e6a <HAL_RCC_OscConfig+0x52e>
 8002b82:	4b0b      	ldr	r3, [pc, #44]	@ (8002bb0 <HAL_RCC_OscConfig+0x274>)
 8002b84:	6f5b      	ldr	r3, [r3, #116]	@ 0x74
 8002b86:	f003 0302 	and.w	r3, r3, #2
 8002b8a:	2b00      	cmp	r3, #0
 8002b8c:	d0f0      	beq.n	8002b70 <HAL_RCC_OscConfig+0x234>
 8002b8e:	e01b      	b.n	8002bc8 <HAL_RCC_OscConfig+0x28c>
 8002b90:	4b09      	ldr	r3, [pc, #36]	@ (8002bb8 <HAL_RCC_OscConfig+0x27c>)
 8002b92:	2200      	movs	r2, #0
 8002b94:	601a      	str	r2, [r3, #0]
 8002b96:	f7fe ffeb 	bl	8001b70 <HAL_GetTick>
 8002b9a:	6138      	str	r0, [r7, #16]
 8002b9c:	e00e      	b.n	8002bbc <HAL_RCC_OscConfig+0x280>
 8002b9e:	f7fe ffe7 	bl	8001b70 <HAL_GetTick>
 8002ba2:	4602      	mov	r2, r0
 8002ba4:	693b      	ldr	r3, [r7, #16]
 8002ba6:	1ad3      	subs	r3, r2, r3
 8002ba8:	2b02      	cmp	r3, #2
 8002baa:	d907      	bls.n	8002bbc <HAL_RCC_OscConfig+0x280>
 8002bac:	2303      	movs	r3, #3
 8002bae:	e15c      	b.n	8002e6a <HAL_RCC_OscConfig+0x52e>
 8002bb0:	40023800 	.word	0x40023800
 8002bb4:	42470000 	.word	0x42470000
 8002bb8:	42470e80 	.word	0x42470e80
 8002bbc:	4b8a      	ldr	r3, [pc, #552]	@ (8002de8 <HAL_RCC_OscConfig+0x4ac>)
 8002bbe:	6f5b      	ldr	r3, [r3, #116]	@ 0x74
 8002bc0:	f003 0302 	and.w	r3, r3, #2
 8002bc4:	2b00      	cmp	r3, #0
 8002bc6:	d1ea      	bne.n	8002b9e <HAL_RCC_OscConfig+0x262>
 8002bc8:	687b      	ldr	r3, [r7, #4]
 8002bca:	681b      	ldr	r3, [r3, #0]
 8002bcc:	f003 0304 	and.w	r3, r3, #4
 8002bd0:	2b00      	cmp	r3, #0
 8002bd2:	f000 8097 	beq.w	8002d04 <HAL_RCC_OscConfig+0x3c8>
 8002bd6:	2300      	movs	r3, #0
 8002bd8:	75fb      	strb	r3, [r7, #23]
 8002bda:	4b83      	ldr	r3, [pc, #524]	@ (8002de8 <HAL_RCC_OscConfig+0x4ac>)
 8002bdc:	6c1b      	ldr	r3, [r3, #64]	@ 0x40
 8002bde:	f003 5380 	and.w	r3, r3, #268435456	@ 0x10000000
 8002be2:	2b00      	cmp	r3, #0
 8002be4:	d10f      	bne.n	8002c06 <HAL_RCC_OscConfig+0x2ca>
 8002be6:	2300      	movs	r3, #0
 8002be8:	60bb      	str	r3, [r7, #8]
 8002bea:	4b7f      	ldr	r3, [pc, #508]	@ (8002de8 <HAL_RCC_OscConfig+0x4ac>)
 8002bec:	6c1b      	ldr	r3, [r3, #64]	@ 0x40
 8002bee:	4a7e      	ldr	r2, [pc, #504]	@ (8002de8 <HAL_RCC_OscConfig+0x4ac>)
 8002bf0:	f043 5380 	orr.w	r3, r3, #268435456	@ 0x10000000
 8002bf4:	6413      	str	r3, [r2, #64]	@ 0x40
 8002bf6:	4b7c      	ldr	r3, [pc, #496]	@ (8002de8 <HAL_RCC_OscConfig+0x4ac>)
 8002bf8:	6c1b      	ldr	r3, [r3, #64]	@ 0x40
 8002bfa:	f003 5380 	and.w	r3, r3, #268435456	@ 0x10000000
 8002bfe:	60bb      	str	r3, [r7, #8]
 8002c00:	68bb      	ldr	r3, [r7, #8]
 8002c02:	2301      	movs	r3, #1
 8002c04:	75fb      	strb	r3, [r7, #23]
 8002c06:	4b79      	ldr	r3, [pc, #484]	@ (8002dec <HAL_RCC_OscConfig+0x4b0>)
 8002c08:	681b      	ldr	r3, [r3, #0]
 8002c0a:	f403 7380 	and.w	r3, r3, #256	@ 0x100
 8002c0e:	2b00      	cmp	r3, #0
 8002c10:	d118      	bne.n	8002c44 <HAL_RCC_OscConfig+0x308>
 8002c12:	4b76      	ldr	r3, [pc, #472]	@ (8002dec <HAL_RCC_OscConfig+0x4b0>)
 8002c14:	681b      	ldr	r3, [r3, #0]
 8002c16:	4a75      	ldr	r2, [pc, #468]	@ (8002dec <HAL_RCC_OscConfig+0x4b0>)
 8002c18:	f443 7380 	orr.w	r3, r3, #256	@ 0x100
 8002c1c:	6013      	str	r3, [r2, #0]
 8002c1e:	f7fe ffa7 	bl	8001b70 <HAL_GetTick>
 8002c22:	6138      	str	r0, [r7, #16]
 8002c24:	e008      	b.n	8002c38 <HAL_RCC_OscConfig+0x2fc>
 8002c26:	f7fe ffa3 	bl	8001b70 <HAL_GetTick>
 8002c2a:	4602      	mov	r2, r0
 8002c2c:	693b      	ldr	r3, [r7, #16]
 8002c2e:	1ad3      	subs	r3, r2, r3
 8002c30:	2b02      	cmp	r3, #2
 8002c32:	d901      	bls.n	8002c38 <HAL_RCC_OscConfig+0x2fc>
 8002c34:	2303      	movs	r3, #3
 8002c36:	e118      	b.n	8002e6a <HAL_RCC_OscConfig+0x52e>
 8002c38:	4b6c      	ldr	r3, [pc, #432]	@ (8002dec <HAL_RCC_OscConfig+0x4b0>)
 8002c3a:	681b      	ldr	r3, [r3, #0]
 8002c3c:	f403 7380 	and.w	r3, r3, #256	@ 0x100
 8002c40:	2b00      	cmp	r3, #0
 8002c42:	d0f0      	beq.n	8002c26 <HAL_RCC_OscConfig+0x2ea>
 8002c44:	687b      	ldr	r3, [r7, #4]
 8002c46:	689b      	ldr	r3, [r3, #8]
 8002c48:	2b01      	cmp	r3, #1
 8002c4a:	d106      	bne.n	8002c5a <HAL_RCC_OscConfig+0x31e>
 8002c4c:	4b66      	ldr	r3, [pc, #408]	@ (8002de8 <HAL_RCC_OscConfig+0x4ac>)
 8002c4e:	6f1b      	ldr	r3, [r3, #112]	@ 0x70
 8002c50:	4a65      	ldr	r2, [pc, #404]	@ (8002de8 <HAL_RCC_OscConfig+0x4ac>)
 8002c52:	f043 0301 	orr.w	r3, r3, #1
 8002c56:	6713      	str	r3, [r2, #112]	@ 0x70
 8002c58:	e01c      	b.n	8002c94 <HAL_RCC_OscConfig+0x358>
 8002c5a:	687b      	ldr	r3, [r7, #4]
 8002c5c:	689b      	ldr	r3, [r3, #8]
 8002c5e:	2b05      	cmp	r3, #5
 8002c60:	d10c      	bne.n	8002c7c <HAL_RCC_OscConfig+0x340>
 8002c62:	4b61      	ldr	r3, [pc, #388]	@ (8002de8 <HAL_RCC_OscConfig+0x4ac>)
 8002c64:	6f1b      	ldr	r3, [r3, #112]	@ 0x70
 8002c66:	4a60      	ldr	r2, [pc, #384]	@ (8002de8 <HAL_RCC_OscConfig+0x4ac>)
 8002c68:	f043 0304 	orr.w	r3, r3, #4
 8002c6c:	6713      	str	r3, [r2, #112]	@ 0x70
 8002c6e:	4b5e      	ldr	r3, [pc, #376]	@ (8002de8 <HAL_RCC_OscConfig+0x4ac>)
 8002c70:	6f1b      	ldr	r3, [r3, #112]	@ 0x70
 8002c72:	4a5d      	ldr	r2, [pc, #372]	@ (8002de8 <HAL_RCC_OscConfig+0x4ac>)
 8002c74:	f043 0301 	orr.w	r3, r3, #1
 8002c78:	6713      	str	r3, [r2, #112]	@ 0x70
 8002c7a:	e00b      	b.n	8002c94 <HAL_RCC_OscConfig+0x358>
 8002c7c:	4b5a      	ldr	r3, [pc, #360]	@ (8002de8 <HAL_RCC_OscConfig+0x4ac>)
 8002c7e:	6f1b      	ldr	r3, [r3, #112]	@ 0x70
 8002c80:	4a59      	ldr	r2, [pc, #356]	@ (8002de8 <HAL_RCC_OscConfig+0x4ac>)
 8002c82:	f023 0301 	bic.w	r3, r3, #1
 8002c86:	6713      	str	r3, [r2, #112]	@ 0x70
 8002c88:	4b57      	ldr	r3, [pc, #348]	@ (8002de8 <HAL_RCC_OscConfig+0x4ac>)
 8002c8a:	6f1b      	ldr	r3, [r3, #112]	@ 0x70
 8002c8c:	4a56      	ldr	r2, [pc, #344]	@ (8002de8 <HAL_RCC_OscConfig+0x4ac>)
 8002c8e:	f023 0304 	bic.w	r3, r3, #4
 8002c92:	6713      	str	r3, [r2, #112]	@ 0x70
 8002c94:	687b      	ldr	r3, [r7, #4]
 8002c96:	689b      	ldr	r3, [r3, #8]
 8002c98:	2b00      	cmp	r3, #0
 8002c9a:	d015      	beq.n	8002cc8 <HAL_RCC_OscConfig+0x38c>
 8002c9c:	f7fe ff68 	bl	8001b70 <HAL_GetTick>
 8002ca0:	6138      	str	r0, [r7, #16]
 8002ca2:	e00a      	b.n	8002cba <HAL_RCC_OscConfig+0x37e>
 8002ca4:	f7fe ff64 	bl	8001b70 <HAL_GetTick>
 8002ca8:	4602      	mov	r2, r0
 8002caa:	693b      	ldr	r3, [r7, #16]
 8002cac:	1ad3      	subs	r3, r2, r3
 8002cae:	f241 3288 	movw	r2, #5000	@ 0x1388
 8002cb2:	4293      	cmp	r3, r2
 8002cb4:	d901      	bls.n	8002cba <HAL_RCC_OscConfig+0x37e>
 8002cb6:	2303      	movs	r3, #3
 8002cb8:	e0d7      	b.n	8002e6a <HAL_RCC_OscConfig+0x52e>
 8002cba:	4b4b      	ldr	r3, [pc, #300]	@ (8002de8 <HAL_RCC_OscConfig+0x4ac>)
 8002cbc:	6f1b      	ldr	r3, [r3, #112]	@ 0x70
 8002cbe:	f003 0302 	and.w	r3, r3, #2
 8002cc2:	2b00      	cmp	r3, #0
 8002cc4:	d0ee      	beq.n	8002ca4 <HAL_RCC_OscConfig+0x368>
 8002cc6:	e014      	b.n	8002cf2 <HAL_RCC_OscConfig+0x3b6>
 8002cc8:	f7fe ff52 	bl	8001b70 <HAL_GetTick>
 8002ccc:	6138      	str	r0, [r7, #16]
 8002cce:	e00a      	b.n	8002ce6 <HAL_RCC_OscConfig+0x3aa>
 8002cd0:	f7fe ff4e 	bl	8001b70 <HAL_GetTick>
 8002cd4:	4602      	mov	r2, r0
 8002cd6:	693b      	ldr	r3, [r7, #16]
 8002cd8:	1ad3      	subs	r3, r2, r3
 8002cda:	f241 3288 	movw	r2, #5000	@ 0x1388
 8002cde:	4293      	cmp	r3, r2
 8002ce0:	d901      	bls.n	8002ce6 <HAL_RCC_OscConfig+0x3aa>
 8002ce2:	2303      	movs	r3, #3
 8002ce4:	e0c1      	b.n	8002e6a <HAL_RCC_OscConfig+0x52e>
 8002ce6:	4b40      	ldr	r3, [pc, #256]	@ (8002de8 <HAL_RCC_OscConfig+0x4ac>)
 8002ce8:	6f1b      	ldr	r3, [r3, #112]	@ 0x70
 8002cea:	f003 0302 	and.w	r3, r3, #2
 8002cee:	2b00      	cmp	r3, #0
 8002cf0:	d1ee      	bne.n	8002cd0 <HAL_RCC_OscConfig+0x394>
 8002cf2:	7dfb      	ldrb	r3, [r7, #23]
 8002cf4:	2b01      	cmp	r3, #1
 8002cf6:	d105      	bne.n	8002d04 <HAL_RCC_OscConfig+0x3c8>
 8002cf8:	4b3b      	ldr	r3, [pc, #236]	@ (8002de8 <HAL_RCC_OscConfig+0x4ac>)
 8002cfa:	6c1b      	ldr	r3, [r3, #64]	@ 0x40
 8002cfc:	4a3a      	ldr	r2, [pc, #232]	@ (8002de8 <HAL_RCC_OscConfig+0x4ac>)
 8002cfe:	f023 5380 	bic.w	r3, r3, #268435456	@ 0x10000000
 8002d02:	6413      	str	r3, [r2, #64]	@ 0x40
 8002d04:	687b      	ldr	r3, [r7, #4]
 8002d06:	699b      	ldr	r3, [r3, #24]
 8002d08:	2b00      	cmp	r3, #0
 8002d0a:	f000 80ad 	beq.w	8002e68 <HAL_RCC_OscConfig+0x52c>
 8002d0e:	4b36      	ldr	r3, [pc, #216]	@ (8002de8 <HAL_RCC_OscConfig+0x4ac>)
 8002d10:	689b      	ldr	r3, [r3, #8]
 8002d12:	f003 030c 	and.w	r3, r3, #12
 8002d16:	2b08      	cmp	r3, #8
 8002d18:	d060      	beq.n	8002ddc <HAL_RCC_OscConfig+0x4a0>
 8002d1a:	687b      	ldr	r3, [r7, #4]
 8002d1c:	699b      	ldr	r3, [r3, #24]
 8002d1e:	2b02      	cmp	r3, #2
 8002d20:	d145      	bne.n	8002dae <HAL_RCC_OscConfig+0x472>
 8002d22:	4b33      	ldr	r3, [pc, #204]	@ (8002df0 <HAL_RCC_OscConfig+0x4b4>)
 8002d24:	2200      	movs	r2, #0
 8002d26:	601a      	str	r2, [r3, #0]
 8002d28:	f7fe ff22 	bl	8001b70 <HAL_GetTick>
 8002d2c:	6138      	str	r0, [r7, #16]
 8002d2e:	e008      	b.n	8002d42 <HAL_RCC_OscConfig+0x406>
 8002d30:	f7fe ff1e 	bl	8001b70 <HAL_GetTick>
 8002d34:	4602      	mov	r2, r0
 8002d36:	693b      	ldr	r3, [r7, #16]
 8002d38:	1ad3      	subs	r3, r2, r3
 8002d3a:	2b02      	cmp	r3, #2
 8002d3c:	d901      	bls.n	8002d42 <HAL_RCC_OscConfig+0x406>
 8002d3e:	2303      	movs	r3, #3
 8002d40:	e093      	b.n	8002e6a <HAL_RCC_OscConfig+0x52e>
 8002d42:	4b29      	ldr	r3, [pc, #164]	@ (8002de8 <HAL_RCC_OscConfig+0x4ac>)
 8002d44:	681b      	ldr	r3, [r3, #0]
 8002d46:	f003 7300 	and.w	r3, r3, #33554432	@ 0x2000000
 8002d4a:	2b00      	cmp	r3, #0
 8002d4c:	d1f0      	bne.n	8002d30 <HAL_RCC_OscConfig+0x3f4>
 8002d4e:	687b      	ldr	r3, [r7, #4]
 8002d50:	69da      	ldr	r2, [r3, #28]
 8002d52:	687b      	ldr	r3, [r7, #4]
 8002d54:	6a1b      	ldr	r3, [r3, #32]
 8002d56:	431a      	orrs	r2, r3
 8002d58:	687b      	ldr	r3, [r7, #4]
 8002d5a:	6a5b      	ldr	r3, [r3, #36]	@ 0x24
 8002d5c:	019b      	lsls	r3, r3, #6
 8002d5e:	431a      	orrs	r2, r3
 8002d60:	687b      	ldr	r3, [r7, #4]
 8002d62:	6a9b      	ldr	r3, [r3, #40]	@ 0x28
 8002d64:	085b      	lsrs	r3, r3, #1
 8002d66:	3b01      	subs	r3, #1
 8002d68:	041b      	lsls	r3, r3, #16
 8002d6a:	431a      	orrs	r2, r3
 8002d6c:	687b      	ldr	r3, [r7, #4]
 8002d6e:	6adb      	ldr	r3, [r3, #44]	@ 0x2c
 8002d70:	061b      	lsls	r3, r3, #24
 8002d72:	431a      	orrs	r2, r3
 8002d74:	687b      	ldr	r3, [r7, #4]
 8002d76:	6b1b      	ldr	r3, [r3, #48]	@ 0x30
 8002d78:	071b      	lsls	r3, r3, #28
 8002d7a:	491b      	ldr	r1, [pc, #108]	@ (8002de8 <HAL_RCC_OscConfig+0x4ac>)
 8002d7c:	4313      	orrs	r3, r2
 8002d7e:	604b      	str	r3, [r1, #4]
 8002d80:	4b1b      	ldr	r3, [pc, #108]	@ (8002df0 <HAL_RCC_OscConfig+0x4b4>)
 8002d82:	2201      	movs	r2, #1
 8002d84:	601a      	str	r2, [r3, #0]
 8002d86:	f7fe fef3 	bl	8001b70 <HAL_GetTick>
 8002d8a:	6138      	str	r0, [r7, #16]
 8002d8c:	e008      	b.n	8002da0 <HAL_RCC_OscConfig+0x464>
 8002d8e:	f7fe feef 	bl	8001b70 <HAL_GetTick>
 8002d92:	4602      	mov	r2, r0
 8002d94:	693b      	ldr	r3, [r7, #16]
 8002d96:	1ad3      	subs	r3, r2, r3
 8002d98:	2b02      	cmp	r3, #2
 8002d9a:	d901      	bls.n	8002da0 <HAL_RCC_OscConfig+0x464>
 8002d9c:	2303      	movs	r3, #3
 8002d9e:	e064      	b.n	8002e6a <HAL_RCC_OscConfig+0x52e>
 8002da0:	4b11      	ldr	r3, [pc, #68]	@ (8002de8 <HAL_RCC_OscConfig+0x4ac>)
 8002da2:	681b      	ldr	r3, [r3, #0]
 8002da4:	f003 7300 	and.w	r3, r3, #33554432	@ 0x2000000
 8002da8:	2b00      	cmp	r3, #0
 8002daa:	d0f0      	beq.n	8002d8e <HAL_RCC_OscConfig+0x452>
 8002dac:	e05c      	b.n	8002e68 <HAL_RCC_OscConfig+0x52c>
 8002dae:	4b10      	ldr	r3, [pc, #64]	@ (8002df0 <HAL_RCC_OscConfig+0x4b4>)
 8002db0:	2200      	movs	r2, #0
 8002db2:	601a      	str	r2, [r3, #0]
 8002db4:	f7fe fedc 	bl	8001b70 <HAL_GetTick>
 8002db8:	6138      	str	r0, [r7, #16]
 8002dba:	e008      	b.n	8002dce <HAL_RCC_OscConfig+0x492>
 8002dbc:	f7fe fed8 	bl	8001b70 <HAL_GetTick>
 8002dc0:	4602      	mov	r2, r0
 8002dc2:	693b      	ldr	r3, [r7, #16]
 8002dc4:	1ad3      	subs	r3, r2, r3
 8002dc6:	2b02      	cmp	r3, #2
 8002dc8:	d901      	bls.n	8002dce <HAL_RCC_OscConfig+0x492>
 8002dca:	2303      	movs	r3, #3
 8002dcc:	e04d      	b.n	8002e6a <HAL_RCC_OscConfig+0x52e>
 8002dce:	4b06      	ldr	r3, [pc, #24]	@ (8002de8 <HAL_RCC_OscConfig+0x4ac>)
 8002dd0:	681b      	ldr	r3, [r3, #0]
 8002dd2:	f003 7300 	and.w	r3, r3, #33554432	@ 0x2000000
 8002dd6:	2b00      	cmp	r3, #0
 8002dd8:	d1f0      	bne.n	8002dbc <HAL_RCC_OscConfig+0x480>
 8002dda:	e045      	b.n	8002e68 <HAL_RCC_OscConfig+0x52c>
 8002ddc:	687b      	ldr	r3, [r7, #4]
 8002dde:	699b      	ldr	r3, [r3, #24]
 8002de0:	2b01      	cmp	r3, #1
 8002de2:	d107      	bne.n	8002df4 <HAL_RCC_OscConfig+0x4b8>
 8002de4:	2301      	movs	r3, #1
 8002de6:	e040      	b.n	8002e6a <HAL_RCC_OscConfig+0x52e>
 8002de8:	40023800 	.word	0x40023800
 8002dec:	40007000 	.word	0x40007000
 8002df0:	42470060 	.word	0x42470060
 8002df4:	4b1f      	ldr	r3, [pc, #124]	@ (8002e74 <HAL_RCC_OscConfig+0x538>)
 8002df6:	685b      	ldr	r3, [r3, #4]
 8002df8:	60fb      	str	r3, [r7, #12]
 8002dfa:	687b      	ldr	r3, [r7, #4]
 8002dfc:	699b      	ldr	r3, [r3, #24]
 8002dfe:	2b01      	cmp	r3, #1
 8002e00:	d030      	beq.n	8002e64 <HAL_RCC_OscConfig+0x528>
 8002e02:	68fb      	ldr	r3, [r7, #12]
 8002e04:	f403 0280 	and.w	r2, r3, #4194304	@ 0x400000
 8002e08:	687b      	ldr	r3, [r7, #4]
 8002e0a:	69db      	ldr	r3, [r3, #28]
 8002e0c:	429a      	cmp	r2, r3
 8002e0e:	d129      	bne.n	8002e64 <HAL_RCC_OscConfig+0x528>
 8002e10:	68fb      	ldr	r3, [r7, #12]
 8002e12:	f003 023f 	and.w	r2, r3, #63	@ 0x3f
 8002e16:	687b      	ldr	r3, [r7, #4]
 8002e18:	6a1b      	ldr	r3, [r3, #32]
 8002e1a:	429a      	cmp	r2, r3
 8002e1c:	d122      	bne.n	8002e64 <HAL_RCC_OscConfig+0x528>
 8002e1e:	68fa      	ldr	r2, [r7, #12]
 8002e20:	f647 73c0 	movw	r3, #32704	@ 0x7fc0
 8002e24:	4013      	ands	r3, r2
 8002e26:	687a      	ldr	r2, [r7, #4]
 8002e28:	6a52      	ldr	r2, [r2, #36]	@ 0x24
 8002e2a:	0192      	lsls	r2, r2, #6
 8002e2c:	4293      	cmp	r3, r2
 8002e2e:	d119      	bne.n	8002e64 <HAL_RCC_OscConfig+0x528>
 8002e30:	68fb      	ldr	r3, [r7, #12]
 8002e32:	f403 3240 	and.w	r2, r3, #196608	@ 0x30000
 8002e36:	687b      	ldr	r3, [r7, #4]
 8002e38:	6a9b      	ldr	r3, [r3, #40]	@ 0x28
 8002e3a:	085b      	lsrs	r3, r3, #1
 8002e3c:	3b01      	subs	r3, #1
 8002e3e:	041b      	lsls	r3, r3, #16
 8002e40:	429a      	cmp	r2, r3
 8002e42:	d10f      	bne.n	8002e64 <HAL_RCC_OscConfig+0x528>
 8002e44:	68fb      	ldr	r3, [r7, #12]
 8002e46:	f003 6270 	and.w	r2, r3, #251658240	@ 0xf000000
 8002e4a:	687b      	ldr	r3, [r7, #4]
 8002e4c:	6adb      	ldr	r3, [r3, #44]	@ 0x2c
 8002e4e:	061b      	lsls	r3, r3, #24
 8002e50:	429a      	cmp	r2, r3
 8002e52:	d107      	bne.n	8002e64 <HAL_RCC_OscConfig+0x528>
 8002e54:	68fb      	ldr	r3, [r7, #12]
 8002e56:	f003 42e0 	and.w	r2, r3, #1879048192	@ 0x70000000
 8002e5a:	687b      	ldr	r3, [r7, #4]
 8002e5c:	6b1b      	ldr	r3, [r3, #48]	@ 0x30
 8002e5e:	071b      	lsls	r3, r3, #28
 8002e60:	429a      	cmp	r2, r3
 8002e62:	d001      	beq.n	8002e68 <HAL_RCC_OscConfig+0x52c>
 8002e64:	2301      	movs	r3, #1
 8002e66:	e000      	b.n	8002e6a <HAL_RCC_OscConfig+0x52e>
 8002e68:	2300      	movs	r3, #0
 8002e6a:	4618      	mov	r0, r3
 8002e6c:	3718      	adds	r7, #24
 8002e6e:	46bd      	mov	sp, r7
 8002e70:	bd80      	pop	{r7, pc}
 8002e72:	bf00      	nop
 8002e74:	40023800 	.word	0x40023800

08002e78 <HAL_TIM_Base_Init>:
 8002e78:	b580      	push	{r7, lr}
 8002e7a:	b082      	sub	sp, #8
 8002e7c:	af00      	add	r7, sp, #0
 8002e7e:	6078      	str	r0, [r7, #4]
 8002e80:	687b      	ldr	r3, [r7, #4]
 8002e82:	2b00      	cmp	r3, #0
 8002e84:	d101      	bne.n	8002e8a <HAL_TIM_Base_Init+0x12>
 8002e86:	2301      	movs	r3, #1
 8002e88:	e041      	b.n	8002f0e <HAL_TIM_Base_Init+0x96>
 8002e8a:	687b      	ldr	r3, [r7, #4]
 8002e8c:	f893 303d 	ldrb.w	r3, [r3, #61]	@ 0x3d
 8002e90:	b2db      	uxtb	r3, r3
 8002e92:	2b00      	cmp	r3, #0
 8002e94:	d106      	bne.n	8002ea4 <HAL_TIM_Base_Init+0x2c>
 8002e96:	687b      	ldr	r3, [r7, #4]
 8002e98:	2200      	movs	r2, #0
 8002e9a:	f883 203c 	strb.w	r2, [r3, #60]	@ 0x3c
 8002e9e:	6878      	ldr	r0, [r7, #4]
 8002ea0:	f7fe fac8 	bl	8001434 <HAL_TIM_Base_MspInit>
 8002ea4:	687b      	ldr	r3, [r7, #4]
 8002ea6:	2202      	movs	r2, #2
 8002ea8:	f883 203d 	strb.w	r2, [r3, #61]	@ 0x3d
 8002eac:	687b      	ldr	r3, [r7, #4]
 8002eae:	681a      	ldr	r2, [r3, #0]
 8002eb0:	687b      	ldr	r3, [r7, #4]
 8002eb2:	3304      	adds	r3, #4
 8002eb4:	4619      	mov	r1, r3
 8002eb6:	4610      	mov	r0, r2
 8002eb8:	f000 fad8 	bl	800346c <TIM_Base_SetConfig>
 8002ebc:	687b      	ldr	r3, [r7, #4]
 8002ebe:	2201      	movs	r2, #1
 8002ec0:	f883 2046 	strb.w	r2, [r3, #70]	@ 0x46
 8002ec4:	687b      	ldr	r3, [r7, #4]
 8002ec6:	2201      	movs	r2, #1
 8002ec8:	f883 203e 	strb.w	r2, [r3, #62]	@ 0x3e
 8002ecc:	687b      	ldr	r3, [r7, #4]
 8002ece:	2201      	movs	r2, #1
 8002ed0:	f883 203f 	strb.w	r2, [r3, #63]	@ 0x3f
 8002ed4:	687b      	ldr	r3, [r7, #4]
 8002ed6:	2201      	movs	r2, #1
 8002ed8:	f883 2040 	strb.w	r2, [r3, #64]	@ 0x40
 8002edc:	687b      	ldr	r3, [r7, #4]
 8002ede:	2201      	movs	r2, #1
 8002ee0:	f883 2041 	strb.w	r2, [r3, #65]	@ 0x41
 8002ee4:	687b      	ldr	r3, [r7, #4]
 8002ee6:	2201      	movs	r2, #1
 8002ee8:	f883 2042 	strb.w	r2, [r3, #66]	@ 0x42
 8002eec:	687b      	ldr	r3, [r7, #4]
 8002eee:	2201      	movs	r2, #1
 8002ef0:	f883 2043 	strb.w	r2, [r3, #67]	@ 0x43
 8002ef4:	687b      	ldr	r3, [r7, #4]
 8002ef6:	2201      	movs	r2, #1
 8002ef8:	f883 2044 	strb.w	r2, [r3, #68]	@ 0x44
 8002efc:	687b      	ldr	r3, [r7, #4]
 8002efe:	2201      	movs	r2, #1
 8002f00:	f883 2045 	strb.w	r2, [r3, #69]	@ 0x45
 8002f04:	687b      	ldr	r3, [r7, #4]
 8002f06:	2201      	movs	r2, #1
 8002f08:	f883 203d 	strb.w	r2, [r3, #61]	@ 0x3d
 8002f0c:	2300      	movs	r3, #0
 8002f0e:	4618      	mov	r0, r3
 8002f10:	3708      	adds	r7, #8
 8002f12:	46bd      	mov	sp, r7
 8002f14:	bd80      	pop	{r7, pc}

08002f16 <HAL_TIM_PWM_Init>:
 8002f16:	b580      	push	{r7, lr}
 8002f18:	b082      	sub	sp, #8
 8002f1a:	af00      	add	r7, sp, #0
 8002f1c:	6078      	str	r0, [r7, #4]
 8002f1e:	687b      	ldr	r3, [r7, #4]
 8002f20:	2b00      	cmp	r3, #0
 8002f22:	d101      	bne.n	8002f28 <HAL_TIM_PWM_Init+0x12>
 8002f24:	2301      	movs	r3, #1
 8002f26:	e041      	b.n	8002fac <HAL_TIM_PWM_Init+0x96>
 8002f28:	687b      	ldr	r3, [r7, #4]
 8002f2a:	f893 303d 	ldrb.w	r3, [r3, #61]	@ 0x3d
 8002f2e:	b2db      	uxtb	r3, r3
 8002f30:	2b00      	cmp	r3, #0
 8002f32:	d106      	bne.n	8002f42 <HAL_TIM_PWM_Init+0x2c>
 8002f34:	687b      	ldr	r3, [r7, #4]
 8002f36:	2200      	movs	r2, #0
 8002f38:	f883 203c 	strb.w	r2, [r3, #60]	@ 0x3c
 8002f3c:	6878      	ldr	r0, [r7, #4]
 8002f3e:	f000 f839 	bl	8002fb4 <HAL_TIM_PWM_MspInit>
 8002f42:	687b      	ldr	r3, [r7, #4]
 8002f44:	2202      	movs	r2, #2
 8002f46:	f883 203d 	strb.w	r2, [r3, #61]	@ 0x3d
 8002f4a:	687b      	ldr	r3, [r7, #4]
 8002f4c:	681a      	ldr	r2, [r3, #0]
 8002f4e:	687b      	ldr	r3, [r7, #4]
 8002f50:	3304      	adds	r3, #4
 8002f52:	4619      	mov	r1, r3
 8002f54:	4610      	mov	r0, r2
 8002f56:	f000 fa89 	bl	800346c <TIM_Base_SetConfig>
 8002f5a:	687b      	ldr	r3, [r7, #4]
 8002f5c:	2201      	movs	r2, #1
 8002f5e:	f883 2046 	strb.w	r2, [r3, #70]	@ 0x46
 8002f62:	687b      	ldr	r3, [r7, #4]
 8002f64:	2201      	movs	r2, #1
 8002f66:	f883 203e 	strb.w	r2, [r3, #62]	@ 0x3e
 8002f6a:	687b      	ldr	r3, [r7, #4]
 8002f6c:	2201      	movs	r2, #1
 8002f6e:	f883 203f 	strb.w	r2, [r3, #63]	@ 0x3f
 8002f72:	687b      	ldr	r3, [r7, #4]
 8002f74:	2201      	movs	r2, #1
 8002f76:	f883 2040 	strb.w	r2, [r3, #64]	@ 0x40
 8002f7a:	687b      	ldr	r3, [r7, #4]
 8002f7c:	2201      	movs	r2, #1
 8002f7e:	f883 2041 	strb.w	r2, [r3, #65]	@ 0x41
 8002f82:	687b      	ldr	r3, [r7, #4]
 8002f84:	2201      	movs	r2, #1
 8002f86:	f883 2042 	strb.w	r2, [r3, #66]	@ 0x42
 8002f8a:	687b      	ldr	r3, [r7, #4]
 8002f8c:	2201      	movs	r2, #1
 8002f8e:	f883 2043 	strb.w	r2, [r3, #67]	@ 0x43
 8002f92:	687b      	ldr	r3, [r7, #4]
 8002f94:	2201      	movs	r2, #1
 8002f96:	f883 2044 	strb.w	r2, [r3, #68]	@ 0x44
 8002f9a:	687b      	ldr	r3, [r7, #4]
 8002f9c:	2201      	movs	r2, #1
 8002f9e:	f883 2045 	strb.w	r2, [r3, #69]	@ 0x45
 8002fa2:	687b      	ldr	r3, [r7, #4]
 8002fa4:	2201      	movs	r2, #1
 8002fa6:	f883 203d 	strb.w	r2, [r3, #61]	@ 0x3d
 8002faa:	2300      	movs	r3, #0
 8002fac:	4618      	mov	r0, r3
 8002fae:	3708      	adds	r7, #8
 8002fb0:	46bd      	mov	sp, r7
 8002fb2:	bd80      	pop	{r7, pc}

08002fb4 <HAL_TIM_PWM_MspInit>:
 8002fb4:	b480      	push	{r7}
 8002fb6:	b083      	sub	sp, #12
 8002fb8:	af00      	add	r7, sp, #0
 8002fba:	6078      	str	r0, [r7, #4]
 8002fbc:	bf00      	nop
 8002fbe:	370c      	adds	r7, #12
 8002fc0:	46bd      	mov	sp, r7
 8002fc2:	f85d 7b04 	ldr.w	r7, [sp], #4
 8002fc6:	4770      	bx	lr

08002fc8 <HAL_TIM_PWM_Start>:
 8002fc8:	b580      	push	{r7, lr}
 8002fca:	b084      	sub	sp, #16
 8002fcc:	af00      	add	r7, sp, #0
 8002fce:	6078      	str	r0, [r7, #4]
 8002fd0:	6039      	str	r1, [r7, #0]
 8002fd2:	683b      	ldr	r3, [r7, #0]
 8002fd4:	2b00      	cmp	r3, #0
 8002fd6:	d109      	bne.n	8002fec <HAL_TIM_PWM_Start+0x24>
 8002fd8:	687b      	ldr	r3, [r7, #4]
 8002fda:	f893 303e 	ldrb.w	r3, [r3, #62]	@ 0x3e
 8002fde:	b2db      	uxtb	r3, r3
 8002fe0:	2b01      	cmp	r3, #1
 8002fe2:	bf14      	ite	ne
 8002fe4:	2301      	movne	r3, #1
 8002fe6:	2300      	moveq	r3, #0
 8002fe8:	b2db      	uxtb	r3, r3
 8002fea:	e022      	b.n	8003032 <HAL_TIM_PWM_Start+0x6a>
 8002fec:	683b      	ldr	r3, [r7, #0]
 8002fee:	2b04      	cmp	r3, #4
 8002ff0:	d109      	bne.n	8003006 <HAL_TIM_PWM_Start+0x3e>
 8002ff2:	687b      	ldr	r3, [r7, #4]
 8002ff4:	f893 303f 	ldrb.w	r3, [r3, #63]	@ 0x3f
 8002ff8:	b2db      	uxtb	r3, r3
 8002ffa:	2b01      	cmp	r3, #1
 8002ffc:	bf14      	ite	ne
 8002ffe:	2301      	movne	r3, #1
 8003000:	2300      	moveq	r3, #0
 8003002:	b2db      	uxtb	r3, r3
 8003004:	e015      	b.n	8003032 <HAL_TIM_PWM_Start+0x6a>
 8003006:	683b      	ldr	r3, [r7, #0]
 8003008:	2b08      	cmp	r3, #8
 800300a:	d109      	bne.n	8003020 <HAL_TIM_PWM_Start+0x58>
 800300c:	687b      	ldr	r3, [r7, #4]
 800300e:	f893 3040 	ldrb.w	r3, [r3, #64]	@ 0x40
 8003012:	b2db      	uxtb	r3, r3
 8003014:	2b01      	cmp	r3, #1
 8003016:	bf14      	ite	ne
 8003018:	2301      	movne	r3, #1
 800301a:	2300      	moveq	r3, #0
 800301c:	b2db      	uxtb	r3, r3
 800301e:	e008      	b.n	8003032 <HAL_TIM_PWM_Start+0x6a>
 8003020:	687b      	ldr	r3, [r7, #4]
 8003022:	f893 3041 	ldrb.w	r3, [r3, #65]	@ 0x41
 8003026:	b2db      	uxtb	r3, r3
 8003028:	2b01      	cmp	r3, #1
 800302a:	bf14      	ite	ne
 800302c:	2301      	movne	r3, #1
 800302e:	2300      	moveq	r3, #0
 8003030:	b2db      	uxtb	r3, r3
 8003032:	2b00      	cmp	r3, #0
 8003034:	d001      	beq.n	800303a <HAL_TIM_PWM_Start+0x72>
 8003036:	2301      	movs	r3, #1
 8003038:	e07c      	b.n	8003134 <HAL_TIM_PWM_Start+0x16c>
 800303a:	683b      	ldr	r3, [r7, #0]
 800303c:	2b00      	cmp	r3, #0
 800303e:	d104      	bne.n	800304a <HAL_TIM_PWM_Start+0x82>
 8003040:	687b      	ldr	r3, [r7, #4]
 8003042:	2202      	movs	r2, #2
 8003044:	f883 203e 	strb.w	r2, [r3, #62]	@ 0x3e
 8003048:	e013      	b.n	8003072 <HAL_TIM_PWM_Start+0xaa>
 800304a:	683b      	ldr	r3, [r7, #0]
 800304c:	2b04      	cmp	r3, #4
 800304e:	d104      	bne.n	800305a <HAL_TIM_PWM_Start+0x92>
 8003050:	687b      	ldr	r3, [r7, #4]
 8003052:	2202      	movs	r2, #2
 8003054:	f883 203f 	strb.w	r2, [r3, #63]	@ 0x3f
 8003058:	e00b      	b.n	8003072 <HAL_TIM_PWM_Start+0xaa>
 800305a:	683b      	ldr	r3, [r7, #0]
 800305c:	2b08      	cmp	r3, #8
 800305e:	d104      	bne.n	800306a <HAL_TIM_PWM_Start+0xa2>
 8003060:	687b      	ldr	r3, [r7, #4]
 8003062:	2202      	movs	r2, #2
 8003064:	f883 2040 	strb.w	r2, [r3, #64]	@ 0x40
 8003068:	e003      	b.n	8003072 <HAL_TIM_PWM_Start+0xaa>
 800306a:	687b      	ldr	r3, [r7, #4]
 800306c:	2202      	movs	r2, #2
 800306e:	f883 2041 	strb.w	r2, [r3, #65]	@ 0x41
 8003072:	687b      	ldr	r3, [r7, #4]
 8003074:	681b      	ldr	r3, [r3, #0]
 8003076:	2201      	movs	r2, #1
 8003078:	6839      	ldr	r1, [r7, #0]
 800307a:	4618      	mov	r0, r3
 800307c:	f000 fcec 	bl	8003a58 <TIM_CCxChannelCmd>
 8003080:	687b      	ldr	r3, [r7, #4]
 8003082:	681b      	ldr	r3, [r3, #0]
 8003084:	4a2d      	ldr	r2, [pc, #180]	@ (800313c <HAL_TIM_PWM_Start+0x174>)
 8003086:	4293      	cmp	r3, r2
 8003088:	d004      	beq.n	8003094 <HAL_TIM_PWM_Start+0xcc>
 800308a:	687b      	ldr	r3, [r7, #4]
 800308c:	681b      	ldr	r3, [r3, #0]
 800308e:	4a2c      	ldr	r2, [pc, #176]	@ (8003140 <HAL_TIM_PWM_Start+0x178>)
 8003090:	4293      	cmp	r3, r2
 8003092:	d101      	bne.n	8003098 <HAL_TIM_PWM_Start+0xd0>
 8003094:	2301      	movs	r3, #1
 8003096:	e000      	b.n	800309a <HAL_TIM_PWM_Start+0xd2>
 8003098:	2300      	movs	r3, #0
 800309a:	2b00      	cmp	r3, #0
 800309c:	d007      	beq.n	80030ae <HAL_TIM_PWM_Start+0xe6>
 800309e:	687b      	ldr	r3, [r7, #4]
 80030a0:	681b      	ldr	r3, [r3, #0]
 80030a2:	6c5a      	ldr	r2, [r3, #68]	@ 0x44
 80030a4:	687b      	ldr	r3, [r7, #4]
 80030a6:	681b      	ldr	r3, [r3, #0]
 80030a8:	f442 4200 	orr.w	r2, r2, #32768	@ 0x8000
 80030ac:	645a      	str	r2, [r3, #68]	@ 0x44
 80030ae:	687b      	ldr	r3, [r7, #4]
 80030b0:	681b      	ldr	r3, [r3, #0]
 80030b2:	4a22      	ldr	r2, [pc, #136]	@ (800313c <HAL_TIM_PWM_Start+0x174>)
 80030b4:	4293      	cmp	r3, r2
 80030b6:	d022      	beq.n	80030fe <HAL_TIM_PWM_Start+0x136>
 80030b8:	687b      	ldr	r3, [r7, #4]
 80030ba:	681b      	ldr	r3, [r3, #0]
 80030bc:	f1b3 4f80 	cmp.w	r3, #1073741824	@ 0x40000000
 80030c0:	d01d      	beq.n	80030fe <HAL_TIM_PWM_Start+0x136>
 80030c2:	687b      	ldr	r3, [r7, #4]
 80030c4:	681b      	ldr	r3, [r3, #0]
 80030c6:	4a1f      	ldr	r2, [pc, #124]	@ (8003144 <HAL_TIM_PWM_Start+0x17c>)
 80030c8:	4293      	cmp	r3, r2
 80030ca:	d018      	beq.n	80030fe <HAL_TIM_PWM_Start+0x136>
 80030cc:	687b      	ldr	r3, [r7, #4]
 80030ce:	681b      	ldr	r3, [r3, #0]
 80030d0:	4a1d      	ldr	r2, [pc, #116]	@ (8003148 <HAL_TIM_PWM_Start+0x180>)
 80030d2:	4293      	cmp	r3, r2
 80030d4:	d013      	beq.n	80030fe <HAL_TIM_PWM_Start+0x136>
 80030d6:	687b      	ldr	r3, [r7, #4]
 80030d8:	681b      	ldr	r3, [r3, #0]
 80030da:	4a1c      	ldr	r2, [pc, #112]	@ (800314c <HAL_TIM_PWM_Start+0x184>)
 80030dc:	4293      	cmp	r3, r2
 80030de:	d00e      	beq.n	80030fe <HAL_TIM_PWM_Start+0x136>
 80030e0:	687b      	ldr	r3, [r7, #4]
 80030e2:	681b      	ldr	r3, [r3, #0]
 80030e4:	4a16      	ldr	r2, [pc, #88]	@ (8003140 <HAL_TIM_PWM_Start+0x178>)
 80030e6:	4293      	cmp	r3, r2
 80030e8:	d009      	beq.n	80030fe <HAL_TIM_PWM_Start+0x136>
 80030ea:	687b      	ldr	r3, [r7, #4]
 80030ec:	681b      	ldr	r3, [r3, #0]
 80030ee:	4a18      	ldr	r2, [pc, #96]	@ (8003150 <HAL_TIM_PWM_Start+0x188>)
 80030f0:	4293      	cmp	r3, r2
 80030f2:	d004      	beq.n	80030fe <HAL_TIM_PWM_Start+0x136>
 80030f4:	687b      	ldr	r3, [r7, #4]
 80030f6:	681b      	ldr	r3, [r3, #0]
 80030f8:	4a16      	ldr	r2, [pc, #88]	@ (8003154 <HAL_TIM_PWM_Start+0x18c>)
 80030fa:	4293      	cmp	r3, r2
 80030fc:	d111      	bne.n	8003122 <HAL_TIM_PWM_Start+0x15a>
 80030fe:	687b      	ldr	r3, [r7, #4]
 8003100:	681b      	ldr	r3, [r3, #0]
 8003102:	689b      	ldr	r3, [r3, #8]
 8003104:	f003 0307 	and.w	r3, r3, #7
 8003108:	60fb      	str	r3, [r7, #12]
 800310a:	68fb      	ldr	r3, [r7, #12]
 800310c:	2b06      	cmp	r3, #6
 800310e:	d010      	beq.n	8003132 <HAL_TIM_PWM_Start+0x16a>
 8003110:	687b      	ldr	r3, [r7, #4]
 8003112:	681b      	ldr	r3, [r3, #0]
 8003114:	681a      	ldr	r2, [r3, #0]
 8003116:	687b      	ldr	r3, [r7, #4]
 8003118:	681b      	ldr	r3, [r3, #0]
 800311a:	f042 0201 	orr.w	r2, r2, #1
 800311e:	601a      	str	r2, [r3, #0]
 8003120:	e007      	b.n	8003132 <HAL_TIM_PWM_Start+0x16a>
 8003122:	687b      	ldr	r3, [r7, #4]
 8003124:	681b      	ldr	r3, [r3, #0]
 8003126:	681a      	ldr	r2, [r3, #0]
 8003128:	687b      	ldr	r3, [r7, #4]
 800312a:	681b      	ldr	r3, [r3, #0]
 800312c:	f042 0201 	orr.w	r2, r2, #1
 8003130:	601a      	str	r2, [r3, #0]
 8003132:	2300      	movs	r3, #0
 8003134:	4618      	mov	r0, r3
 8003136:	3710      	adds	r7, #16
 8003138:	46bd      	mov	sp, r7
 800313a:	bd80      	pop	{r7, pc}
 800313c:	40010000 	.word	0x40010000
 8003140:	40010400 	.word	0x40010400
 8003144:	40000400 	.word	0x40000400
 8003148:	40000800 	.word	0x40000800
 800314c:	40000c00 	.word	0x40000c00
 8003150:	40014000 	.word	0x40014000
 8003154:	40001800 	.word	0x40001800

08003158 <HAL_TIM_PWM_ConfigChannel>:
 8003158:	b580      	push	{r7, lr}
 800315a:	b086      	sub	sp, #24
 800315c:	af00      	add	r7, sp, #0
 800315e:	60f8      	str	r0, [r7, #12]
 8003160:	60b9      	str	r1, [r7, #8]
 8003162:	607a      	str	r2, [r7, #4]
 8003164:	2300      	movs	r3, #0
 8003166:	75fb      	strb	r3, [r7, #23]
 8003168:	68fb      	ldr	r3, [r7, #12]
 800316a:	f893 303c 	ldrb.w	r3, [r3, #60]	@ 0x3c
 800316e:	2b01      	cmp	r3, #1
 8003170:	d101      	bne.n	8003176 <HAL_TIM_PWM_ConfigChannel+0x1e>
 8003172:	2302      	movs	r3, #2
 8003174:	e0ae      	b.n	80032d4 <HAL_TIM_PWM_ConfigChannel+0x17c>
 8003176:	68fb      	ldr	r3, [r7, #12]
 8003178:	2201      	movs	r2, #1
 800317a:	f883 203c 	strb.w	r2, [r3, #60]	@ 0x3c
 800317e:	687b      	ldr	r3, [r7, #4]
 8003180:	2b0c      	cmp	r3, #12
 8003182:	f200 809f 	bhi.w	80032c4 <HAL_TIM_PWM_ConfigChannel+0x16c>
 8003186:	a201      	add	r2, pc, #4	@ (adr r2, 800318c <HAL_TIM_PWM_ConfigChannel+0x34>)
 8003188:	f852 f023 	ldr.w	pc, [r2, r3, lsl #2]
 800318c:	080031c1 	.word	0x080031c1
 8003190:	080032c5 	.word	0x080032c5
 8003194:	080032c5 	.word	0x080032c5
 8003198:	080032c5 	.word	0x080032c5
 800319c:	08003201 	.word	0x08003201
 80031a0:	080032c5 	.word	0x080032c5
 80031a4:	080032c5 	.word	0x080032c5
 80031a8:	080032c5 	.word	0x080032c5
 80031ac:	08003243 	.word	0x08003243
 80031b0:	080032c5 	.word	0x080032c5
 80031b4:	080032c5 	.word	0x080032c5
 80031b8:	080032c5 	.word	0x080032c5
 80031bc:	08003283 	.word	0x08003283
 80031c0:	68fb      	ldr	r3, [r7, #12]
 80031c2:	681b      	ldr	r3, [r3, #0]
 80031c4:	68b9      	ldr	r1, [r7, #8]
 80031c6:	4618      	mov	r0, r3
 80031c8:	f000 f9fc 	bl	80035c4 <TIM_OC1_SetConfig>
 80031cc:	68fb      	ldr	r3, [r7, #12]
 80031ce:	681b      	ldr	r3, [r3, #0]
 80031d0:	699a      	ldr	r2, [r3, #24]
 80031d2:	68fb      	ldr	r3, [r7, #12]
 80031d4:	681b      	ldr	r3, [r3, #0]
 80031d6:	f042 0208 	orr.w	r2, r2, #8
 80031da:	619a      	str	r2, [r3, #24]
 80031dc:	68fb      	ldr	r3, [r7, #12]
 80031de:	681b      	ldr	r3, [r3, #0]
 80031e0:	699a      	ldr	r2, [r3, #24]
 80031e2:	68fb      	ldr	r3, [r7, #12]
 80031e4:	681b      	ldr	r3, [r3, #0]
 80031e6:	f022 0204 	bic.w	r2, r2, #4
 80031ea:	619a      	str	r2, [r3, #24]
 80031ec:	68fb      	ldr	r3, [r7, #12]
 80031ee:	681b      	ldr	r3, [r3, #0]
 80031f0:	6999      	ldr	r1, [r3, #24]
 80031f2:	68bb      	ldr	r3, [r7, #8]
 80031f4:	691a      	ldr	r2, [r3, #16]
 80031f6:	68fb      	ldr	r3, [r7, #12]
 80031f8:	681b      	ldr	r3, [r3, #0]
 80031fa:	430a      	orrs	r2, r1
 80031fc:	619a      	str	r2, [r3, #24]
 80031fe:	e064      	b.n	80032ca <HAL_TIM_PWM_ConfigChannel+0x172>
 8003200:	68fb      	ldr	r3, [r7, #12]
 8003202:	681b      	ldr	r3, [r3, #0]
 8003204:	68b9      	ldr	r1, [r7, #8]
 8003206:	4618      	mov	r0, r3
 8003208:	f000 fa4c 	bl	80036a4 <TIM_OC2_SetConfig>
 800320c:	68fb      	ldr	r3, [r7, #12]
 800320e:	681b      	ldr	r3, [r3, #0]
 8003210:	699a      	ldr	r2, [r3, #24]
 8003212:	68fb      	ldr	r3, [r7, #12]
 8003214:	681b      	ldr	r3, [r3, #0]
 8003216:	f442 6200 	orr.w	r2, r2, #2048	@ 0x800
 800321a:	619a      	str	r2, [r3, #24]
 800321c:	68fb      	ldr	r3, [r7, #12]
 800321e:	681b      	ldr	r3, [r3, #0]
 8003220:	699a      	ldr	r2, [r3, #24]
 8003222:	68fb      	ldr	r3, [r7, #12]
 8003224:	681b      	ldr	r3, [r3, #0]
 8003226:	f422 6280 	bic.w	r2, r2, #1024	@ 0x400
 800322a:	619a      	str	r2, [r3, #24]
 800322c:	68fb      	ldr	r3, [r7, #12]
 800322e:	681b      	ldr	r3, [r3, #0]
 8003230:	6999      	ldr	r1, [r3, #24]
 8003232:	68bb      	ldr	r3, [r7, #8]
 8003234:	691b      	ldr	r3, [r3, #16]
 8003236:	021a      	lsls	r2, r3, #8
 8003238:	68fb      	ldr	r3, [r7, #12]
 800323a:	681b      	ldr	r3, [r3, #0]
 800323c:	430a      	orrs	r2, r1
 800323e:	619a      	str	r2, [r3, #24]
 8003240:	e043      	b.n	80032ca <HAL_TIM_PWM_ConfigChannel+0x172>
 8003242:	68fb      	ldr	r3, [r7, #12]
 8003244:	681b      	ldr	r3, [r3, #0]
 8003246:	68b9      	ldr	r1, [r7, #8]
 8003248:	4618      	mov	r0, r3
 800324a:	f000 faa1 	bl	8003790 <TIM_OC3_SetConfig>
 800324e:	68fb      	ldr	r3, [r7, #12]
 8003250:	681b      	ldr	r3, [r3, #0]
 8003252:	69da      	ldr	r2, [r3, #28]
 8003254:	68fb      	ldr	r3, [r7, #12]
 8003256:	681b      	ldr	r3, [r3, #0]
 8003258:	f042 0208 	orr.w	r2, r2, #8
 800325c:	61da      	str	r2, [r3, #28]
 800325e:	68fb      	ldr	r3, [r7, #12]
 8003260:	681b      	ldr	r3, [r3, #0]
 8003262:	69da      	ldr	r2, [r3, #28]
 8003264:	68fb      	ldr	r3, [r7, #12]
 8003266:	681b      	ldr	r3, [r3, #0]
 8003268:	f022 0204 	bic.w	r2, r2, #4
 800326c:	61da      	str	r2, [r3, #28]
 800326e:	68fb      	ldr	r3, [r7, #12]
 8003270:	681b      	ldr	r3, [r3, #0]
 8003272:	69d9      	ldr	r1, [r3, #28]
 8003274:	68bb      	ldr	r3, [r7, #8]
 8003276:	691a      	ldr	r2, [r3, #16]
 8003278:	68fb      	ldr	r3, [r7, #12]
 800327a:	681b      	ldr	r3, [r3, #0]
 800327c:	430a      	orrs	r2, r1
 800327e:	61da      	str	r2, [r3, #28]
 8003280:	e023      	b.n	80032ca <HAL_TIM_PWM_ConfigChannel+0x172>
 8003282:	68fb      	ldr	r3, [r7, #12]
 8003284:	681b      	ldr	r3, [r3, #0]
 8003286:	68b9      	ldr	r1, [r7, #8]
 8003288:	4618      	mov	r0, r3
 800328a:	f000 faf5 	bl	8003878 <TIM_OC4_SetConfig>
 800328e:	68fb      	ldr	r3, [r7, #12]
 8003290:	681b      	ldr	r3, [r3, #0]
 8003292:	69da      	ldr	r2, [r3, #28]
 8003294:	68fb      	ldr	r3, [r7, #12]
 8003296:	681b      	ldr	r3, [r3, #0]
 8003298:	f442 6200 	orr.w	r2, r2, #2048	@ 0x800
 800329c:	61da      	str	r2, [r3, #28]
 800329e:	68fb      	ldr	r3, [r7, #12]
 80032a0:	681b      	ldr	r3, [r3, #0]
 80032a2:	69da      	ldr	r2, [r3, #28]
 80032a4:	68fb      	ldr	r3, [r7, #12]
 80032a6:	681b      	ldr	r3, [r3, #0]
 80032a8:	f422 6280 	bic.w	r2, r2, #1024	@ 0x400
 80032ac:	61da      	str	r2, [r3, #28]
 80032ae:	68fb      	ldr	r3, [r7, #12]
 80032b0:	681b      	ldr	r3, [r3, #0]
 80032b2:	69d9      	ldr	r1, [r3, #28]
 80032b4:	68bb      	ldr	r3, [r7, #8]
 80032b6:	691b      	ldr	r3, [r3, #16]
 80032b8:	021a      	lsls	r2, r3, #8
 80032ba:	68fb      	ldr	r3, [r7, #12]
 80032bc:	681b      	ldr	r3, [r3, #0]
 80032be:	430a      	orrs	r2, r1
 80032c0:	61da      	str	r2, [r3, #28]
 80032c2:	e002      	b.n	80032ca <HAL_TIM_PWM_ConfigChannel+0x172>
 80032c4:	2301      	movs	r3, #1
 80032c6:	75fb      	strb	r3, [r7, #23]
 80032c8:	bf00      	nop
 80032ca:	68fb      	ldr	r3, [r7, #12]
 80032cc:	2200      	movs	r2, #0
 80032ce:	f883 203c 	strb.w	r2, [r3, #60]	@ 0x3c
 80032d2:	7dfb      	ldrb	r3, [r7, #23]
 80032d4:	4618      	mov	r0, r3
 80032d6:	3718      	adds	r7, #24
 80032d8:	46bd      	mov	sp, r7
 80032da:	bd80      	pop	{r7, pc}

080032dc <HAL_TIM_ConfigClockSource>:
 80032dc:	b580      	push	{r7, lr}
 80032de:	b084      	sub	sp, #16
 80032e0:	af00      	add	r7, sp, #0
 80032e2:	6078      	str	r0, [r7, #4]
 80032e4:	6039      	str	r1, [r7, #0]
 80032e6:	2300      	movs	r3, #0
 80032e8:	73fb      	strb	r3, [r7, #15]
 80032ea:	687b      	ldr	r3, [r7, #4]
 80032ec:	f893 303c 	ldrb.w	r3, [r3, #60]	@ 0x3c
 80032f0:	2b01      	cmp	r3, #1
 80032f2:	d101      	bne.n	80032f8 <HAL_TIM_ConfigClockSource+0x1c>
 80032f4:	2302      	movs	r3, #2
 80032f6:	e0b4      	b.n	8003462 <HAL_TIM_ConfigClockSource+0x186>
 80032f8:	687b      	ldr	r3, [r7, #4]
 80032fa:	2201      	movs	r2, #1
 80032fc:	f883 203c 	strb.w	r2, [r3, #60]	@ 0x3c
 8003300:	687b      	ldr	r3, [r7, #4]
 8003302:	2202      	movs	r2, #2
 8003304:	f883 203d 	strb.w	r2, [r3, #61]	@ 0x3d
 8003308:	687b      	ldr	r3, [r7, #4]
 800330a:	681b      	ldr	r3, [r3, #0]
 800330c:	689b      	ldr	r3, [r3, #8]
 800330e:	60bb      	str	r3, [r7, #8]
 8003310:	68bb      	ldr	r3, [r7, #8]
 8003312:	f023 0377 	bic.w	r3, r3, #119	@ 0x77
 8003316:	60bb      	str	r3, [r7, #8]
 8003318:	68bb      	ldr	r3, [r7, #8]
 800331a:	f423 437f 	bic.w	r3, r3, #65280	@ 0xff00
 800331e:	60bb      	str	r3, [r7, #8]
 8003320:	687b      	ldr	r3, [r7, #4]
 8003322:	681b      	ldr	r3, [r3, #0]
 8003324:	68ba      	ldr	r2, [r7, #8]
 8003326:	609a      	str	r2, [r3, #8]
 8003328:	683b      	ldr	r3, [r7, #0]
 800332a:	681b      	ldr	r3, [r3, #0]
 800332c:	f5b3 5f00 	cmp.w	r3, #8192	@ 0x2000
 8003330:	d03e      	beq.n	80033b0 <HAL_TIM_ConfigClockSource+0xd4>
 8003332:	f5b3 5f00 	cmp.w	r3, #8192	@ 0x2000
 8003336:	f200 8087 	bhi.w	8003448 <HAL_TIM_ConfigClockSource+0x16c>
 800333a:	f5b3 5f80 	cmp.w	r3, #4096	@ 0x1000
 800333e:	f000 8086 	beq.w	800344e <HAL_TIM_ConfigClockSource+0x172>
 8003342:	f5b3 5f80 	cmp.w	r3, #4096	@ 0x1000
 8003346:	d87f      	bhi.n	8003448 <HAL_TIM_ConfigClockSource+0x16c>
 8003348:	2b70      	cmp	r3, #112	@ 0x70
 800334a:	d01a      	beq.n	8003382 <HAL_TIM_ConfigClockSource+0xa6>
 800334c:	2b70      	cmp	r3, #112	@ 0x70
 800334e:	d87b      	bhi.n	8003448 <HAL_TIM_ConfigClockSource+0x16c>
 8003350:	2b60      	cmp	r3, #96	@ 0x60
 8003352:	d050      	beq.n	80033f6 <HAL_TIM_ConfigClockSource+0x11a>
 8003354:	2b60      	cmp	r3, #96	@ 0x60
 8003356:	d877      	bhi.n	8003448 <HAL_TIM_ConfigClockSource+0x16c>
 8003358:	2b50      	cmp	r3, #80	@ 0x50
 800335a:	d03c      	beq.n	80033d6 <HAL_TIM_ConfigClockSource+0xfa>
 800335c:	2b50      	cmp	r3, #80	@ 0x50
 800335e:	d873      	bhi.n	8003448 <HAL_TIM_ConfigClockSource+0x16c>
 8003360:	2b40      	cmp	r3, #64	@ 0x40
 8003362:	d058      	beq.n	8003416 <HAL_TIM_ConfigClockSource+0x13a>
 8003364:	2b40      	cmp	r3, #64	@ 0x40
 8003366:	d86f      	bhi.n	8003448 <HAL_TIM_ConfigClockSource+0x16c>
 8003368:	2b30      	cmp	r3, #48	@ 0x30
 800336a:	d064      	beq.n	8003436 <HAL_TIM_ConfigClockSource+0x15a>
 800336c:	2b30      	cmp	r3, #48	@ 0x30
 800336e:	d86b      	bhi.n	8003448 <HAL_TIM_ConfigClockSource+0x16c>
 8003370:	2b20      	cmp	r3, #32
 8003372:	d060      	beq.n	8003436 <HAL_TIM_ConfigClockSource+0x15a>
 8003374:	2b20      	cmp	r3, #32
 8003376:	d867      	bhi.n	8003448 <HAL_TIM_ConfigClockSource+0x16c>
 8003378:	2b00      	cmp	r3, #0
 800337a:	d05c      	beq.n	8003436 <HAL_TIM_ConfigClockSource+0x15a>
 800337c:	2b10      	cmp	r3, #16
 800337e:	d05a      	beq.n	8003436 <HAL_TIM_ConfigClockSource+0x15a>
 8003380:	e062      	b.n	8003448 <HAL_TIM_ConfigClockSource+0x16c>
 8003382:	687b      	ldr	r3, [r7, #4]
 8003384:	6818      	ldr	r0, [r3, #0]
 8003386:	683b      	ldr	r3, [r7, #0]
 8003388:	6899      	ldr	r1, [r3, #8]
 800338a:	683b      	ldr	r3, [r7, #0]
 800338c:	685a      	ldr	r2, [r3, #4]
 800338e:	683b      	ldr	r3, [r7, #0]
 8003390:	68db      	ldr	r3, [r3, #12]
 8003392:	f000 fb41 	bl	8003a18 <TIM_ETR_SetConfig>
 8003396:	687b      	ldr	r3, [r7, #4]
 8003398:	681b      	ldr	r3, [r3, #0]
 800339a:	689b      	ldr	r3, [r3, #8]
 800339c:	60bb      	str	r3, [r7, #8]
 800339e:	68bb      	ldr	r3, [r7, #8]
 80033a0:	f043 0377 	orr.w	r3, r3, #119	@ 0x77
 80033a4:	60bb      	str	r3, [r7, #8]
 80033a6:	687b      	ldr	r3, [r7, #4]
 80033a8:	681b      	ldr	r3, [r3, #0]
 80033aa:	68ba      	ldr	r2, [r7, #8]
 80033ac:	609a      	str	r2, [r3, #8]
 80033ae:	e04f      	b.n	8003450 <HAL_TIM_ConfigClockSource+0x174>
 80033b0:	687b      	ldr	r3, [r7, #4]
 80033b2:	6818      	ldr	r0, [r3, #0]
 80033b4:	683b      	ldr	r3, [r7, #0]
 80033b6:	6899      	ldr	r1, [r3, #8]
 80033b8:	683b      	ldr	r3, [r7, #0]
 80033ba:	685a      	ldr	r2, [r3, #4]
 80033bc:	683b      	ldr	r3, [r7, #0]
 80033be:	68db      	ldr	r3, [r3, #12]
 80033c0:	f000 fb2a 	bl	8003a18 <TIM_ETR_SetConfig>
 80033c4:	687b      	ldr	r3, [r7, #4]
 80033c6:	681b      	ldr	r3, [r3, #0]
 80033c8:	689a      	ldr	r2, [r3, #8]
 80033ca:	687b      	ldr	r3, [r7, #4]
 80033cc:	681b      	ldr	r3, [r3, #0]
 80033ce:	f442 4280 	orr.w	r2, r2, #16384	@ 0x4000
 80033d2:	609a      	str	r2, [r3, #8]
 80033d4:	e03c      	b.n	8003450 <HAL_TIM_ConfigClockSource+0x174>
 80033d6:	687b      	ldr	r3, [r7, #4]
 80033d8:	6818      	ldr	r0, [r3, #0]
 80033da:	683b      	ldr	r3, [r7, #0]
 80033dc:	6859      	ldr	r1, [r3, #4]
 80033de:	683b      	ldr	r3, [r7, #0]
 80033e0:	68db      	ldr	r3, [r3, #12]
 80033e2:	461a      	mov	r2, r3
 80033e4:	f000 fa9e 	bl	8003924 <TIM_TI1_ConfigInputStage>
 80033e8:	687b      	ldr	r3, [r7, #4]
 80033ea:	681b      	ldr	r3, [r3, #0]
 80033ec:	2150      	movs	r1, #80	@ 0x50
 80033ee:	4618      	mov	r0, r3
 80033f0:	f000 faf7 	bl	80039e2 <TIM_ITRx_SetConfig>
 80033f4:	e02c      	b.n	8003450 <HAL_TIM_ConfigClockSource+0x174>
 80033f6:	687b      	ldr	r3, [r7, #4]
 80033f8:	6818      	ldr	r0, [r3, #0]
 80033fa:	683b      	ldr	r3, [r7, #0]
 80033fc:	6859      	ldr	r1, [r3, #4]
 80033fe:	683b      	ldr	r3, [r7, #0]
 8003400:	68db      	ldr	r3, [r3, #12]
 8003402:	461a      	mov	r2, r3
 8003404:	f000 fabd 	bl	8003982 <TIM_TI2_ConfigInputStage>
 8003408:	687b      	ldr	r3, [r7, #4]
 800340a:	681b      	ldr	r3, [r3, #0]
 800340c:	2160      	movs	r1, #96	@ 0x60
 800340e:	4618      	mov	r0, r3
 8003410:	f000 fae7 	bl	80039e2 <TIM_ITRx_SetConfig>
 8003414:	e01c      	b.n	8003450 <HAL_TIM_ConfigClockSource+0x174>
 8003416:	687b      	ldr	r3, [r7, #4]
 8003418:	6818      	ldr	r0, [r3, #0]
 800341a:	683b      	ldr	r3, [r7, #0]
 800341c:	6859      	ldr	r1, [r3, #4]
 800341e:	683b      	ldr	r3, [r7, #0]
 8003420:	68db      	ldr	r3, [r3, #12]
 8003422:	461a      	mov	r2, r3
 8003424:	f000 fa7e 	bl	8003924 <TIM_TI1_ConfigInputStage>
 8003428:	687b      	ldr	r3, [r7, #4]
 800342a:	681b      	ldr	r3, [r3, #0]
 800342c:	2140      	movs	r1, #64	@ 0x40
 800342e:	4618      	mov	r0, r3
 8003430:	f000 fad7 	bl	80039e2 <TIM_ITRx_SetConfig>
 8003434:	e00c      	b.n	8003450 <HAL_TIM_ConfigClockSource+0x174>
 8003436:	687b      	ldr	r3, [r7, #4]
 8003438:	681a      	ldr	r2, [r3, #0]
 800343a:	683b      	ldr	r3, [r7, #0]
 800343c:	681b      	ldr	r3, [r3, #0]
 800343e:	4619      	mov	r1, r3
 8003440:	4610      	mov	r0, r2
 8003442:	f000 face 	bl	80039e2 <TIM_ITRx_SetConfig>
 8003446:	e003      	b.n	8003450 <HAL_TIM_ConfigClockSource+0x174>
 8003448:	2301      	movs	r3, #1
 800344a:	73fb      	strb	r3, [r7, #15]
 800344c:	e000      	b.n	8003450 <HAL_TIM_ConfigClockSource+0x174>
 800344e:	bf00      	nop
 8003450:	687b      	ldr	r3, [r7, #4]
 8003452:	2201      	movs	r2, #1
 8003454:	f883 203d 	strb.w	r2, [r3, #61]	@ 0x3d
 8003458:	687b      	ldr	r3, [r7, #4]
 800345a:	2200      	movs	r2, #0
 800345c:	f883 203c 	strb.w	r2, [r3, #60]	@ 0x3c
 8003460:	7bfb      	ldrb	r3, [r7, #15]
 8003462:	4618      	mov	r0, r3
 8003464:	3710      	adds	r7, #16
 8003466:	46bd      	mov	sp, r7
 8003468:	bd80      	pop	{r7, pc}
	...

0800346c <TIM_Base_SetConfig>:
 800346c:	b480      	push	{r7}
 800346e:	b085      	sub	sp, #20
 8003470:	af00      	add	r7, sp, #0
 8003472:	6078      	str	r0, [r7, #4]
 8003474:	6039      	str	r1, [r7, #0]
 8003476:	687b      	ldr	r3, [r7, #4]
 8003478:	681b      	ldr	r3, [r3, #0]
 800347a:	60fb      	str	r3, [r7, #12]
 800347c:	687b      	ldr	r3, [r7, #4]
 800347e:	4a46      	ldr	r2, [pc, #280]	@ (8003598 <TIM_Base_SetConfig+0x12c>)
 8003480:	4293      	cmp	r3, r2
 8003482:	d013      	beq.n	80034ac <TIM_Base_SetConfig+0x40>
 8003484:	687b      	ldr	r3, [r7, #4]
 8003486:	f1b3 4f80 	cmp.w	r3, #1073741824	@ 0x40000000
 800348a:	d00f      	beq.n	80034ac <TIM_Base_SetConfig+0x40>
 800348c:	687b      	ldr	r3, [r7, #4]
 800348e:	4a43      	ldr	r2, [pc, #268]	@ (800359c <TIM_Base_SetConfig+0x130>)
 8003490:	4293      	cmp	r3, r2
 8003492:	d00b      	beq.n	80034ac <TIM_Base_SetConfig+0x40>
 8003494:	687b      	ldr	r3, [r7, #4]
 8003496:	4a42      	ldr	r2, [pc, #264]	@ (80035a0 <TIM_Base_SetConfig+0x134>)
 8003498:	4293      	cmp	r3, r2
 800349a:	d007      	beq.n	80034ac <TIM_Base_SetConfig+0x40>
 800349c:	687b      	ldr	r3, [r7, #4]
 800349e:	4a41      	ldr	r2, [pc, #260]	@ (80035a4 <TIM_Base_SetConfig+0x138>)
 80034a0:	4293      	cmp	r3, r2
 80034a2:	d003      	beq.n	80034ac <TIM_Base_SetConfig+0x40>
 80034a4:	687b      	ldr	r3, [r7, #4]
 80034a6:	4a40      	ldr	r2, [pc, #256]	@ (80035a8 <TIM_Base_SetConfig+0x13c>)
 80034a8:	4293      	cmp	r3, r2
 80034aa:	d108      	bne.n	80034be <TIM_Base_SetConfig+0x52>
 80034ac:	68fb      	ldr	r3, [r7, #12]
 80034ae:	f023 0370 	bic.w	r3, r3, #112	@ 0x70
 80034b2:	60fb      	str	r3, [r7, #12]
 80034b4:	683b      	ldr	r3, [r7, #0]
 80034b6:	685b      	ldr	r3, [r3, #4]
 80034b8:	68fa      	ldr	r2, [r7, #12]
 80034ba:	4313      	orrs	r3, r2
 80034bc:	60fb      	str	r3, [r7, #12]
 80034be:	687b      	ldr	r3, [r7, #4]
 80034c0:	4a35      	ldr	r2, [pc, #212]	@ (8003598 <TIM_Base_SetConfig+0x12c>)
 80034c2:	4293      	cmp	r3, r2
 80034c4:	d02b      	beq.n	800351e <TIM_Base_SetConfig+0xb2>
 80034c6:	687b      	ldr	r3, [r7, #4]
 80034c8:	f1b3 4f80 	cmp.w	r3, #1073741824	@ 0x40000000
 80034cc:	d027      	beq.n	800351e <TIM_Base_SetConfig+0xb2>
 80034ce:	687b      	ldr	r3, [r7, #4]
 80034d0:	4a32      	ldr	r2, [pc, #200]	@ (800359c <TIM_Base_SetConfig+0x130>)
 80034d2:	4293      	cmp	r3, r2
 80034d4:	d023      	beq.n	800351e <TIM_Base_SetConfig+0xb2>
 80034d6:	687b      	ldr	r3, [r7, #4]
 80034d8:	4a31      	ldr	r2, [pc, #196]	@ (80035a0 <TIM_Base_SetConfig+0x134>)
 80034da:	4293      	cmp	r3, r2
 80034dc:	d01f      	beq.n	800351e <TIM_Base_SetConfig+0xb2>
 80034de:	687b      	ldr	r3, [r7, #4]
 80034e0:	4a30      	ldr	r2, [pc, #192]	@ (80035a4 <TIM_Base_SetConfig+0x138>)
 80034e2:	4293      	cmp	r3, r2
 80034e4:	d01b      	beq.n	800351e <TIM_Base_SetConfig+0xb2>
 80034e6:	687b      	ldr	r3, [r7, #4]
 80034e8:	4a2f      	ldr	r2, [pc, #188]	@ (80035a8 <TIM_Base_SetConfig+0x13c>)
 80034ea:	4293      	cmp	r3, r2
 80034ec:	d017      	beq.n	800351e <TIM_Base_SetConfig+0xb2>
 80034ee:	687b      	ldr	r3, [r7, #4]
 80034f0:	4a2e      	ldr	r2, [pc, #184]	@ (80035ac <TIM_Base_SetConfig+0x140>)
 80034f2:	4293      	cmp	r3, r2
 80034f4:	d013      	beq.n	800351e <TIM_Base_SetConfig+0xb2>
 80034f6:	687b      	ldr	r3, [r7, #4]
 80034f8:	4a2d      	ldr	r2, [pc, #180]	@ (80035b0 <TIM_Base_SetConfig+0x144>)
 80034fa:	4293      	cmp	r3, r2
 80034fc:	d00f      	beq.n	800351e <TIM_Base_SetConfig+0xb2>
 80034fe:	687b      	ldr	r3, [r7, #4]
 8003500:	4a2c      	ldr	r2, [pc, #176]	@ (80035b4 <TIM_Base_SetConfig+0x148>)
 8003502:	4293      	cmp	r3, r2
 8003504:	d00b      	beq.n	800351e <TIM_Base_SetConfig+0xb2>
 8003506:	687b      	ldr	r3, [r7, #4]
 8003508:	4a2b      	ldr	r2, [pc, #172]	@ (80035b8 <TIM_Base_SetConfig+0x14c>)
 800350a:	4293      	cmp	r3, r2
 800350c:	d007      	beq.n	800351e <TIM_Base_SetConfig+0xb2>
 800350e:	687b      	ldr	r3, [r7, #4]
 8003510:	4a2a      	ldr	r2, [pc, #168]	@ (80035bc <TIM_Base_SetConfig+0x150>)
 8003512:	4293      	cmp	r3, r2
 8003514:	d003      	beq.n	800351e <TIM_Base_SetConfig+0xb2>
 8003516:	687b      	ldr	r3, [r7, #4]
 8003518:	4a29      	ldr	r2, [pc, #164]	@ (80035c0 <TIM_Base_SetConfig+0x154>)
 800351a:	4293      	cmp	r3, r2
 800351c:	d108      	bne.n	8003530 <TIM_Base_SetConfig+0xc4>
 800351e:	68fb      	ldr	r3, [r7, #12]
 8003520:	f423 7340 	bic.w	r3, r3, #768	@ 0x300
 8003524:	60fb      	str	r3, [r7, #12]
 8003526:	683b      	ldr	r3, [r7, #0]
 8003528:	68db      	ldr	r3, [r3, #12]
 800352a:	68fa      	ldr	r2, [r7, #12]
 800352c:	4313      	orrs	r3, r2
 800352e:	60fb      	str	r3, [r7, #12]
 8003530:	68fb      	ldr	r3, [r7, #12]
 8003532:	f023 0280 	bic.w	r2, r3, #128	@ 0x80
 8003536:	683b      	ldr	r3, [r7, #0]
 8003538:	695b      	ldr	r3, [r3, #20]
 800353a:	4313      	orrs	r3, r2
 800353c:	60fb      	str	r3, [r7, #12]
 800353e:	687b      	ldr	r3, [r7, #4]
 8003540:	68fa      	ldr	r2, [r7, #12]
 8003542:	601a      	str	r2, [r3, #0]
 8003544:	683b      	ldr	r3, [r7, #0]
 8003546:	689a      	ldr	r2, [r3, #8]
 8003548:	687b      	ldr	r3, [r7, #4]
 800354a:	62da      	str	r2, [r3, #44]	@ 0x2c
 800354c:	683b      	ldr	r3, [r7, #0]
 800354e:	681a      	ldr	r2, [r3, #0]
 8003550:	687b      	ldr	r3, [r7, #4]
 8003552:	629a      	str	r2, [r3, #40]	@ 0x28
 8003554:	687b      	ldr	r3, [r7, #4]
 8003556:	4a10      	ldr	r2, [pc, #64]	@ (8003598 <TIM_Base_SetConfig+0x12c>)
 8003558:	4293      	cmp	r3, r2
 800355a:	d003      	beq.n	8003564 <TIM_Base_SetConfig+0xf8>
 800355c:	687b      	ldr	r3, [r7, #4]
 800355e:	4a12      	ldr	r2, [pc, #72]	@ (80035a8 <TIM_Base_SetConfig+0x13c>)
 8003560:	4293      	cmp	r3, r2
 8003562:	d103      	bne.n	800356c <TIM_Base_SetConfig+0x100>
 8003564:	683b      	ldr	r3, [r7, #0]
 8003566:	691a      	ldr	r2, [r3, #16]
 8003568:	687b      	ldr	r3, [r7, #4]
 800356a:	631a      	str	r2, [r3, #48]	@ 0x30
 800356c:	687b      	ldr	r3, [r7, #4]
 800356e:	2201      	movs	r2, #1
 8003570:	615a      	str	r2, [r3, #20]
 8003572:	687b      	ldr	r3, [r7, #4]
 8003574:	691b      	ldr	r3, [r3, #16]
 8003576:	f003 0301 	and.w	r3, r3, #1
 800357a:	2b01      	cmp	r3, #1
 800357c:	d105      	bne.n	800358a <TIM_Base_SetConfig+0x11e>
 800357e:	687b      	ldr	r3, [r7, #4]
 8003580:	691b      	ldr	r3, [r3, #16]
 8003582:	f023 0201 	bic.w	r2, r3, #1
 8003586:	687b      	ldr	r3, [r7, #4]
 8003588:	611a      	str	r2, [r3, #16]
 800358a:	bf00      	nop
 800358c:	3714      	adds	r7, #20
 800358e:	46bd      	mov	sp, r7
 8003590:	f85d 7b04 	ldr.w	r7, [sp], #4
 8003594:	4770      	bx	lr
 8003596:	bf00      	nop
 8003598:	40010000 	.word	0x40010000
 800359c:	40000400 	.word	0x40000400
 80035a0:	40000800 	.word	0x40000800
 80035a4:	40000c00 	.word	0x40000c00
 80035a8:	40010400 	.word	0x40010400
 80035ac:	40014000 	.word	0x40014000
 80035b0:	40014400 	.word	0x40014400
 80035b4:	40014800 	.word	0x40014800
 80035b8:	40001800 	.word	0x40001800
 80035bc:	40001c00 	.word	0x40001c00
 80035c0:	40002000 	.word	0x40002000

080035c4 <TIM_OC1_SetConfig>:
 80035c4:	b480      	push	{r7}
 80035c6:	b087      	sub	sp, #28
 80035c8:	af00      	add	r7, sp, #0
 80035ca:	6078      	str	r0, [r7, #4]
 80035cc:	6039      	str	r1, [r7, #0]
 80035ce:	687b      	ldr	r3, [r7, #4]
 80035d0:	6a1b      	ldr	r3, [r3, #32]
 80035d2:	617b      	str	r3, [r7, #20]
 80035d4:	687b      	ldr	r3, [r7, #4]
 80035d6:	6a1b      	ldr	r3, [r3, #32]
 80035d8:	f023 0201 	bic.w	r2, r3, #1
 80035dc:	687b      	ldr	r3, [r7, #4]
 80035de:	621a      	str	r2, [r3, #32]
 80035e0:	687b      	ldr	r3, [r7, #4]
 80035e2:	685b      	ldr	r3, [r3, #4]
 80035e4:	613b      	str	r3, [r7, #16]
 80035e6:	687b      	ldr	r3, [r7, #4]
 80035e8:	699b      	ldr	r3, [r3, #24]
 80035ea:	60fb      	str	r3, [r7, #12]
 80035ec:	68fb      	ldr	r3, [r7, #12]
 80035ee:	f023 0370 	bic.w	r3, r3, #112	@ 0x70
 80035f2:	60fb      	str	r3, [r7, #12]
 80035f4:	68fb      	ldr	r3, [r7, #12]
 80035f6:	f023 0303 	bic.w	r3, r3, #3
 80035fa:	60fb      	str	r3, [r7, #12]
 80035fc:	683b      	ldr	r3, [r7, #0]
 80035fe:	681b      	ldr	r3, [r3, #0]
 8003600:	68fa      	ldr	r2, [r7, #12]
 8003602:	4313      	orrs	r3, r2
 8003604:	60fb      	str	r3, [r7, #12]
 8003606:	697b      	ldr	r3, [r7, #20]
 8003608:	f023 0302 	bic.w	r3, r3, #2
 800360c:	617b      	str	r3, [r7, #20]
 800360e:	683b      	ldr	r3, [r7, #0]
 8003610:	689b      	ldr	r3, [r3, #8]
 8003612:	697a      	ldr	r2, [r7, #20]
 8003614:	4313      	orrs	r3, r2
 8003616:	617b      	str	r3, [r7, #20]
 8003618:	687b      	ldr	r3, [r7, #4]
 800361a:	4a20      	ldr	r2, [pc, #128]	@ (800369c <TIM_OC1_SetConfig+0xd8>)
 800361c:	4293      	cmp	r3, r2
 800361e:	d003      	beq.n	8003628 <TIM_OC1_SetConfig+0x64>
 8003620:	687b      	ldr	r3, [r7, #4]
 8003622:	4a1f      	ldr	r2, [pc, #124]	@ (80036a0 <TIM_OC1_SetConfig+0xdc>)
 8003624:	4293      	cmp	r3, r2
 8003626:	d10c      	bne.n	8003642 <TIM_OC1_SetConfig+0x7e>
 8003628:	697b      	ldr	r3, [r7, #20]
 800362a:	f023 0308 	bic.w	r3, r3, #8
 800362e:	617b      	str	r3, [r7, #20]
 8003630:	683b      	ldr	r3, [r7, #0]
 8003632:	68db      	ldr	r3, [r3, #12]
 8003634:	697a      	ldr	r2, [r7, #20]
 8003636:	4313      	orrs	r3, r2
 8003638:	617b      	str	r3, [r7, #20]
 800363a:	697b      	ldr	r3, [r7, #20]
 800363c:	f023 0304 	bic.w	r3, r3, #4
 8003640:	617b      	str	r3, [r7, #20]
 8003642:	687b      	ldr	r3, [r7, #4]
 8003644:	4a15      	ldr	r2, [pc, #84]	@ (800369c <TIM_OC1_SetConfig+0xd8>)
 8003646:	4293      	cmp	r3, r2
 8003648:	d003      	beq.n	8003652 <TIM_OC1_SetConfig+0x8e>
 800364a:	687b      	ldr	r3, [r7, #4]
 800364c:	4a14      	ldr	r2, [pc, #80]	@ (80036a0 <TIM_OC1_SetConfig+0xdc>)
 800364e:	4293      	cmp	r3, r2
 8003650:	d111      	bne.n	8003676 <TIM_OC1_SetConfig+0xb2>
 8003652:	693b      	ldr	r3, [r7, #16]
 8003654:	f423 7380 	bic.w	r3, r3, #256	@ 0x100
 8003658:	613b      	str	r3, [r7, #16]
 800365a:	693b      	ldr	r3, [r7, #16]
 800365c:	f423 7300 	bic.w	r3, r3, #512	@ 0x200
 8003660:	613b      	str	r3, [r7, #16]
 8003662:	683b      	ldr	r3, [r7, #0]
 8003664:	695b      	ldr	r3, [r3, #20]
 8003666:	693a      	ldr	r2, [r7, #16]
 8003668:	4313      	orrs	r3, r2
 800366a:	613b      	str	r3, [r7, #16]
 800366c:	683b      	ldr	r3, [r7, #0]
 800366e:	699b      	ldr	r3, [r3, #24]
 8003670:	693a      	ldr	r2, [r7, #16]
 8003672:	4313      	orrs	r3, r2
 8003674:	613b      	str	r3, [r7, #16]
 8003676:	687b      	ldr	r3, [r7, #4]
 8003678:	693a      	ldr	r2, [r7, #16]
 800367a:	605a      	str	r2, [r3, #4]
 800367c:	687b      	ldr	r3, [r7, #4]
 800367e:	68fa      	ldr	r2, [r7, #12]
 8003680:	619a      	str	r2, [r3, #24]
 8003682:	683b      	ldr	r3, [r7, #0]
 8003684:	685a      	ldr	r2, [r3, #4]
 8003686:	687b      	ldr	r3, [r7, #4]
 8003688:	635a      	str	r2, [r3, #52]	@ 0x34
 800368a:	687b      	ldr	r3, [r7, #4]
 800368c:	697a      	ldr	r2, [r7, #20]
 800368e:	621a      	str	r2, [r3, #32]
 8003690:	bf00      	nop
 8003692:	371c      	adds	r7, #28
 8003694:	46bd      	mov	sp, r7
 8003696:	f85d 7b04 	ldr.w	r7, [sp], #4
 800369a:	4770      	bx	lr
 800369c:	40010000 	.word	0x40010000
 80036a0:	40010400 	.word	0x40010400

080036a4 <TIM_OC2_SetConfig>:
 80036a4:	b480      	push	{r7}
 80036a6:	b087      	sub	sp, #28
 80036a8:	af00      	add	r7, sp, #0
 80036aa:	6078      	str	r0, [r7, #4]
 80036ac:	6039      	str	r1, [r7, #0]
 80036ae:	687b      	ldr	r3, [r7, #4]
 80036b0:	6a1b      	ldr	r3, [r3, #32]
 80036b2:	617b      	str	r3, [r7, #20]
 80036b4:	687b      	ldr	r3, [r7, #4]
 80036b6:	6a1b      	ldr	r3, [r3, #32]
 80036b8:	f023 0210 	bic.w	r2, r3, #16
 80036bc:	687b      	ldr	r3, [r7, #4]
 80036be:	621a      	str	r2, [r3, #32]
 80036c0:	687b      	ldr	r3, [r7, #4]
 80036c2:	685b      	ldr	r3, [r3, #4]
 80036c4:	613b      	str	r3, [r7, #16]
 80036c6:	687b      	ldr	r3, [r7, #4]
 80036c8:	699b      	ldr	r3, [r3, #24]
 80036ca:	60fb      	str	r3, [r7, #12]
 80036cc:	68fb      	ldr	r3, [r7, #12]
 80036ce:	f423 43e0 	bic.w	r3, r3, #28672	@ 0x7000
 80036d2:	60fb      	str	r3, [r7, #12]
 80036d4:	68fb      	ldr	r3, [r7, #12]
 80036d6:	f423 7340 	bic.w	r3, r3, #768	@ 0x300
 80036da:	60fb      	str	r3, [r7, #12]
 80036dc:	683b      	ldr	r3, [r7, #0]
 80036de:	681b      	ldr	r3, [r3, #0]
 80036e0:	021b      	lsls	r3, r3, #8
 80036e2:	68fa      	ldr	r2, [r7, #12]
 80036e4:	4313      	orrs	r3, r2
 80036e6:	60fb      	str	r3, [r7, #12]
 80036e8:	697b      	ldr	r3, [r7, #20]
 80036ea:	f023 0320 	bic.w	r3, r3, #32
 80036ee:	617b      	str	r3, [r7, #20]
 80036f0:	683b      	ldr	r3, [r7, #0]
 80036f2:	689b      	ldr	r3, [r3, #8]
 80036f4:	011b      	lsls	r3, r3, #4
 80036f6:	697a      	ldr	r2, [r7, #20]
 80036f8:	4313      	orrs	r3, r2
 80036fa:	617b      	str	r3, [r7, #20]
 80036fc:	687b      	ldr	r3, [r7, #4]
 80036fe:	4a22      	ldr	r2, [pc, #136]	@ (8003788 <TIM_OC2_SetConfig+0xe4>)
 8003700:	4293      	cmp	r3, r2
 8003702:	d003      	beq.n	800370c <TIM_OC2_SetConfig+0x68>
 8003704:	687b      	ldr	r3, [r7, #4]
 8003706:	4a21      	ldr	r2, [pc, #132]	@ (800378c <TIM_OC2_SetConfig+0xe8>)
 8003708:	4293      	cmp	r3, r2
 800370a:	d10d      	bne.n	8003728 <TIM_OC2_SetConfig+0x84>
 800370c:	697b      	ldr	r3, [r7, #20]
 800370e:	f023 0380 	bic.w	r3, r3, #128	@ 0x80
 8003712:	617b      	str	r3, [r7, #20]
 8003714:	683b      	ldr	r3, [r7, #0]
 8003716:	68db      	ldr	r3, [r3, #12]
 8003718:	011b      	lsls	r3, r3, #4
 800371a:	697a      	ldr	r2, [r7, #20]
 800371c:	4313      	orrs	r3, r2
 800371e:	617b      	str	r3, [r7, #20]
 8003720:	697b      	ldr	r3, [r7, #20]
 8003722:	f023 0340 	bic.w	r3, r3, #64	@ 0x40
 8003726:	617b      	str	r3, [r7, #20]
 8003728:	687b      	ldr	r3, [r7, #4]
 800372a:	4a17      	ldr	r2, [pc, #92]	@ (8003788 <TIM_OC2_SetConfig+0xe4>)
 800372c:	4293      	cmp	r3, r2
 800372e:	d003      	beq.n	8003738 <TIM_OC2_SetConfig+0x94>
 8003730:	687b      	ldr	r3, [r7, #4]
 8003732:	4a16      	ldr	r2, [pc, #88]	@ (800378c <TIM_OC2_SetConfig+0xe8>)
 8003734:	4293      	cmp	r3, r2
 8003736:	d113      	bne.n	8003760 <TIM_OC2_SetConfig+0xbc>
 8003738:	693b      	ldr	r3, [r7, #16]
 800373a:	f423 6380 	bic.w	r3, r3, #1024	@ 0x400
 800373e:	613b      	str	r3, [r7, #16]
 8003740:	693b      	ldr	r3, [r7, #16]
 8003742:	f423 6300 	bic.w	r3, r3, #2048	@ 0x800
 8003746:	613b      	str	r3, [r7, #16]
 8003748:	683b      	ldr	r3, [r7, #0]
 800374a:	695b      	ldr	r3, [r3, #20]
 800374c:	009b      	lsls	r3, r3, #2
 800374e:	693a      	ldr	r2, [r7, #16]
 8003750:	4313      	orrs	r3, r2
 8003752:	613b      	str	r3, [r7, #16]
 8003754:	683b      	ldr	r3, [r7, #0]
 8003756:	699b      	ldr	r3, [r3, #24]
 8003758:	009b      	lsls	r3, r3, #2
 800375a:	693a      	ldr	r2, [r7, #16]
 800375c:	4313      	orrs	r3, r2
 800375e:	613b      	str	r3, [r7, #16]
 8003760:	687b      	ldr	r3, [r7, #4]
 8003762:	693a      	ldr	r2, [r7, #16]
 8003764:	605a      	str	r2, [r3, #4]
 8003766:	687b      	ldr	r3, [r7, #4]
 8003768:	68fa      	ldr	r2, [r7, #12]
 800376a:	619a      	str	r2, [r3, #24]
 800376c:	683b      	ldr	r3, [r7, #0]
 800376e:	685a      	ldr	r2, [r3, #4]
 8003770:	687b      	ldr	r3, [r7, #4]
 8003772:	639a      	str	r2, [r3, #56]	@ 0x38
 8003774:	687b      	ldr	r3, [r7, #4]
 8003776:	697a      	ldr	r2, [r7, #20]
 8003778:	621a      	str	r2, [r3, #32]
 800377a:	bf00      	nop
 800377c:	371c      	adds	r7, #28
 800377e:	46bd      	mov	sp, r7
 8003780:	f85d 7b04 	ldr.w	r7, [sp], #4
 8003784:	4770      	bx	lr
 8003786:	bf00      	nop
 8003788:	40010000 	.word	0x40010000
 800378c:	40010400 	.word	0x40010400

08003790 <TIM_OC3_SetConfig>:
 8003790:	b480      	push	{r7}
 8003792:	b087      	sub	sp, #28
 8003794:	af00      	add	r7, sp, #0
 8003796:	6078      	str	r0, [r7, #4]
 8003798:	6039      	str	r1, [r7, #0]
 800379a:	687b      	ldr	r3, [r7, #4]
 800379c:	6a1b      	ldr	r3, [r3, #32]
 800379e:	617b      	str	r3, [r7, #20]
 80037a0:	687b      	ldr	r3, [r7, #4]
 80037a2:	6a1b      	ldr	r3, [r3, #32]
 80037a4:	f423 7280 	bic.w	r2, r3, #256	@ 0x100
 80037a8:	687b      	ldr	r3, [r7, #4]
 80037aa:	621a      	str	r2, [r3, #32]
 80037ac:	687b      	ldr	r3, [r7, #4]
 80037ae:	685b      	ldr	r3, [r3, #4]
 80037b0:	613b      	str	r3, [r7, #16]
 80037b2:	687b      	ldr	r3, [r7, #4]
 80037b4:	69db      	ldr	r3, [r3, #28]
 80037b6:	60fb      	str	r3, [r7, #12]
 80037b8:	68fb      	ldr	r3, [r7, #12]
 80037ba:	f023 0370 	bic.w	r3, r3, #112	@ 0x70
 80037be:	60fb      	str	r3, [r7, #12]
 80037c0:	68fb      	ldr	r3, [r7, #12]
 80037c2:	f023 0303 	bic.w	r3, r3, #3
 80037c6:	60fb      	str	r3, [r7, #12]
 80037c8:	683b      	ldr	r3, [r7, #0]
 80037ca:	681b      	ldr	r3, [r3, #0]
 80037cc:	68fa      	ldr	r2, [r7, #12]
 80037ce:	4313      	orrs	r3, r2
 80037d0:	60fb      	str	r3, [r7, #12]
 80037d2:	697b      	ldr	r3, [r7, #20]
 80037d4:	f423 7300 	bic.w	r3, r3, #512	@ 0x200
 80037d8:	617b      	str	r3, [r7, #20]
 80037da:	683b      	ldr	r3, [r7, #0]
 80037dc:	689b      	ldr	r3, [r3, #8]
 80037de:	021b      	lsls	r3, r3, #8
 80037e0:	697a      	ldr	r2, [r7, #20]
 80037e2:	4313      	orrs	r3, r2
 80037e4:	617b      	str	r3, [r7, #20]
 80037e6:	687b      	ldr	r3, [r7, #4]
 80037e8:	4a21      	ldr	r2, [pc, #132]	@ (8003870 <TIM_OC3_SetConfig+0xe0>)
 80037ea:	4293      	cmp	r3, r2
 80037ec:	d003      	beq.n	80037f6 <TIM_OC3_SetConfig+0x66>
 80037ee:	687b      	ldr	r3, [r7, #4]
 80037f0:	4a20      	ldr	r2, [pc, #128]	@ (8003874 <TIM_OC3_SetConfig+0xe4>)
 80037f2:	4293      	cmp	r3, r2
 80037f4:	d10d      	bne.n	8003812 <TIM_OC3_SetConfig+0x82>
 80037f6:	697b      	ldr	r3, [r7, #20]
 80037f8:	f423 6300 	bic.w	r3, r3, #2048	@ 0x800
 80037fc:	617b      	str	r3, [r7, #20]
 80037fe:	683b      	ldr	r3, [r7, #0]
 8003800:	68db      	ldr	r3, [r3, #12]
 8003802:	021b      	lsls	r3, r3, #8
 8003804:	697a      	ldr	r2, [r7, #20]
 8003806:	4313      	orrs	r3, r2
 8003808:	617b      	str	r3, [r7, #20]
 800380a:	697b      	ldr	r3, [r7, #20]
 800380c:	f423 6380 	bic.w	r3, r3, #1024	@ 0x400
 8003810:	617b      	str	r3, [r7, #20]
 8003812:	687b      	ldr	r3, [r7, #4]
 8003814:	4a16      	ldr	r2, [pc, #88]	@ (8003870 <TIM_OC3_SetConfig+0xe0>)
 8003816:	4293      	cmp	r3, r2
 8003818:	d003      	beq.n	8003822 <TIM_OC3_SetConfig+0x92>
 800381a:	687b      	ldr	r3, [r7, #4]
 800381c:	4a15      	ldr	r2, [pc, #84]	@ (8003874 <TIM_OC3_SetConfig+0xe4>)
 800381e:	4293      	cmp	r3, r2
 8003820:	d113      	bne.n	800384a <TIM_OC3_SetConfig+0xba>
 8003822:	693b      	ldr	r3, [r7, #16]
 8003824:	f423 5380 	bic.w	r3, r3, #4096	@ 0x1000
 8003828:	613b      	str	r3, [r7, #16]
 800382a:	693b      	ldr	r3, [r7, #16]
 800382c:	f423 5300 	bic.w	r3, r3, #8192	@ 0x2000
 8003830:	613b      	str	r3, [r7, #16]
 8003832:	683b      	ldr	r3, [r7, #0]
 8003834:	695b      	ldr	r3, [r3, #20]
 8003836:	011b      	lsls	r3, r3, #4
 8003838:	693a      	ldr	r2, [r7, #16]
 800383a:	4313      	orrs	r3, r2
 800383c:	613b      	str	r3, [r7, #16]
 800383e:	683b      	ldr	r3, [r7, #0]
 8003840:	699b      	ldr	r3, [r3, #24]
 8003842:	011b      	lsls	r3, r3, #4
 8003844:	693a      	ldr	r2, [r7, #16]
 8003846:	4313      	orrs	r3, r2
 8003848:	613b      	str	r3, [r7, #16]
 800384a:	687b      	ldr	r3, [r7, #4]
 800384c:	693a      	ldr	r2, [r7, #16]
 800384e:	605a      	str	r2, [r3, #4]
 8003850:	687b      	ldr	r3, [r7, #4]
 8003852:	68fa      	ldr	r2, [r7, #12]
 8003854:	61da      	str	r2, [r3, #28]
 8003856:	683b      	ldr	r3, [r7, #0]
 8003858:	685a      	ldr	r2, [r3, #4]
 800385a:	687b      	ldr	r3, [r7, #4]
 800385c:	63da      	str	r2, [r3, #60]	@ 0x3c
 800385e:	687b      	ldr	r3, [r7, #4]
 8003860:	697a      	ldr	r2, [r7, #20]
 8003862:	621a      	str	r2, [r3, #32]
 8003864:	bf00      	nop
 8003866:	371c      	adds	r7, #28
 8003868:	46bd      	mov	sp, r7
 800386a:	f85d 7b04 	ldr.w	r7, [sp], #4
 800386e:	4770      	bx	lr
 8003870:	40010000 	.word	0x40010000
 8003874:	40010400 	.word	0x40010400

08003878 <TIM_OC4_SetConfig>:
 8003878:	b480      	push	{r7}
 800387a:	b087      	sub	sp, #28
 800387c:	af00      	add	r7, sp, #0
 800387e:	6078      	str	r0, [r7, #4]
 8003880:	6039      	str	r1, [r7, #0]
 8003882:	687b      	ldr	r3, [r7, #4]
 8003884:	6a1b      	ldr	r3, [r3, #32]
 8003886:	613b      	str	r3, [r7, #16]
 8003888:	687b      	ldr	r3, [r7, #4]
 800388a:	6a1b      	ldr	r3, [r3, #32]
 800388c:	f423 5280 	bic.w	r2, r3, #4096	@ 0x1000
 8003890:	687b      	ldr	r3, [r7, #4]
 8003892:	621a      	str	r2, [r3, #32]
 8003894:	687b      	ldr	r3, [r7, #4]
 8003896:	685b      	ldr	r3, [r3, #4]
 8003898:	617b      	str	r3, [r7, #20]
 800389a:	687b      	ldr	r3, [r7, #4]
 800389c:	69db      	ldr	r3, [r3, #28]
 800389e:	60fb      	str	r3, [r7, #12]
 80038a0:	68fb      	ldr	r3, [r7, #12]
 80038a2:	f423 43e0 	bic.w	r3, r3, #28672	@ 0x7000
 80038a6:	60fb      	str	r3, [r7, #12]
 80038a8:	68fb      	ldr	r3, [r7, #12]
 80038aa:	f423 7340 	bic.w	r3, r3, #768	@ 0x300
 80038ae:	60fb      	str	r3, [r7, #12]
 80038b0:	683b      	ldr	r3, [r7, #0]
 80038b2:	681b      	ldr	r3, [r3, #0]
 80038b4:	021b      	lsls	r3, r3, #8
 80038b6:	68fa      	ldr	r2, [r7, #12]
 80038b8:	4313      	orrs	r3, r2
 80038ba:	60fb      	str	r3, [r7, #12]
 80038bc:	693b      	ldr	r3, [r7, #16]
 80038be:	f423 5300 	bic.w	r3, r3, #8192	@ 0x2000
 80038c2:	613b      	str	r3, [r7, #16]
 80038c4:	683b      	ldr	r3, [r7, #0]
 80038c6:	689b      	ldr	r3, [r3, #8]
 80038c8:	031b      	lsls	r3, r3, #12
 80038ca:	693a      	ldr	r2, [r7, #16]
 80038cc:	4313      	orrs	r3, r2
 80038ce:	613b      	str	r3, [r7, #16]
 80038d0:	687b      	ldr	r3, [r7, #4]
 80038d2:	4a12      	ldr	r2, [pc, #72]	@ (800391c <TIM_OC4_SetConfig+0xa4>)
 80038d4:	4293      	cmp	r3, r2
 80038d6:	d003      	beq.n	80038e0 <TIM_OC4_SetConfig+0x68>
 80038d8:	687b      	ldr	r3, [r7, #4]
 80038da:	4a11      	ldr	r2, [pc, #68]	@ (8003920 <TIM_OC4_SetConfig+0xa8>)
 80038dc:	4293      	cmp	r3, r2
 80038de:	d109      	bne.n	80038f4 <TIM_OC4_SetConfig+0x7c>
 80038e0:	697b      	ldr	r3, [r7, #20]
 80038e2:	f423 4380 	bic.w	r3, r3, #16384	@ 0x4000
 80038e6:	617b      	str	r3, [r7, #20]
 80038e8:	683b      	ldr	r3, [r7, #0]
 80038ea:	695b      	ldr	r3, [r3, #20]
 80038ec:	019b      	lsls	r3, r3, #6
 80038ee:	697a      	ldr	r2, [r7, #20]
 80038f0:	4313      	orrs	r3, r2
 80038f2:	617b      	str	r3, [r7, #20]
 80038f4:	687b      	ldr	r3, [r7, #4]
 80038f6:	697a      	ldr	r2, [r7, #20]
 80038f8:	605a      	str	r2, [r3, #4]
 80038fa:	687b      	ldr	r3, [r7, #4]
 80038fc:	68fa      	ldr	r2, [r7, #12]
 80038fe:	61da      	str	r2, [r3, #28]
 8003900:	683b      	ldr	r3, [r7, #0]
 8003902:	685a      	ldr	r2, [r3, #4]
 8003904:	687b      	ldr	r3, [r7, #4]
 8003906:	641a      	str	r2, [r3, #64]	@ 0x40
 8003908:	687b      	ldr	r3, [r7, #4]
 800390a:	693a      	ldr	r2, [r7, #16]
 800390c:	621a      	str	r2, [r3, #32]
 800390e:	bf00      	nop
 8003910:	371c      	adds	r7, #28
 8003912:	46bd      	mov	sp, r7
 8003914:	f85d 7b04 	ldr.w	r7, [sp], #4
 8003918:	4770      	bx	lr
 800391a:	bf00      	nop
 800391c:	40010000 	.word	0x40010000
 8003920:	40010400 	.word	0x40010400

08003924 <TIM_TI1_ConfigInputStage>:
 8003924:	b480      	push	{r7}
 8003926:	b087      	sub	sp, #28
 8003928:	af00      	add	r7, sp, #0
 800392a:	60f8      	str	r0, [r7, #12]
 800392c:	60b9      	str	r1, [r7, #8]
 800392e:	607a      	str	r2, [r7, #4]
 8003930:	68fb      	ldr	r3, [r7, #12]
 8003932:	6a1b      	ldr	r3, [r3, #32]
 8003934:	617b      	str	r3, [r7, #20]
 8003936:	68fb      	ldr	r3, [r7, #12]
 8003938:	6a1b      	ldr	r3, [r3, #32]
 800393a:	f023 0201 	bic.w	r2, r3, #1
 800393e:	68fb      	ldr	r3, [r7, #12]
 8003940:	621a      	str	r2, [r3, #32]
 8003942:	68fb      	ldr	r3, [r7, #12]
 8003944:	699b      	ldr	r3, [r3, #24]
 8003946:	613b      	str	r3, [r7, #16]
 8003948:	693b      	ldr	r3, [r7, #16]
 800394a:	f023 03f0 	bic.w	r3, r3, #240	@ 0xf0
 800394e:	613b      	str	r3, [r7, #16]
 8003950:	687b      	ldr	r3, [r7, #4]
 8003952:	011b      	lsls	r3, r3, #4
 8003954:	693a      	ldr	r2, [r7, #16]
 8003956:	4313      	orrs	r3, r2
 8003958:	613b      	str	r3, [r7, #16]
 800395a:	697b      	ldr	r3, [r7, #20]
 800395c:	f023 030a 	bic.w	r3, r3, #10
 8003960:	617b      	str	r3, [r7, #20]
 8003962:	697a      	ldr	r2, [r7, #20]
 8003964:	68bb      	ldr	r3, [r7, #8]
 8003966:	4313      	orrs	r3, r2
 8003968:	617b      	str	r3, [r7, #20]
 800396a:	68fb      	ldr	r3, [r7, #12]
 800396c:	693a      	ldr	r2, [r7, #16]
 800396e:	619a      	str	r2, [r3, #24]
 8003970:	68fb      	ldr	r3, [r7, #12]
 8003972:	697a      	ldr	r2, [r7, #20]
 8003974:	621a      	str	r2, [r3, #32]
 8003976:	bf00      	nop
 8003978:	371c      	adds	r7, #28
 800397a:	46bd      	mov	sp, r7
 800397c:	f85d 7b04 	ldr.w	r7, [sp], #4
 8003980:	4770      	bx	lr

08003982 <TIM_TI2_ConfigInputStage>:
 8003982:	b480      	push	{r7}
 8003984:	b087      	sub	sp, #28
 8003986:	af00      	add	r7, sp, #0
 8003988:	60f8      	str	r0, [r7, #12]
 800398a:	60b9      	str	r1, [r7, #8]
 800398c:	607a      	str	r2, [r7, #4]
 800398e:	68fb      	ldr	r3, [r7, #12]
 8003990:	6a1b      	ldr	r3, [r3, #32]
 8003992:	617b      	str	r3, [r7, #20]
 8003994:	68fb      	ldr	r3, [r7, #12]
 8003996:	6a1b      	ldr	r3, [r3, #32]
 8003998:	f023 0210 	bic.w	r2, r3, #16
 800399c:	68fb      	ldr	r3, [r7, #12]
 800399e:	621a      	str	r2, [r3, #32]
 80039a0:	68fb      	ldr	r3, [r7, #12]
 80039a2:	699b      	ldr	r3, [r3, #24]
 80039a4:	613b      	str	r3, [r7, #16]
 80039a6:	693b      	ldr	r3, [r7, #16]
 80039a8:	f423 4370 	bic.w	r3, r3, #61440	@ 0xf000
 80039ac:	613b      	str	r3, [r7, #16]
 80039ae:	687b      	ldr	r3, [r7, #4]
 80039b0:	031b      	lsls	r3, r3, #12
 80039b2:	693a      	ldr	r2, [r7, #16]
 80039b4:	4313      	orrs	r3, r2
 80039b6:	613b      	str	r3, [r7, #16]
 80039b8:	697b      	ldr	r3, [r7, #20]
 80039ba:	f023 03a0 	bic.w	r3, r3, #160	@ 0xa0
 80039be:	617b      	str	r3, [r7, #20]
 80039c0:	68bb      	ldr	r3, [r7, #8]
 80039c2:	011b      	lsls	r3, r3, #4
 80039c4:	697a      	ldr	r2, [r7, #20]
 80039c6:	4313      	orrs	r3, r2
 80039c8:	617b      	str	r3, [r7, #20]
 80039ca:	68fb      	ldr	r3, [r7, #12]
 80039cc:	693a      	ldr	r2, [r7, #16]
 80039ce:	619a      	str	r2, [r3, #24]
 80039d0:	68fb      	ldr	r3, [r7, #12]
 80039d2:	697a      	ldr	r2, [r7, #20]
 80039d4:	621a      	str	r2, [r3, #32]
 80039d6:	bf00      	nop
 80039d8:	371c      	adds	r7, #28
 80039da:	46bd      	mov	sp, r7
 80039dc:	f85d 7b04 	ldr.w	r7, [sp], #4
 80039e0:	4770      	bx	lr

080039e2 <TIM_ITRx_SetConfig>:
 80039e2:	b480      	push	{r7}
 80039e4:	b085      	sub	sp, #20
 80039e6:	af00      	add	r7, sp, #0
 80039e8:	6078      	str	r0, [r7, #4]
 80039ea:	6039      	str	r1, [r7, #0]
 80039ec:	687b      	ldr	r3, [r7, #4]
 80039ee:	689b      	ldr	r3, [r3, #8]
 80039f0:	60fb      	str	r3, [r7, #12]
 80039f2:	68fb      	ldr	r3, [r7, #12]
 80039f4:	f023 0370 	bic.w	r3, r3, #112	@ 0x70
 80039f8:	60fb      	str	r3, [r7, #12]
 80039fa:	683a      	ldr	r2, [r7, #0]
 80039fc:	68fb      	ldr	r3, [r7, #12]
 80039fe:	4313      	orrs	r3, r2
 8003a00:	f043 0307 	orr.w	r3, r3, #7
 8003a04:	60fb      	str	r3, [r7, #12]
 8003a06:	687b      	ldr	r3, [r7, #4]
 8003a08:	68fa      	ldr	r2, [r7, #12]
 8003a0a:	609a      	str	r2, [r3, #8]
 8003a0c:	bf00      	nop
 8003a0e:	3714      	adds	r7, #20
 8003a10:	46bd      	mov	sp, r7
 8003a12:	f85d 7b04 	ldr.w	r7, [sp], #4
 8003a16:	4770      	bx	lr

08003a18 <TIM_ETR_SetConfig>:
 8003a18:	b480      	push	{r7}
 8003a1a:	b087      	sub	sp, #28
 8003a1c:	af00      	add	r7, sp, #0
 8003a1e:	60f8      	str	r0, [r7, #12]
 8003a20:	60b9      	str	r1, [r7, #8]
 8003a22:	607a      	str	r2, [r7, #4]
 8003a24:	603b      	str	r3, [r7, #0]
 8003a26:	68fb      	ldr	r3, [r7, #12]
 8003a28:	689b      	ldr	r3, [r3, #8]
 8003a2a:	617b      	str	r3, [r7, #20]
 8003a2c:	697b      	ldr	r3, [r7, #20]
 8003a2e:	f423 437f 	bic.w	r3, r3, #65280	@ 0xff00
 8003a32:	617b      	str	r3, [r7, #20]
 8003a34:	683b      	ldr	r3, [r7, #0]
 8003a36:	021a      	lsls	r2, r3, #8
 8003a38:	687b      	ldr	r3, [r7, #4]
 8003a3a:	431a      	orrs	r2, r3
 8003a3c:	68bb      	ldr	r3, [r7, #8]
 8003a3e:	4313      	orrs	r3, r2
 8003a40:	697a      	ldr	r2, [r7, #20]
 8003a42:	4313      	orrs	r3, r2
 8003a44:	617b      	str	r3, [r7, #20]
 8003a46:	68fb      	ldr	r3, [r7, #12]
 8003a48:	697a      	ldr	r2, [r7, #20]
 8003a4a:	609a      	str	r2, [r3, #8]
 8003a4c:	bf00      	nop
 8003a4e:	371c      	adds	r7, #28
 8003a50:	46bd      	mov	sp, r7
 8003a52:	f85d 7b04 	ldr.w	r7, [sp], #4
 8003a56:	4770      	bx	lr

08003a58 <TIM_CCxChannelCmd>:
 8003a58:	b480      	push	{r7}
 8003a5a:	b087      	sub	sp, #28
 8003a5c:	af00      	add	r7, sp, #0
 8003a5e:	60f8      	str	r0, [r7, #12]
 8003a60:	60b9      	str	r1, [r7, #8]
 8003a62:	607a      	str	r2, [r7, #4]
 8003a64:	68bb      	ldr	r3, [r7, #8]
 8003a66:	f003 031f 	and.w	r3, r3, #31
 8003a6a:	2201      	movs	r2, #1
 8003a6c:	fa02 f303 	lsl.w	r3, r2, r3
 8003a70:	617b      	str	r3, [r7, #20]
 8003a72:	68fb      	ldr	r3, [r7, #12]
 8003a74:	6a1a      	ldr	r2, [r3, #32]
 8003a76:	697b      	ldr	r3, [r7, #20]
 8003a78:	43db      	mvns	r3, r3
 8003a7a:	401a      	ands	r2, r3
 8003a7c:	68fb      	ldr	r3, [r7, #12]
 8003a7e:	621a      	str	r2, [r3, #32]
 8003a80:	68fb      	ldr	r3, [r7, #12]
 8003a82:	6a1a      	ldr	r2, [r3, #32]
 8003a84:	68bb      	ldr	r3, [r7, #8]
 8003a86:	f003 031f 	and.w	r3, r3, #31
 8003a8a:	6879      	ldr	r1, [r7, #4]
 8003a8c:	fa01 f303 	lsl.w	r3, r1, r3
 8003a90:	431a      	orrs	r2, r3
 8003a92:	68fb      	ldr	r3, [r7, #12]
 8003a94:	621a      	str	r2, [r3, #32]
 8003a96:	bf00      	nop
 8003a98:	371c      	adds	r7, #28
 8003a9a:	46bd      	mov	sp, r7
 8003a9c:	f85d 7b04 	ldr.w	r7, [sp], #4
 8003aa0:	4770      	bx	lr
	...

08003aa4 <HAL_TIMEx_MasterConfigSynchronization>:
 8003aa4:	b480      	push	{r7}
 8003aa6:	b085      	sub	sp, #20
 8003aa8:	af00      	add	r7, sp, #0
 8003aaa:	6078      	str	r0, [r7, #4]
 8003aac:	6039      	str	r1, [r7, #0]
 8003aae:	687b      	ldr	r3, [r7, #4]
 8003ab0:	f893 303c 	ldrb.w	r3, [r3, #60]	@ 0x3c
 8003ab4:	2b01      	cmp	r3, #1
 8003ab6:	d101      	bne.n	8003abc <HAL_TIMEx_MasterConfigSynchronization+0x18>
 8003ab8:	2302      	movs	r3, #2
 8003aba:	e05a      	b.n	8003b72 <HAL_TIMEx_MasterConfigSynchronization+0xce>
 8003abc:	687b      	ldr	r3, [r7, #4]
 8003abe:	2201      	movs	r2, #1
 8003ac0:	f883 203c 	strb.w	r2, [r3, #60]	@ 0x3c
 8003ac4:	687b      	ldr	r3, [r7, #4]
 8003ac6:	2202      	movs	r2, #2
 8003ac8:	f883 203d 	strb.w	r2, [r3, #61]	@ 0x3d
 8003acc:	687b      	ldr	r3, [r7, #4]
 8003ace:	681b      	ldr	r3, [r3, #0]
 8003ad0:	685b      	ldr	r3, [r3, #4]
 8003ad2:	60fb      	str	r3, [r7, #12]
 8003ad4:	687b      	ldr	r3, [r7, #4]
 8003ad6:	681b      	ldr	r3, [r3, #0]
 8003ad8:	689b      	ldr	r3, [r3, #8]
 8003ada:	60bb      	str	r3, [r7, #8]
 8003adc:	68fb      	ldr	r3, [r7, #12]
 8003ade:	f023 0370 	bic.w	r3, r3, #112	@ 0x70
 8003ae2:	60fb      	str	r3, [r7, #12]
 8003ae4:	683b      	ldr	r3, [r7, #0]
 8003ae6:	681b      	ldr	r3, [r3, #0]
 8003ae8:	68fa      	ldr	r2, [r7, #12]
 8003aea:	4313      	orrs	r3, r2
 8003aec:	60fb      	str	r3, [r7, #12]
 8003aee:	687b      	ldr	r3, [r7, #4]
 8003af0:	681b      	ldr	r3, [r3, #0]
 8003af2:	68fa      	ldr	r2, [r7, #12]
 8003af4:	605a      	str	r2, [r3, #4]
 8003af6:	687b      	ldr	r3, [r7, #4]
 8003af8:	681b      	ldr	r3, [r3, #0]
 8003afa:	4a21      	ldr	r2, [pc, #132]	@ (8003b80 <HAL_TIMEx_MasterConfigSynchronization+0xdc>)
 8003afc:	4293      	cmp	r3, r2
 8003afe:	d022      	beq.n	8003b46 <HAL_TIMEx_MasterConfigSynchronization+0xa2>
 8003b00:	687b      	ldr	r3, [r7, #4]
 8003b02:	681b      	ldr	r3, [r3, #0]
 8003b04:	f1b3 4f80 	cmp.w	r3, #1073741824	@ 0x40000000
 8003b08:	d01d      	beq.n	8003b46 <HAL_TIMEx_MasterConfigSynchronization+0xa2>
 8003b0a:	687b      	ldr	r3, [r7, #4]
 8003b0c:	681b      	ldr	r3, [r3, #0]
 8003b0e:	4a1d      	ldr	r2, [pc, #116]	@ (8003b84 <HAL_TIMEx_MasterConfigSynchronization+0xe0>)
 8003b10:	4293      	cmp	r3, r2
 8003b12:	d018      	beq.n	8003b46 <HAL_TIMEx_MasterConfigSynchronization+0xa2>
 8003b14:	687b      	ldr	r3, [r7, #4]
 8003b16:	681b      	ldr	r3, [r3, #0]
 8003b18:	4a1b      	ldr	r2, [pc, #108]	@ (8003b88 <HAL_TIMEx_MasterConfigSynchronization+0xe4>)
 8003b1a:	4293      	cmp	r3, r2
 8003b1c:	d013      	beq.n	8003b46 <HAL_TIMEx_MasterConfigSynchronization+0xa2>
 8003b1e:	687b      	ldr	r3, [r7, #4]
 8003b20:	681b      	ldr	r3, [r3, #0]
 8003b22:	4a1a      	ldr	r2, [pc, #104]	@ (8003b8c <HAL_TIMEx_MasterConfigSynchronization+0xe8>)
 8003b24:	4293      	cmp	r3, r2
 8003b26:	d00e      	beq.n	8003b46 <HAL_TIMEx_MasterConfigSynchronization+0xa2>
 8003b28:	687b      	ldr	r3, [r7, #4]
 8003b2a:	681b      	ldr	r3, [r3, #0]
 8003b2c:	4a18      	ldr	r2, [pc, #96]	@ (8003b90 <HAL_TIMEx_MasterConfigSynchronization+0xec>)
 8003b2e:	4293      	cmp	r3, r2
 8003b30:	d009      	beq.n	8003b46 <HAL_TIMEx_MasterConfigSynchronization+0xa2>
 8003b32:	687b      	ldr	r3, [r7, #4]
 8003b34:	681b      	ldr	r3, [r3, #0]
 8003b36:	4a17      	ldr	r2, [pc, #92]	@ (8003b94 <HAL_TIMEx_MasterConfigSynchronization+0xf0>)
 8003b38:	4293      	cmp	r3, r2
 8003b3a:	d004      	beq.n	8003b46 <HAL_TIMEx_MasterConfigSynchronization+0xa2>
 8003b3c:	687b      	ldr	r3, [r7, #4]
 8003b3e:	681b      	ldr	r3, [r3, #0]
 8003b40:	4a15      	ldr	r2, [pc, #84]	@ (8003b98 <HAL_TIMEx_MasterConfigSynchronization+0xf4>)
 8003b42:	4293      	cmp	r3, r2
 8003b44:	d10c      	bne.n	8003b60 <HAL_TIMEx_MasterConfigSynchronization+0xbc>
 8003b46:	68bb      	ldr	r3, [r7, #8]
 8003b48:	f023 0380 	bic.w	r3, r3, #128	@ 0x80
 8003b4c:	60bb      	str	r3, [r7, #8]
 8003b4e:	683b      	ldr	r3, [r7, #0]
 8003b50:	685b      	ldr	r3, [r3, #4]
 8003b52:	68ba      	ldr	r2, [r7, #8]
 8003b54:	4313      	orrs	r3, r2
 8003b56:	60bb      	str	r3, [r7, #8]
 8003b58:	687b      	ldr	r3, [r7, #4]
 8003b5a:	681b      	ldr	r3, [r3, #0]
 8003b5c:	68ba      	ldr	r2, [r7, #8]
 8003b5e:	609a      	str	r2, [r3, #8]
 8003b60:	687b      	ldr	r3, [r7, #4]
 8003b62:	2201      	movs	r2, #1
 8003b64:	f883 203d 	strb.w	r2, [r3, #61]	@ 0x3d
 8003b68:	687b      	ldr	r3, [r7, #4]
 8003b6a:	2200      	movs	r2, #0
 8003b6c:	f883 203c 	strb.w	r2, [r3, #60]	@ 0x3c
 8003b70:	2300      	movs	r3, #0
 8003b72:	4618      	mov	r0, r3
 8003b74:	3714      	adds	r7, #20
 8003b76:	46bd      	mov	sp, r7
 8003b78:	f85d 7b04 	ldr.w	r7, [sp], #4
 8003b7c:	4770      	bx	lr
 8003b7e:	bf00      	nop
 8003b80:	40010000 	.word	0x40010000
 8003b84:	40000400 	.word	0x40000400
 8003b88:	40000800 	.word	0x40000800
 8003b8c:	40000c00 	.word	0x40000c00
 8003b90:	40010400 	.word	0x40010400
 8003b94:	40014000 	.word	0x40014000
 8003b98:	40001800 	.word	0x40001800

08003b9c <HAL_UART_Init>:
 8003b9c:	b580      	push	{r7, lr}
 8003b9e:	b082      	sub	sp, #8
 8003ba0:	af00      	add	r7, sp, #0
 8003ba2:	6078      	str	r0, [r7, #4]
 8003ba4:	687b      	ldr	r3, [r7, #4]
 8003ba6:	2b00      	cmp	r3, #0
 8003ba8:	d101      	bne.n	8003bae <HAL_UART_Init+0x12>
 8003baa:	2301      	movs	r3, #1
 8003bac:	e042      	b.n	8003c34 <HAL_UART_Init+0x98>
 8003bae:	687b      	ldr	r3, [r7, #4]
 8003bb0:	f893 3041 	ldrb.w	r3, [r3, #65]	@ 0x41
 8003bb4:	b2db      	uxtb	r3, r3
 8003bb6:	2b00      	cmp	r3, #0
 8003bb8:	d106      	bne.n	8003bc8 <HAL_UART_Init+0x2c>
 8003bba:	687b      	ldr	r3, [r7, #4]
 8003bbc:	2200      	movs	r2, #0
 8003bbe:	f883 2040 	strb.w	r2, [r3, #64]	@ 0x40
 8003bc2:	6878      	ldr	r0, [r7, #4]
 8003bc4:	f7fd fc8e 	bl	80014e4 <HAL_UART_MspInit>
 8003bc8:	687b      	ldr	r3, [r7, #4]
 8003bca:	2224      	movs	r2, #36	@ 0x24
 8003bcc:	f883 2041 	strb.w	r2, [r3, #65]	@ 0x41
 8003bd0:	687b      	ldr	r3, [r7, #4]
 8003bd2:	681b      	ldr	r3, [r3, #0]
 8003bd4:	68da      	ldr	r2, [r3, #12]
 8003bd6:	687b      	ldr	r3, [r7, #4]
 8003bd8:	681b      	ldr	r3, [r3, #0]
 8003bda:	f422 5200 	bic.w	r2, r2, #8192	@ 0x2000
 8003bde:	60da      	str	r2, [r3, #12]
 8003be0:	6878      	ldr	r0, [r7, #4]
 8003be2:	f000 fdbd 	bl	8004760 <UART_SetConfig>
 8003be6:	687b      	ldr	r3, [r7, #4]
 8003be8:	681b      	ldr	r3, [r3, #0]
 8003bea:	691a      	ldr	r2, [r3, #16]
 8003bec:	687b      	ldr	r3, [r7, #4]
 8003bee:	681b      	ldr	r3, [r3, #0]
 8003bf0:	f422 4290 	bic.w	r2, r2, #18432	@ 0x4800
 8003bf4:	611a      	str	r2, [r3, #16]
 8003bf6:	687b      	ldr	r3, [r7, #4]
 8003bf8:	681b      	ldr	r3, [r3, #0]
 8003bfa:	695a      	ldr	r2, [r3, #20]
 8003bfc:	687b      	ldr	r3, [r7, #4]
 8003bfe:	681b      	ldr	r3, [r3, #0]
 8003c00:	f022 022a 	bic.w	r2, r2, #42	@ 0x2a
 8003c04:	615a      	str	r2, [r3, #20]
 8003c06:	687b      	ldr	r3, [r7, #4]
 8003c08:	681b      	ldr	r3, [r3, #0]
 8003c0a:	68da      	ldr	r2, [r3, #12]
 8003c0c:	687b      	ldr	r3, [r7, #4]
 8003c0e:	681b      	ldr	r3, [r3, #0]
 8003c10:	f442 5200 	orr.w	r2, r2, #8192	@ 0x2000
 8003c14:	60da      	str	r2, [r3, #12]
 8003c16:	687b      	ldr	r3, [r7, #4]
 8003c18:	2200      	movs	r2, #0
 8003c1a:	645a      	str	r2, [r3, #68]	@ 0x44
 8003c1c:	687b      	ldr	r3, [r7, #4]
 8003c1e:	2220      	movs	r2, #32
 8003c20:	f883 2041 	strb.w	r2, [r3, #65]	@ 0x41
 8003c24:	687b      	ldr	r3, [r7, #4]
 8003c26:	2220      	movs	r2, #32
 8003c28:	f883 2042 	strb.w	r2, [r3, #66]	@ 0x42
 8003c2c:	687b      	ldr	r3, [r7, #4]
 8003c2e:	2200      	movs	r2, #0
 8003c30:	635a      	str	r2, [r3, #52]	@ 0x34
 8003c32:	2300      	movs	r3, #0
 8003c34:	4618      	mov	r0, r3
 8003c36:	3708      	adds	r7, #8
 8003c38:	46bd      	mov	sp, r7
 8003c3a:	bd80      	pop	{r7, pc}

08003c3c <HAL_UART_Transmit>:
 8003c3c:	b580      	push	{r7, lr}
 8003c3e:	b08a      	sub	sp, #40	@ 0x28
 8003c40:	af02      	add	r7, sp, #8
 8003c42:	60f8      	str	r0, [r7, #12]
 8003c44:	60b9      	str	r1, [r7, #8]
 8003c46:	603b      	str	r3, [r7, #0]
 8003c48:	4613      	mov	r3, r2
 8003c4a:	80fb      	strh	r3, [r7, #6]
 8003c4c:	2300      	movs	r3, #0
 8003c4e:	617b      	str	r3, [r7, #20]
 8003c50:	68fb      	ldr	r3, [r7, #12]
 8003c52:	f893 3041 	ldrb.w	r3, [r3, #65]	@ 0x41
 8003c56:	b2db      	uxtb	r3, r3
 8003c58:	2b20      	cmp	r3, #32
 8003c5a:	d175      	bne.n	8003d48 <HAL_UART_Transmit+0x10c>
 8003c5c:	68bb      	ldr	r3, [r7, #8]
 8003c5e:	2b00      	cmp	r3, #0
 8003c60:	d002      	beq.n	8003c68 <HAL_UART_Transmit+0x2c>
 8003c62:	88fb      	ldrh	r3, [r7, #6]
 8003c64:	2b00      	cmp	r3, #0
 8003c66:	d101      	bne.n	8003c6c <HAL_UART_Transmit+0x30>
 8003c68:	2301      	movs	r3, #1
 8003c6a:	e06e      	b.n	8003d4a <HAL_UART_Transmit+0x10e>
 8003c6c:	68fb      	ldr	r3, [r7, #12]
 8003c6e:	2200      	movs	r2, #0
 8003c70:	645a      	str	r2, [r3, #68]	@ 0x44
 8003c72:	68fb      	ldr	r3, [r7, #12]
 8003c74:	2221      	movs	r2, #33	@ 0x21
 8003c76:	f883 2041 	strb.w	r2, [r3, #65]	@ 0x41
 8003c7a:	f7fd ff79 	bl	8001b70 <HAL_GetTick>
 8003c7e:	6178      	str	r0, [r7, #20]
 8003c80:	68fb      	ldr	r3, [r7, #12]
 8003c82:	88fa      	ldrh	r2, [r7, #6]
 8003c84:	849a      	strh	r2, [r3, #36]	@ 0x24
 8003c86:	68fb      	ldr	r3, [r7, #12]
 8003c88:	88fa      	ldrh	r2, [r7, #6]
 8003c8a:	84da      	strh	r2, [r3, #38]	@ 0x26
 8003c8c:	68fb      	ldr	r3, [r7, #12]
 8003c8e:	689b      	ldr	r3, [r3, #8]
 8003c90:	f5b3 5f80 	cmp.w	r3, #4096	@ 0x1000
 8003c94:	d108      	bne.n	8003ca8 <HAL_UART_Transmit+0x6c>
 8003c96:	68fb      	ldr	r3, [r7, #12]
 8003c98:	691b      	ldr	r3, [r3, #16]
 8003c9a:	2b00      	cmp	r3, #0
 8003c9c:	d104      	bne.n	8003ca8 <HAL_UART_Transmit+0x6c>
 8003c9e:	2300      	movs	r3, #0
 8003ca0:	61fb      	str	r3, [r7, #28]
 8003ca2:	68bb      	ldr	r3, [r7, #8]
 8003ca4:	61bb      	str	r3, [r7, #24]
 8003ca6:	e003      	b.n	8003cb0 <HAL_UART_Transmit+0x74>
 8003ca8:	68bb      	ldr	r3, [r7, #8]
 8003caa:	61fb      	str	r3, [r7, #28]
 8003cac:	2300      	movs	r3, #0
 8003cae:	61bb      	str	r3, [r7, #24]
 8003cb0:	e02e      	b.n	8003d10 <HAL_UART_Transmit+0xd4>
 8003cb2:	683b      	ldr	r3, [r7, #0]
 8003cb4:	9300      	str	r3, [sp, #0]
 8003cb6:	697b      	ldr	r3, [r7, #20]
 8003cb8:	2200      	movs	r2, #0
 8003cba:	2180      	movs	r1, #128	@ 0x80
 8003cbc:	68f8      	ldr	r0, [r7, #12]
 8003cbe:	f000 fb1f 	bl	8004300 <UART_WaitOnFlagUntilTimeout>
 8003cc2:	4603      	mov	r3, r0
 8003cc4:	2b00      	cmp	r3, #0
 8003cc6:	d005      	beq.n	8003cd4 <HAL_UART_Transmit+0x98>
 8003cc8:	68fb      	ldr	r3, [r7, #12]
 8003cca:	2220      	movs	r2, #32
 8003ccc:	f883 2041 	strb.w	r2, [r3, #65]	@ 0x41
 8003cd0:	2303      	movs	r3, #3
 8003cd2:	e03a      	b.n	8003d4a <HAL_UART_Transmit+0x10e>
 8003cd4:	69fb      	ldr	r3, [r7, #28]
 8003cd6:	2b00      	cmp	r3, #0
 8003cd8:	d10b      	bne.n	8003cf2 <HAL_UART_Transmit+0xb6>
 8003cda:	69bb      	ldr	r3, [r7, #24]
 8003cdc:	881b      	ldrh	r3, [r3, #0]
 8003cde:	461a      	mov	r2, r3
 8003ce0:	68fb      	ldr	r3, [r7, #12]
 8003ce2:	681b      	ldr	r3, [r3, #0]
 8003ce4:	f3c2 0208 	ubfx	r2, r2, #0, #9
 8003ce8:	605a      	str	r2, [r3, #4]
 8003cea:	69bb      	ldr	r3, [r7, #24]
 8003cec:	3302      	adds	r3, #2
 8003cee:	61bb      	str	r3, [r7, #24]
 8003cf0:	e007      	b.n	8003d02 <HAL_UART_Transmit+0xc6>
 8003cf2:	69fb      	ldr	r3, [r7, #28]
 8003cf4:	781a      	ldrb	r2, [r3, #0]
 8003cf6:	68fb      	ldr	r3, [r7, #12]
 8003cf8:	681b      	ldr	r3, [r3, #0]
 8003cfa:	605a      	str	r2, [r3, #4]
 8003cfc:	69fb      	ldr	r3, [r7, #28]
 8003cfe:	3301      	adds	r3, #1
 8003d00:	61fb      	str	r3, [r7, #28]
 8003d02:	68fb      	ldr	r3, [r7, #12]
 8003d04:	8cdb      	ldrh	r3, [r3, #38]	@ 0x26
 8003d06:	b29b      	uxth	r3, r3
 8003d08:	3b01      	subs	r3, #1
 8003d0a:	b29a      	uxth	r2, r3
 8003d0c:	68fb      	ldr	r3, [r7, #12]
 8003d0e:	84da      	strh	r2, [r3, #38]	@ 0x26
 8003d10:	68fb      	ldr	r3, [r7, #12]
 8003d12:	8cdb      	ldrh	r3, [r3, #38]	@ 0x26
 8003d14:	b29b      	uxth	r3, r3
 8003d16:	2b00      	cmp	r3, #0
 8003d18:	d1cb      	bne.n	8003cb2 <HAL_UART_Transmit+0x76>
 8003d1a:	683b      	ldr	r3, [r7, #0]
 8003d1c:	9300      	str	r3, [sp, #0]
 8003d1e:	697b      	ldr	r3, [r7, #20]
 8003d20:	2200      	movs	r2, #0
 8003d22:	2140      	movs	r1, #64	@ 0x40
 8003d24:	68f8      	ldr	r0, [r7, #12]
 8003d26:	f000 faeb 	bl	8004300 <UART_WaitOnFlagUntilTimeout>
 8003d2a:	4603      	mov	r3, r0
 8003d2c:	2b00      	cmp	r3, #0
 8003d2e:	d005      	beq.n	8003d3c <HAL_UART_Transmit+0x100>
 8003d30:	68fb      	ldr	r3, [r7, #12]
 8003d32:	2220      	movs	r2, #32
 8003d34:	f883 2041 	strb.w	r2, [r3, #65]	@ 0x41
 8003d38:	2303      	movs	r3, #3
 8003d3a:	e006      	b.n	8003d4a <HAL_UART_Transmit+0x10e>
 8003d3c:	68fb      	ldr	r3, [r7, #12]
 8003d3e:	2220      	movs	r2, #32
 8003d40:	f883 2041 	strb.w	r2, [r3, #65]	@ 0x41
 8003d44:	2300      	movs	r3, #0
 8003d46:	e000      	b.n	8003d4a <HAL_UART_Transmit+0x10e>
 8003d48:	2302      	movs	r3, #2
 8003d4a:	4618      	mov	r0, r3
 8003d4c:	3720      	adds	r7, #32
 8003d4e:	46bd      	mov	sp, r7
 8003d50:	bd80      	pop	{r7, pc}

08003d52 <HAL_UART_Receive_IT>:
 8003d52:	b580      	push	{r7, lr}
 8003d54:	b084      	sub	sp, #16
 8003d56:	af00      	add	r7, sp, #0
 8003d58:	60f8      	str	r0, [r7, #12]
 8003d5a:	60b9      	str	r1, [r7, #8]
 8003d5c:	4613      	mov	r3, r2
 8003d5e:	80fb      	strh	r3, [r7, #6]
 8003d60:	68fb      	ldr	r3, [r7, #12]
 8003d62:	f893 3042 	ldrb.w	r3, [r3, #66]	@ 0x42
 8003d66:	b2db      	uxtb	r3, r3
 8003d68:	2b20      	cmp	r3, #32
 8003d6a:	d112      	bne.n	8003d92 <HAL_UART_Receive_IT+0x40>
 8003d6c:	68bb      	ldr	r3, [r7, #8]
 8003d6e:	2b00      	cmp	r3, #0
 8003d70:	d002      	beq.n	8003d78 <HAL_UART_Receive_IT+0x26>
 8003d72:	88fb      	ldrh	r3, [r7, #6]
 8003d74:	2b00      	cmp	r3, #0
 8003d76:	d101      	bne.n	8003d7c <HAL_UART_Receive_IT+0x2a>
 8003d78:	2301      	movs	r3, #1
 8003d7a:	e00b      	b.n	8003d94 <HAL_UART_Receive_IT+0x42>
 8003d7c:	68fb      	ldr	r3, [r7, #12]
 8003d7e:	2200      	movs	r2, #0
 8003d80:	631a      	str	r2, [r3, #48]	@ 0x30
 8003d82:	88fb      	ldrh	r3, [r7, #6]
 8003d84:	461a      	mov	r2, r3
 8003d86:	68b9      	ldr	r1, [r7, #8]
 8003d88:	68f8      	ldr	r0, [r7, #12]
 8003d8a:	f000 fb12 	bl	80043b2 <UART_Start_Receive_IT>
 8003d8e:	4603      	mov	r3, r0
 8003d90:	e000      	b.n	8003d94 <HAL_UART_Receive_IT+0x42>
 8003d92:	2302      	movs	r3, #2
 8003d94:	4618      	mov	r0, r3
 8003d96:	3710      	adds	r7, #16
 8003d98:	46bd      	mov	sp, r7
 8003d9a:	bd80      	pop	{r7, pc}

08003d9c <HAL_UART_IRQHandler>:
 8003d9c:	b580      	push	{r7, lr}
 8003d9e:	b0ba      	sub	sp, #232	@ 0xe8
 8003da0:	af00      	add	r7, sp, #0
 8003da2:	6078      	str	r0, [r7, #4]
 8003da4:	687b      	ldr	r3, [r7, #4]
 8003da6:	681b      	ldr	r3, [r3, #0]
 8003da8:	681b      	ldr	r3, [r3, #0]
 8003daa:	f8c7 30e4 	str.w	r3, [r7, #228]	@ 0xe4
 8003dae:	687b      	ldr	r3, [r7, #4]
 8003db0:	681b      	ldr	r3, [r3, #0]
 8003db2:	68db      	ldr	r3, [r3, #12]
 8003db4:	f8c7 30e0 	str.w	r3, [r7, #224]	@ 0xe0
 8003db8:	687b      	ldr	r3, [r7, #4]
 8003dba:	681b      	ldr	r3, [r3, #0]
 8003dbc:	695b      	ldr	r3, [r3, #20]
 8003dbe:	f8c7 30dc 	str.w	r3, [r7, #220]	@ 0xdc
 8003dc2:	2300      	movs	r3, #0
 8003dc4:	f8c7 30d8 	str.w	r3, [r7, #216]	@ 0xd8
 8003dc8:	2300      	movs	r3, #0
 8003dca:	f8c7 30d4 	str.w	r3, [r7, #212]	@ 0xd4
 8003dce:	f8d7 30e4 	ldr.w	r3, [r7, #228]	@ 0xe4
 8003dd2:	f003 030f 	and.w	r3, r3, #15
 8003dd6:	f8c7 30d8 	str.w	r3, [r7, #216]	@ 0xd8
 8003dda:	f8d7 30d8 	ldr.w	r3, [r7, #216]	@ 0xd8
 8003dde:	2b00      	cmp	r3, #0
 8003de0:	d10f      	bne.n	8003e02 <HAL_UART_IRQHandler+0x66>
 8003de2:	f8d7 30e4 	ldr.w	r3, [r7, #228]	@ 0xe4
 8003de6:	f003 0320 	and.w	r3, r3, #32
 8003dea:	2b00      	cmp	r3, #0
 8003dec:	d009      	beq.n	8003e02 <HAL_UART_IRQHandler+0x66>
 8003dee:	f8d7 30e0 	ldr.w	r3, [r7, #224]	@ 0xe0
 8003df2:	f003 0320 	and.w	r3, r3, #32
 8003df6:	2b00      	cmp	r3, #0
 8003df8:	d003      	beq.n	8003e02 <HAL_UART_IRQHandler+0x66>
 8003dfa:	6878      	ldr	r0, [r7, #4]
 8003dfc:	f000 fbf2 	bl	80045e4 <UART_Receive_IT>
 8003e00:	e25b      	b.n	80042ba <HAL_UART_IRQHandler+0x51e>
 8003e02:	f8d7 30d8 	ldr.w	r3, [r7, #216]	@ 0xd8
 8003e06:	2b00      	cmp	r3, #0
 8003e08:	f000 80de 	beq.w	8003fc8 <HAL_UART_IRQHandler+0x22c>
 8003e0c:	f8d7 30dc 	ldr.w	r3, [r7, #220]	@ 0xdc
 8003e10:	f003 0301 	and.w	r3, r3, #1
 8003e14:	2b00      	cmp	r3, #0
 8003e16:	d106      	bne.n	8003e26 <HAL_UART_IRQHandler+0x8a>
 8003e18:	f8d7 30e0 	ldr.w	r3, [r7, #224]	@ 0xe0
 8003e1c:	f403 7390 	and.w	r3, r3, #288	@ 0x120
 8003e20:	2b00      	cmp	r3, #0
 8003e22:	f000 80d1 	beq.w	8003fc8 <HAL_UART_IRQHandler+0x22c>
 8003e26:	f8d7 30e4 	ldr.w	r3, [r7, #228]	@ 0xe4
 8003e2a:	f003 0301 	and.w	r3, r3, #1
 8003e2e:	2b00      	cmp	r3, #0
 8003e30:	d00b      	beq.n	8003e4a <HAL_UART_IRQHandler+0xae>
 8003e32:	f8d7 30e0 	ldr.w	r3, [r7, #224]	@ 0xe0
 8003e36:	f403 7380 	and.w	r3, r3, #256	@ 0x100
 8003e3a:	2b00      	cmp	r3, #0
 8003e3c:	d005      	beq.n	8003e4a <HAL_UART_IRQHandler+0xae>
 8003e3e:	687b      	ldr	r3, [r7, #4]
 8003e40:	6c5b      	ldr	r3, [r3, #68]	@ 0x44
 8003e42:	f043 0201 	orr.w	r2, r3, #1
 8003e46:	687b      	ldr	r3, [r7, #4]
 8003e48:	645a      	str	r2, [r3, #68]	@ 0x44
 8003e4a:	f8d7 30e4 	ldr.w	r3, [r7, #228]	@ 0xe4
 8003e4e:	f003 0304 	and.w	r3, r3, #4
 8003e52:	2b00      	cmp	r3, #0
 8003e54:	d00b      	beq.n	8003e6e <HAL_UART_IRQHandler+0xd2>
 8003e56:	f8d7 30dc 	ldr.w	r3, [r7, #220]	@ 0xdc
 8003e5a:	f003 0301 	and.w	r3, r3, #1
 8003e5e:	2b00      	cmp	r3, #0
 8003e60:	d005      	beq.n	8003e6e <HAL_UART_IRQHandler+0xd2>
 8003e62:	687b      	ldr	r3, [r7, #4]
 8003e64:	6c5b      	ldr	r3, [r3, #68]	@ 0x44
 8003e66:	f043 0202 	orr.w	r2, r3, #2
 8003e6a:	687b      	ldr	r3, [r7, #4]
 8003e6c:	645a      	str	r2, [r3, #68]	@ 0x44
 8003e6e:	f8d7 30e4 	ldr.w	r3, [r7, #228]	@ 0xe4
 8003e72:	f003 0302 	and.w	r3, r3, #2
 8003e76:	2b00      	cmp	r3, #0
 8003e78:	d00b      	beq.n	8003e92 <HAL_UART_IRQHandler+0xf6>
 8003e7a:	f8d7 30dc 	ldr.w	r3, [r7, #220]	@ 0xdc
 8003e7e:	f003 0301 	and.w	r3, r3, #1
 8003e82:	2b00      	cmp	r3, #0
 8003e84:	d005      	beq.n	8003e92 <HAL_UART_IRQHandler+0xf6>
 8003e86:	687b      	ldr	r3, [r7, #4]
 8003e88:	6c5b      	ldr	r3, [r3, #68]	@ 0x44
 8003e8a:	f043 0204 	orr.w	r2, r3, #4
 8003e8e:	687b      	ldr	r3, [r7, #4]
 8003e90:	645a      	str	r2, [r3, #68]	@ 0x44
 8003e92:	f8d7 30e4 	ldr.w	r3, [r7, #228]	@ 0xe4
 8003e96:	f003 0308 	and.w	r3, r3, #8
 8003e9a:	2b00      	cmp	r3, #0
 8003e9c:	d011      	beq.n	8003ec2 <HAL_UART_IRQHandler+0x126>
 8003e9e:	f8d7 30e0 	ldr.w	r3, [r7, #224]	@ 0xe0
 8003ea2:	f003 0320 	and.w	r3, r3, #32
 8003ea6:	2b00      	cmp	r3, #0
 8003ea8:	d105      	bne.n	8003eb6 <HAL_UART_IRQHandler+0x11a>
 8003eaa:	f8d7 30dc 	ldr.w	r3, [r7, #220]	@ 0xdc
 8003eae:	f003 0301 	and.w	r3, r3, #1
 8003eb2:	2b00      	cmp	r3, #0
 8003eb4:	d005      	beq.n	8003ec2 <HAL_UART_IRQHandler+0x126>
 8003eb6:	687b      	ldr	r3, [r7, #4]
 8003eb8:	6c5b      	ldr	r3, [r3, #68]	@ 0x44
 8003eba:	f043 0208 	orr.w	r2, r3, #8
 8003ebe:	687b      	ldr	r3, [r7, #4]
 8003ec0:	645a      	str	r2, [r3, #68]	@ 0x44
 8003ec2:	687b      	ldr	r3, [r7, #4]
 8003ec4:	6c5b      	ldr	r3, [r3, #68]	@ 0x44
 8003ec6:	2b00      	cmp	r3, #0
 8003ec8:	f000 81f2 	beq.w	80042b0 <HAL_UART_IRQHandler+0x514>
 8003ecc:	f8d7 30e4 	ldr.w	r3, [r7, #228]	@ 0xe4
 8003ed0:	f003 0320 	and.w	r3, r3, #32
 8003ed4:	2b00      	cmp	r3, #0
 8003ed6:	d008      	beq.n	8003eea <HAL_UART_IRQHandler+0x14e>
 8003ed8:	f8d7 30e0 	ldr.w	r3, [r7, #224]	@ 0xe0
 8003edc:	f003 0320 	and.w	r3, r3, #32
 8003ee0:	2b00      	cmp	r3, #0
 8003ee2:	d002      	beq.n	8003eea <HAL_UART_IRQHandler+0x14e>
 8003ee4:	6878      	ldr	r0, [r7, #4]
 8003ee6:	f000 fb7d 	bl	80045e4 <UART_Receive_IT>
 8003eea:	687b      	ldr	r3, [r7, #4]
 8003eec:	681b      	ldr	r3, [r3, #0]
 8003eee:	695b      	ldr	r3, [r3, #20]
 8003ef0:	f003 0340 	and.w	r3, r3, #64	@ 0x40
 8003ef4:	2b40      	cmp	r3, #64	@ 0x40
 8003ef6:	bf0c      	ite	eq
 8003ef8:	2301      	moveq	r3, #1
 8003efa:	2300      	movne	r3, #0
 8003efc:	b2db      	uxtb	r3, r3
 8003efe:	f8c7 30d4 	str.w	r3, [r7, #212]	@ 0xd4
 8003f02:	687b      	ldr	r3, [r7, #4]
 8003f04:	6c5b      	ldr	r3, [r3, #68]	@ 0x44
 8003f06:	f003 0308 	and.w	r3, r3, #8
 8003f0a:	2b00      	cmp	r3, #0
 8003f0c:	d103      	bne.n	8003f16 <HAL_UART_IRQHandler+0x17a>
 8003f0e:	f8d7 30d4 	ldr.w	r3, [r7, #212]	@ 0xd4
 8003f12:	2b00      	cmp	r3, #0
 8003f14:	d04f      	beq.n	8003fb6 <HAL_UART_IRQHandler+0x21a>
 8003f16:	6878      	ldr	r0, [r7, #4]
 8003f18:	f000 fa85 	bl	8004426 <UART_EndRxTransfer>
 8003f1c:	687b      	ldr	r3, [r7, #4]
 8003f1e:	681b      	ldr	r3, [r3, #0]
 8003f20:	695b      	ldr	r3, [r3, #20]
 8003f22:	f003 0340 	and.w	r3, r3, #64	@ 0x40
 8003f26:	2b40      	cmp	r3, #64	@ 0x40
 8003f28:	d141      	bne.n	8003fae <HAL_UART_IRQHandler+0x212>
 8003f2a:	687b      	ldr	r3, [r7, #4]
 8003f2c:	681b      	ldr	r3, [r3, #0]
 8003f2e:	3314      	adds	r3, #20
 8003f30:	f8c7 309c 	str.w	r3, [r7, #156]	@ 0x9c
 8003f34:	f8d7 309c 	ldr.w	r3, [r7, #156]	@ 0x9c
 8003f38:	e853 3f00 	ldrex	r3, [r3]
 8003f3c:	f8c7 3098 	str.w	r3, [r7, #152]	@ 0x98
 8003f40:	f8d7 3098 	ldr.w	r3, [r7, #152]	@ 0x98
 8003f44:	f023 0340 	bic.w	r3, r3, #64	@ 0x40
 8003f48:	f8c7 30d0 	str.w	r3, [r7, #208]	@ 0xd0
 8003f4c:	687b      	ldr	r3, [r7, #4]
 8003f4e:	681b      	ldr	r3, [r3, #0]
 8003f50:	3314      	adds	r3, #20
 8003f52:	f8d7 20d0 	ldr.w	r2, [r7, #208]	@ 0xd0
 8003f56:	f8c7 20a8 	str.w	r2, [r7, #168]	@ 0xa8
 8003f5a:	f8c7 30a4 	str.w	r3, [r7, #164]	@ 0xa4
 8003f5e:	f8d7 10a4 	ldr.w	r1, [r7, #164]	@ 0xa4
 8003f62:	f8d7 20a8 	ldr.w	r2, [r7, #168]	@ 0xa8
 8003f66:	e841 2300 	strex	r3, r2, [r1]
 8003f6a:	f8c7 30a0 	str.w	r3, [r7, #160]	@ 0xa0
 8003f6e:	f8d7 30a0 	ldr.w	r3, [r7, #160]	@ 0xa0
 8003f72:	2b00      	cmp	r3, #0
 8003f74:	d1d9      	bne.n	8003f2a <HAL_UART_IRQHandler+0x18e>
 8003f76:	687b      	ldr	r3, [r7, #4]
 8003f78:	6bdb      	ldr	r3, [r3, #60]	@ 0x3c
 8003f7a:	2b00      	cmp	r3, #0
 8003f7c:	d013      	beq.n	8003fa6 <HAL_UART_IRQHandler+0x20a>
 8003f7e:	687b      	ldr	r3, [r7, #4]
 8003f80:	6bdb      	ldr	r3, [r3, #60]	@ 0x3c
 8003f82:	4a7e      	ldr	r2, [pc, #504]	@ (800417c <HAL_UART_IRQHandler+0x3e0>)
 8003f84:	651a      	str	r2, [r3, #80]	@ 0x50
 8003f86:	687b      	ldr	r3, [r7, #4]
 8003f88:	6bdb      	ldr	r3, [r3, #60]	@ 0x3c
 8003f8a:	4618      	mov	r0, r3
 8003f8c:	f7fd ffa1 	bl	8001ed2 <HAL_DMA_Abort_IT>
 8003f90:	4603      	mov	r3, r0
 8003f92:	2b00      	cmp	r3, #0
 8003f94:	d016      	beq.n	8003fc4 <HAL_UART_IRQHandler+0x228>
 8003f96:	687b      	ldr	r3, [r7, #4]
 8003f98:	6bdb      	ldr	r3, [r3, #60]	@ 0x3c
 8003f9a:	6d1b      	ldr	r3, [r3, #80]	@ 0x50
 8003f9c:	687a      	ldr	r2, [r7, #4]
 8003f9e:	6bd2      	ldr	r2, [r2, #60]	@ 0x3c
 8003fa0:	4610      	mov	r0, r2
 8003fa2:	4798      	blx	r3
 8003fa4:	e00e      	b.n	8003fc4 <HAL_UART_IRQHandler+0x228>
 8003fa6:	6878      	ldr	r0, [r7, #4]
 8003fa8:	f000 f994 	bl	80042d4 <HAL_UART_ErrorCallback>
 8003fac:	e00a      	b.n	8003fc4 <HAL_UART_IRQHandler+0x228>
 8003fae:	6878      	ldr	r0, [r7, #4]
 8003fb0:	f000 f990 	bl	80042d4 <HAL_UART_ErrorCallback>
 8003fb4:	e006      	b.n	8003fc4 <HAL_UART_IRQHandler+0x228>
 8003fb6:	6878      	ldr	r0, [r7, #4]
 8003fb8:	f000 f98c 	bl	80042d4 <HAL_UART_ErrorCallback>
 8003fbc:	687b      	ldr	r3, [r7, #4]
 8003fbe:	2200      	movs	r2, #0
 8003fc0:	645a      	str	r2, [r3, #68]	@ 0x44
 8003fc2:	e175      	b.n	80042b0 <HAL_UART_IRQHandler+0x514>
 8003fc4:	bf00      	nop
 8003fc6:	e173      	b.n	80042b0 <HAL_UART_IRQHandler+0x514>
 8003fc8:	687b      	ldr	r3, [r7, #4]
 8003fca:	6b1b      	ldr	r3, [r3, #48]	@ 0x30
 8003fcc:	2b01      	cmp	r3, #1
 8003fce:	f040 814f 	bne.w	8004270 <HAL_UART_IRQHandler+0x4d4>
 8003fd2:	f8d7 30e4 	ldr.w	r3, [r7, #228]	@ 0xe4
 8003fd6:	f003 0310 	and.w	r3, r3, #16
 8003fda:	2b00      	cmp	r3, #0
 8003fdc:	f000 8148 	beq.w	8004270 <HAL_UART_IRQHandler+0x4d4>
 8003fe0:	f8d7 30e0 	ldr.w	r3, [r7, #224]	@ 0xe0
 8003fe4:	f003 0310 	and.w	r3, r3, #16
 8003fe8:	2b00      	cmp	r3, #0
 8003fea:	f000 8141 	beq.w	8004270 <HAL_UART_IRQHandler+0x4d4>
 8003fee:	2300      	movs	r3, #0
 8003ff0:	60bb      	str	r3, [r7, #8]
 8003ff2:	687b      	ldr	r3, [r7, #4]
 8003ff4:	681b      	ldr	r3, [r3, #0]
 8003ff6:	681b      	ldr	r3, [r3, #0]
 8003ff8:	60bb      	str	r3, [r7, #8]
 8003ffa:	687b      	ldr	r3, [r7, #4]
 8003ffc:	681b      	ldr	r3, [r3, #0]
 8003ffe:	685b      	ldr	r3, [r3, #4]
 8004000:	60bb      	str	r3, [r7, #8]
 8004002:	68bb      	ldr	r3, [r7, #8]
 8004004:	687b      	ldr	r3, [r7, #4]
 8004006:	681b      	ldr	r3, [r3, #0]
 8004008:	695b      	ldr	r3, [r3, #20]
 800400a:	f003 0340 	and.w	r3, r3, #64	@ 0x40
 800400e:	2b40      	cmp	r3, #64	@ 0x40
 8004010:	f040 80b6 	bne.w	8004180 <HAL_UART_IRQHandler+0x3e4>
 8004014:	687b      	ldr	r3, [r7, #4]
 8004016:	6bdb      	ldr	r3, [r3, #60]	@ 0x3c
 8004018:	681b      	ldr	r3, [r3, #0]
 800401a:	685b      	ldr	r3, [r3, #4]
 800401c:	f8a7 30be 	strh.w	r3, [r7, #190]	@ 0xbe
 8004020:	f8b7 30be 	ldrh.w	r3, [r7, #190]	@ 0xbe
 8004024:	2b00      	cmp	r3, #0
 8004026:	f000 8145 	beq.w	80042b4 <HAL_UART_IRQHandler+0x518>
 800402a:	687b      	ldr	r3, [r7, #4]
 800402c:	8d9b      	ldrh	r3, [r3, #44]	@ 0x2c
 800402e:	f8b7 20be 	ldrh.w	r2, [r7, #190]	@ 0xbe
 8004032:	429a      	cmp	r2, r3
 8004034:	f080 813e 	bcs.w	80042b4 <HAL_UART_IRQHandler+0x518>
 8004038:	687b      	ldr	r3, [r7, #4]
 800403a:	f8b7 20be 	ldrh.w	r2, [r7, #190]	@ 0xbe
 800403e:	85da      	strh	r2, [r3, #46]	@ 0x2e
 8004040:	687b      	ldr	r3, [r7, #4]
 8004042:	6bdb      	ldr	r3, [r3, #60]	@ 0x3c
 8004044:	69db      	ldr	r3, [r3, #28]
 8004046:	f5b3 7f80 	cmp.w	r3, #256	@ 0x100
 800404a:	f000 8088 	beq.w	800415e <HAL_UART_IRQHandler+0x3c2>
 800404e:	687b      	ldr	r3, [r7, #4]
 8004050:	681b      	ldr	r3, [r3, #0]
 8004052:	330c      	adds	r3, #12
 8004054:	f8c7 3088 	str.w	r3, [r7, #136]	@ 0x88
 8004058:	f8d7 3088 	ldr.w	r3, [r7, #136]	@ 0x88
 800405c:	e853 3f00 	ldrex	r3, [r3]
 8004060:	f8c7 3084 	str.w	r3, [r7, #132]	@ 0x84
 8004064:	f8d7 3084 	ldr.w	r3, [r7, #132]	@ 0x84
 8004068:	f423 7380 	bic.w	r3, r3, #256	@ 0x100
 800406c:	f8c7 30b8 	str.w	r3, [r7, #184]	@ 0xb8
 8004070:	687b      	ldr	r3, [r7, #4]
 8004072:	681b      	ldr	r3, [r3, #0]
 8004074:	330c      	adds	r3, #12
 8004076:	f8d7 20b8 	ldr.w	r2, [r7, #184]	@ 0xb8
 800407a:	f8c7 2094 	str.w	r2, [r7, #148]	@ 0x94
 800407e:	f8c7 3090 	str.w	r3, [r7, #144]	@ 0x90
 8004082:	f8d7 1090 	ldr.w	r1, [r7, #144]	@ 0x90
 8004086:	f8d7 2094 	ldr.w	r2, [r7, #148]	@ 0x94
 800408a:	e841 2300 	strex	r3, r2, [r1]
 800408e:	f8c7 308c 	str.w	r3, [r7, #140]	@ 0x8c
 8004092:	f8d7 308c 	ldr.w	r3, [r7, #140]	@ 0x8c
 8004096:	2b00      	cmp	r3, #0
 8004098:	d1d9      	bne.n	800404e <HAL_UART_IRQHandler+0x2b2>
 800409a:	687b      	ldr	r3, [r7, #4]
 800409c:	681b      	ldr	r3, [r3, #0]
 800409e:	3314      	adds	r3, #20
 80040a0:	677b      	str	r3, [r7, #116]	@ 0x74
 80040a2:	6f7b      	ldr	r3, [r7, #116]	@ 0x74
 80040a4:	e853 3f00 	ldrex	r3, [r3]
 80040a8:	673b      	str	r3, [r7, #112]	@ 0x70
 80040aa:	6f3b      	ldr	r3, [r7, #112]	@ 0x70
 80040ac:	f023 0301 	bic.w	r3, r3, #1
 80040b0:	f8c7 30b4 	str.w	r3, [r7, #180]	@ 0xb4
 80040b4:	687b      	ldr	r3, [r7, #4]
 80040b6:	681b      	ldr	r3, [r3, #0]
 80040b8:	3314      	adds	r3, #20
 80040ba:	f8d7 20b4 	ldr.w	r2, [r7, #180]	@ 0xb4
 80040be:	f8c7 2080 	str.w	r2, [r7, #128]	@ 0x80
 80040c2:	67fb      	str	r3, [r7, #124]	@ 0x7c
 80040c4:	6ff9      	ldr	r1, [r7, #124]	@ 0x7c
 80040c6:	f8d7 2080 	ldr.w	r2, [r7, #128]	@ 0x80
 80040ca:	e841 2300 	strex	r3, r2, [r1]
 80040ce:	67bb      	str	r3, [r7, #120]	@ 0x78
 80040d0:	6fbb      	ldr	r3, [r7, #120]	@ 0x78
 80040d2:	2b00      	cmp	r3, #0
 80040d4:	d1e1      	bne.n	800409a <HAL_UART_IRQHandler+0x2fe>
 80040d6:	687b      	ldr	r3, [r7, #4]
 80040d8:	681b      	ldr	r3, [r3, #0]
 80040da:	3314      	adds	r3, #20
 80040dc:	663b      	str	r3, [r7, #96]	@ 0x60
 80040de:	6e3b      	ldr	r3, [r7, #96]	@ 0x60
 80040e0:	e853 3f00 	ldrex	r3, [r3]
 80040e4:	65fb      	str	r3, [r7, #92]	@ 0x5c
 80040e6:	6dfb      	ldr	r3, [r7, #92]	@ 0x5c
 80040e8:	f023 0340 	bic.w	r3, r3, #64	@ 0x40
 80040ec:	f8c7 30b0 	str.w	r3, [r7, #176]	@ 0xb0
 80040f0:	687b      	ldr	r3, [r7, #4]
 80040f2:	681b      	ldr	r3, [r3, #0]
 80040f4:	3314      	adds	r3, #20
 80040f6:	f8d7 20b0 	ldr.w	r2, [r7, #176]	@ 0xb0
 80040fa:	66fa      	str	r2, [r7, #108]	@ 0x6c
 80040fc:	66bb      	str	r3, [r7, #104]	@ 0x68
 80040fe:	6eb9      	ldr	r1, [r7, #104]	@ 0x68
 8004100:	6efa      	ldr	r2, [r7, #108]	@ 0x6c
 8004102:	e841 2300 	strex	r3, r2, [r1]
 8004106:	667b      	str	r3, [r7, #100]	@ 0x64
 8004108:	6e7b      	ldr	r3, [r7, #100]	@ 0x64
 800410a:	2b00      	cmp	r3, #0
 800410c:	d1e3      	bne.n	80040d6 <HAL_UART_IRQHandler+0x33a>
 800410e:	687b      	ldr	r3, [r7, #4]
 8004110:	2220      	movs	r2, #32
 8004112:	f883 2042 	strb.w	r2, [r3, #66]	@ 0x42
 8004116:	687b      	ldr	r3, [r7, #4]
 8004118:	2200      	movs	r2, #0
 800411a:	631a      	str	r2, [r3, #48]	@ 0x30
 800411c:	687b      	ldr	r3, [r7, #4]
 800411e:	681b      	ldr	r3, [r3, #0]
 8004120:	330c      	adds	r3, #12
 8004122:	64fb      	str	r3, [r7, #76]	@ 0x4c
 8004124:	6cfb      	ldr	r3, [r7, #76]	@ 0x4c
 8004126:	e853 3f00 	ldrex	r3, [r3]
 800412a:	64bb      	str	r3, [r7, #72]	@ 0x48
 800412c:	6cbb      	ldr	r3, [r7, #72]	@ 0x48
 800412e:	f023 0310 	bic.w	r3, r3, #16
 8004132:	f8c7 30ac 	str.w	r3, [r7, #172]	@ 0xac
 8004136:	687b      	ldr	r3, [r7, #4]
 8004138:	681b      	ldr	r3, [r3, #0]
 800413a:	330c      	adds	r3, #12
 800413c:	f8d7 20ac 	ldr.w	r2, [r7, #172]	@ 0xac
 8004140:	65ba      	str	r2, [r7, #88]	@ 0x58
 8004142:	657b      	str	r3, [r7, #84]	@ 0x54
 8004144:	6d79      	ldr	r1, [r7, #84]	@ 0x54
 8004146:	6dba      	ldr	r2, [r7, #88]	@ 0x58
 8004148:	e841 2300 	strex	r3, r2, [r1]
 800414c:	653b      	str	r3, [r7, #80]	@ 0x50
 800414e:	6d3b      	ldr	r3, [r7, #80]	@ 0x50
 8004150:	2b00      	cmp	r3, #0
 8004152:	d1e3      	bne.n	800411c <HAL_UART_IRQHandler+0x380>
 8004154:	687b      	ldr	r3, [r7, #4]
 8004156:	6bdb      	ldr	r3, [r3, #60]	@ 0x3c
 8004158:	4618      	mov	r0, r3
 800415a:	f7fd fe4a 	bl	8001df2 <HAL_DMA_Abort>
 800415e:	687b      	ldr	r3, [r7, #4]
 8004160:	2202      	movs	r2, #2
 8004162:	635a      	str	r2, [r3, #52]	@ 0x34
 8004164:	687b      	ldr	r3, [r7, #4]
 8004166:	8d9a      	ldrh	r2, [r3, #44]	@ 0x2c
 8004168:	687b      	ldr	r3, [r7, #4]
 800416a:	8ddb      	ldrh	r3, [r3, #46]	@ 0x2e
 800416c:	b29b      	uxth	r3, r3
 800416e:	1ad3      	subs	r3, r2, r3
 8004170:	b29b      	uxth	r3, r3
 8004172:	4619      	mov	r1, r3
 8004174:	6878      	ldr	r0, [r7, #4]
 8004176:	f000 f8b7 	bl	80042e8 <HAL_UARTEx_RxEventCallback>
 800417a:	e09b      	b.n	80042b4 <HAL_UART_IRQHandler+0x518>
 800417c:	080044ed 	.word	0x080044ed
 8004180:	687b      	ldr	r3, [r7, #4]
 8004182:	8d9a      	ldrh	r2, [r3, #44]	@ 0x2c
 8004184:	687b      	ldr	r3, [r7, #4]
 8004186:	8ddb      	ldrh	r3, [r3, #46]	@ 0x2e
 8004188:	b29b      	uxth	r3, r3
 800418a:	1ad3      	subs	r3, r2, r3
 800418c:	f8a7 30ce 	strh.w	r3, [r7, #206]	@ 0xce
 8004190:	687b      	ldr	r3, [r7, #4]
 8004192:	8ddb      	ldrh	r3, [r3, #46]	@ 0x2e
 8004194:	b29b      	uxth	r3, r3
 8004196:	2b00      	cmp	r3, #0
 8004198:	f000 808e 	beq.w	80042b8 <HAL_UART_IRQHandler+0x51c>
 800419c:	f8b7 30ce 	ldrh.w	r3, [r7, #206]	@ 0xce
 80041a0:	2b00      	cmp	r3, #0
 80041a2:	f000 8089 	beq.w	80042b8 <HAL_UART_IRQHandler+0x51c>
 80041a6:	687b      	ldr	r3, [r7, #4]
 80041a8:	681b      	ldr	r3, [r3, #0]
 80041aa:	330c      	adds	r3, #12
 80041ac:	63bb      	str	r3, [r7, #56]	@ 0x38
 80041ae:	6bbb      	ldr	r3, [r7, #56]	@ 0x38
 80041b0:	e853 3f00 	ldrex	r3, [r3]
 80041b4:	637b      	str	r3, [r7, #52]	@ 0x34
 80041b6:	6b7b      	ldr	r3, [r7, #52]	@ 0x34
 80041b8:	f423 7390 	bic.w	r3, r3, #288	@ 0x120
 80041bc:	f8c7 30c8 	str.w	r3, [r7, #200]	@ 0xc8
 80041c0:	687b      	ldr	r3, [r7, #4]
 80041c2:	681b      	ldr	r3, [r3, #0]
 80041c4:	330c      	adds	r3, #12
 80041c6:	f8d7 20c8 	ldr.w	r2, [r7, #200]	@ 0xc8
 80041ca:	647a      	str	r2, [r7, #68]	@ 0x44
 80041cc:	643b      	str	r3, [r7, #64]	@ 0x40
 80041ce:	6c39      	ldr	r1, [r7, #64]	@ 0x40
 80041d0:	6c7a      	ldr	r2, [r7, #68]	@ 0x44
 80041d2:	e841 2300 	strex	r3, r2, [r1]
 80041d6:	63fb      	str	r3, [r7, #60]	@ 0x3c
 80041d8:	6bfb      	ldr	r3, [r7, #60]	@ 0x3c
 80041da:	2b00      	cmp	r3, #0
 80041dc:	d1e3      	bne.n	80041a6 <HAL_UART_IRQHandler+0x40a>
 80041de:	687b      	ldr	r3, [r7, #4]
 80041e0:	681b      	ldr	r3, [r3, #0]
 80041e2:	3314      	adds	r3, #20
 80041e4:	627b      	str	r3, [r7, #36]	@ 0x24
 80041e6:	6a7b      	ldr	r3, [r7, #36]	@ 0x24
 80041e8:	e853 3f00 	ldrex	r3, [r3]
 80041ec:	623b      	str	r3, [r7, #32]
 80041ee:	6a3b      	ldr	r3, [r7, #32]
 80041f0:	f023 0301 	bic.w	r3, r3, #1
 80041f4:	f8c7 30c4 	str.w	r3, [r7, #196]	@ 0xc4
 80041f8:	687b      	ldr	r3, [r7, #4]
 80041fa:	681b      	ldr	r3, [r3, #0]
 80041fc:	3314      	adds	r3, #20
 80041fe:	f8d7 20c4 	ldr.w	r2, [r7, #196]	@ 0xc4
 8004202:	633a      	str	r2, [r7, #48]	@ 0x30
 8004204:	62fb      	str	r3, [r7, #44]	@ 0x2c
 8004206:	6af9      	ldr	r1, [r7, #44]	@ 0x2c
 8004208:	6b3a      	ldr	r2, [r7, #48]	@ 0x30
 800420a:	e841 2300 	strex	r3, r2, [r1]
 800420e:	62bb      	str	r3, [r7, #40]	@ 0x28
 8004210:	6abb      	ldr	r3, [r7, #40]	@ 0x28
 8004212:	2b00      	cmp	r3, #0
 8004214:	d1e3      	bne.n	80041de <HAL_UART_IRQHandler+0x442>
 8004216:	687b      	ldr	r3, [r7, #4]
 8004218:	2220      	movs	r2, #32
 800421a:	f883 2042 	strb.w	r2, [r3, #66]	@ 0x42
 800421e:	687b      	ldr	r3, [r7, #4]
 8004220:	2200      	movs	r2, #0
 8004222:	631a      	str	r2, [r3, #48]	@ 0x30
 8004224:	687b      	ldr	r3, [r7, #4]
 8004226:	681b      	ldr	r3, [r3, #0]
 8004228:	330c      	adds	r3, #12
 800422a:	613b      	str	r3, [r7, #16]
 800422c:	693b      	ldr	r3, [r7, #16]
 800422e:	e853 3f00 	ldrex	r3, [r3]
 8004232:	60fb      	str	r3, [r7, #12]
 8004234:	68fb      	ldr	r3, [r7, #12]
 8004236:	f023 0310 	bic.w	r3, r3, #16
 800423a:	f8c7 30c0 	str.w	r3, [r7, #192]	@ 0xc0
 800423e:	687b      	ldr	r3, [r7, #4]
 8004240:	681b      	ldr	r3, [r3, #0]
 8004242:	330c      	adds	r3, #12
 8004244:	f8d7 20c0 	ldr.w	r2, [r7, #192]	@ 0xc0
 8004248:	61fa      	str	r2, [r7, #28]
 800424a:	61bb      	str	r3, [r7, #24]
 800424c:	69b9      	ldr	r1, [r7, #24]
 800424e:	69fa      	ldr	r2, [r7, #28]
 8004250:	e841 2300 	strex	r3, r2, [r1]
 8004254:	617b      	str	r3, [r7, #20]
 8004256:	697b      	ldr	r3, [r7, #20]
 8004258:	2b00      	cmp	r3, #0
 800425a:	d1e3      	bne.n	8004224 <HAL_UART_IRQHandler+0x488>
 800425c:	687b      	ldr	r3, [r7, #4]
 800425e:	2202      	movs	r2, #2
 8004260:	635a      	str	r2, [r3, #52]	@ 0x34
 8004262:	f8b7 30ce 	ldrh.w	r3, [r7, #206]	@ 0xce
 8004266:	4619      	mov	r1, r3
 8004268:	6878      	ldr	r0, [r7, #4]
 800426a:	f000 f83d 	bl	80042e8 <HAL_UARTEx_RxEventCallback>
 800426e:	e023      	b.n	80042b8 <HAL_UART_IRQHandler+0x51c>
 8004270:	f8d7 30e4 	ldr.w	r3, [r7, #228]	@ 0xe4
 8004274:	f003 0380 	and.w	r3, r3, #128	@ 0x80
 8004278:	2b00      	cmp	r3, #0
 800427a:	d009      	beq.n	8004290 <HAL_UART_IRQHandler+0x4f4>
 800427c:	f8d7 30e0 	ldr.w	r3, [r7, #224]	@ 0xe0
 8004280:	f003 0380 	and.w	r3, r3, #128	@ 0x80
 8004284:	2b00      	cmp	r3, #0
 8004286:	d003      	beq.n	8004290 <HAL_UART_IRQHandler+0x4f4>
 8004288:	6878      	ldr	r0, [r7, #4]
 800428a:	f000 f943 	bl	8004514 <UART_Transmit_IT>
 800428e:	e014      	b.n	80042ba <HAL_UART_IRQHandler+0x51e>
 8004290:	f8d7 30e4 	ldr.w	r3, [r7, #228]	@ 0xe4
 8004294:	f003 0340 	and.w	r3, r3, #64	@ 0x40
 8004298:	2b00      	cmp	r3, #0
 800429a:	d00e      	beq.n	80042ba <HAL_UART_IRQHandler+0x51e>
 800429c:	f8d7 30e0 	ldr.w	r3, [r7, #224]	@ 0xe0
 80042a0:	f003 0340 	and.w	r3, r3, #64	@ 0x40
 80042a4:	2b00      	cmp	r3, #0
 80042a6:	d008      	beq.n	80042ba <HAL_UART_IRQHandler+0x51e>
 80042a8:	6878      	ldr	r0, [r7, #4]
 80042aa:	f000 f983 	bl	80045b4 <UART_EndTransmit_IT>
 80042ae:	e004      	b.n	80042ba <HAL_UART_IRQHandler+0x51e>
 80042b0:	bf00      	nop
 80042b2:	e002      	b.n	80042ba <HAL_UART_IRQHandler+0x51e>
 80042b4:	bf00      	nop
 80042b6:	e000      	b.n	80042ba <HAL_UART_IRQHandler+0x51e>
 80042b8:	bf00      	nop
 80042ba:	37e8      	adds	r7, #232	@ 0xe8
 80042bc:	46bd      	mov	sp, r7
 80042be:	bd80      	pop	{r7, pc}

080042c0 <HAL_UART_TxCpltCallback>:
 80042c0:	b480      	push	{r7}
 80042c2:	b083      	sub	sp, #12
 80042c4:	af00      	add	r7, sp, #0
 80042c6:	6078      	str	r0, [r7, #4]
 80042c8:	bf00      	nop
 80042ca:	370c      	adds	r7, #12
 80042cc:	46bd      	mov	sp, r7
 80042ce:	f85d 7b04 	ldr.w	r7, [sp], #4
 80042d2:	4770      	bx	lr

080042d4 <HAL_UART_ErrorCallback>:
 80042d4:	b480      	push	{r7}
 80042d6:	b083      	sub	sp, #12
 80042d8:	af00      	add	r7, sp, #0
 80042da:	6078      	str	r0, [r7, #4]
 80042dc:	bf00      	nop
 80042de:	370c      	adds	r7, #12
 80042e0:	46bd      	mov	sp, r7
 80042e2:	f85d 7b04 	ldr.w	r7, [sp], #4
 80042e6:	4770      	bx	lr

080042e8 <HAL_UARTEx_RxEventCallback>:
 80042e8:	b480      	push	{r7}
 80042ea:	b083      	sub	sp, #12
 80042ec:	af00      	add	r7, sp, #0
 80042ee:	6078      	str	r0, [r7, #4]
 80042f0:	460b      	mov	r3, r1
 80042f2:	807b      	strh	r3, [r7, #2]
 80042f4:	bf00      	nop
 80042f6:	370c      	adds	r7, #12
 80042f8:	46bd      	mov	sp, r7
 80042fa:	f85d 7b04 	ldr.w	r7, [sp], #4
 80042fe:	4770      	bx	lr

08004300 <UART_WaitOnFlagUntilTimeout>:
 8004300:	b580      	push	{r7, lr}
 8004302:	b086      	sub	sp, #24
 8004304:	af00      	add	r7, sp, #0
 8004306:	60f8      	str	r0, [r7, #12]
 8004308:	60b9      	str	r1, [r7, #8]
 800430a:	603b      	str	r3, [r7, #0]
 800430c:	4613      	mov	r3, r2
 800430e:	71fb      	strb	r3, [r7, #7]
 8004310:	e03b      	b.n	800438a <UART_WaitOnFlagUntilTimeout+0x8a>
 8004312:	6a3b      	ldr	r3, [r7, #32]
 8004314:	f1b3 3fff 	cmp.w	r3, #4294967295	@ 0xffffffff
 8004318:	d037      	beq.n	800438a <UART_WaitOnFlagUntilTimeout+0x8a>
 800431a:	f7fd fc29 	bl	8001b70 <HAL_GetTick>
 800431e:	4602      	mov	r2, r0
 8004320:	683b      	ldr	r3, [r7, #0]
 8004322:	1ad3      	subs	r3, r2, r3
 8004324:	6a3a      	ldr	r2, [r7, #32]
 8004326:	429a      	cmp	r2, r3
 8004328:	d302      	bcc.n	8004330 <UART_WaitOnFlagUntilTimeout+0x30>
 800432a:	6a3b      	ldr	r3, [r7, #32]
 800432c:	2b00      	cmp	r3, #0
 800432e:	d101      	bne.n	8004334 <UART_WaitOnFlagUntilTimeout+0x34>
 8004330:	2303      	movs	r3, #3
 8004332:	e03a      	b.n	80043aa <UART_WaitOnFlagUntilTimeout+0xaa>
 8004334:	68fb      	ldr	r3, [r7, #12]
 8004336:	681b      	ldr	r3, [r3, #0]
 8004338:	68db      	ldr	r3, [r3, #12]
 800433a:	f003 0304 	and.w	r3, r3, #4
 800433e:	2b00      	cmp	r3, #0
 8004340:	d023      	beq.n	800438a <UART_WaitOnFlagUntilTimeout+0x8a>
 8004342:	68bb      	ldr	r3, [r7, #8]
 8004344:	2b80      	cmp	r3, #128	@ 0x80
 8004346:	d020      	beq.n	800438a <UART_WaitOnFlagUntilTimeout+0x8a>
 8004348:	68bb      	ldr	r3, [r7, #8]
 800434a:	2b40      	cmp	r3, #64	@ 0x40
 800434c:	d01d      	beq.n	800438a <UART_WaitOnFlagUntilTimeout+0x8a>
 800434e:	68fb      	ldr	r3, [r7, #12]
 8004350:	681b      	ldr	r3, [r3, #0]
 8004352:	681b      	ldr	r3, [r3, #0]
 8004354:	f003 0308 	and.w	r3, r3, #8
 8004358:	2b08      	cmp	r3, #8
 800435a:	d116      	bne.n	800438a <UART_WaitOnFlagUntilTimeout+0x8a>
 800435c:	2300      	movs	r3, #0
 800435e:	617b      	str	r3, [r7, #20]
 8004360:	68fb      	ldr	r3, [r7, #12]
 8004362:	681b      	ldr	r3, [r3, #0]
 8004364:	681b      	ldr	r3, [r3, #0]
 8004366:	617b      	str	r3, [r7, #20]
 8004368:	68fb      	ldr	r3, [r7, #12]
 800436a:	681b      	ldr	r3, [r3, #0]
 800436c:	685b      	ldr	r3, [r3, #4]
 800436e:	617b      	str	r3, [r7, #20]
 8004370:	697b      	ldr	r3, [r7, #20]
 8004372:	68f8      	ldr	r0, [r7, #12]
 8004374:	f000 f857 	bl	8004426 <UART_EndRxTransfer>
 8004378:	68fb      	ldr	r3, [r7, #12]
 800437a:	2208      	movs	r2, #8
 800437c:	645a      	str	r2, [r3, #68]	@ 0x44
 800437e:	68fb      	ldr	r3, [r7, #12]
 8004380:	2200      	movs	r2, #0
 8004382:	f883 2040 	strb.w	r2, [r3, #64]	@ 0x40
 8004386:	2301      	movs	r3, #1
 8004388:	e00f      	b.n	80043aa <UART_WaitOnFlagUntilTimeout+0xaa>
 800438a:	68fb      	ldr	r3, [r7, #12]
 800438c:	681b      	ldr	r3, [r3, #0]
 800438e:	681a      	ldr	r2, [r3, #0]
 8004390:	68bb      	ldr	r3, [r7, #8]
 8004392:	4013      	ands	r3, r2
 8004394:	68ba      	ldr	r2, [r7, #8]
 8004396:	429a      	cmp	r2, r3
 8004398:	bf0c      	ite	eq
 800439a:	2301      	moveq	r3, #1
 800439c:	2300      	movne	r3, #0
 800439e:	b2db      	uxtb	r3, r3
 80043a0:	461a      	mov	r2, r3
 80043a2:	79fb      	ldrb	r3, [r7, #7]
 80043a4:	429a      	cmp	r2, r3
 80043a6:	d0b4      	beq.n	8004312 <UART_WaitOnFlagUntilTimeout+0x12>
 80043a8:	2300      	movs	r3, #0
 80043aa:	4618      	mov	r0, r3
 80043ac:	3718      	adds	r7, #24
 80043ae:	46bd      	mov	sp, r7
 80043b0:	bd80      	pop	{r7, pc}

080043b2 <UART_Start_Receive_IT>:
 80043b2:	b480      	push	{r7}
 80043b4:	b085      	sub	sp, #20
 80043b6:	af00      	add	r7, sp, #0
 80043b8:	60f8      	str	r0, [r7, #12]
 80043ba:	60b9      	str	r1, [r7, #8]
 80043bc:	4613      	mov	r3, r2
 80043be:	80fb      	strh	r3, [r7, #6]
 80043c0:	68fb      	ldr	r3, [r7, #12]
 80043c2:	68ba      	ldr	r2, [r7, #8]
 80043c4:	629a      	str	r2, [r3, #40]	@ 0x28
 80043c6:	68fb      	ldr	r3, [r7, #12]
 80043c8:	88fa      	ldrh	r2, [r7, #6]
 80043ca:	859a      	strh	r2, [r3, #44]	@ 0x2c
 80043cc:	68fb      	ldr	r3, [r7, #12]
 80043ce:	88fa      	ldrh	r2, [r7, #6]
 80043d0:	85da      	strh	r2, [r3, #46]	@ 0x2e
 80043d2:	68fb      	ldr	r3, [r7, #12]
 80043d4:	2200      	movs	r2, #0
 80043d6:	645a      	str	r2, [r3, #68]	@ 0x44
 80043d8:	68fb      	ldr	r3, [r7, #12]
 80043da:	2222      	movs	r2, #34	@ 0x22
 80043dc:	f883 2042 	strb.w	r2, [r3, #66]	@ 0x42
 80043e0:	68fb      	ldr	r3, [r7, #12]
 80043e2:	691b      	ldr	r3, [r3, #16]
 80043e4:	2b00      	cmp	r3, #0
 80043e6:	d007      	beq.n	80043f8 <UART_Start_Receive_IT+0x46>
 80043e8:	68fb      	ldr	r3, [r7, #12]
 80043ea:	681b      	ldr	r3, [r3, #0]
 80043ec:	68da      	ldr	r2, [r3, #12]
 80043ee:	68fb      	ldr	r3, [r7, #12]
 80043f0:	681b      	ldr	r3, [r3, #0]
 80043f2:	f442 7280 	orr.w	r2, r2, #256	@ 0x100
 80043f6:	60da      	str	r2, [r3, #12]
 80043f8:	68fb      	ldr	r3, [r7, #12]
 80043fa:	681b      	ldr	r3, [r3, #0]
 80043fc:	695a      	ldr	r2, [r3, #20]
 80043fe:	68fb      	ldr	r3, [r7, #12]
 8004400:	681b      	ldr	r3, [r3, #0]
 8004402:	f042 0201 	orr.w	r2, r2, #1
 8004406:	615a      	str	r2, [r3, #20]
 8004408:	68fb      	ldr	r3, [r7, #12]
 800440a:	681b      	ldr	r3, [r3, #0]
 800440c:	68da      	ldr	r2, [r3, #12]
 800440e:	68fb      	ldr	r3, [r7, #12]
 8004410:	681b      	ldr	r3, [r3, #0]
 8004412:	f042 0220 	orr.w	r2, r2, #32
 8004416:	60da      	str	r2, [r3, #12]
 8004418:	2300      	movs	r3, #0
 800441a:	4618      	mov	r0, r3
 800441c:	3714      	adds	r7, #20
 800441e:	46bd      	mov	sp, r7
 8004420:	f85d 7b04 	ldr.w	r7, [sp], #4
 8004424:	4770      	bx	lr

08004426 <UART_EndRxTransfer>:
 8004426:	b480      	push	{r7}
 8004428:	b095      	sub	sp, #84	@ 0x54
 800442a:	af00      	add	r7, sp, #0
 800442c:	6078      	str	r0, [r7, #4]
 800442e:	687b      	ldr	r3, [r7, #4]
 8004430:	681b      	ldr	r3, [r3, #0]
 8004432:	330c      	adds	r3, #12
 8004434:	637b      	str	r3, [r7, #52]	@ 0x34
 8004436:	6b7b      	ldr	r3, [r7, #52]	@ 0x34
 8004438:	e853 3f00 	ldrex	r3, [r3]
 800443c:	633b      	str	r3, [r7, #48]	@ 0x30
 800443e:	6b3b      	ldr	r3, [r7, #48]	@ 0x30
 8004440:	f423 7390 	bic.w	r3, r3, #288	@ 0x120
 8004444:	64fb      	str	r3, [r7, #76]	@ 0x4c
 8004446:	687b      	ldr	r3, [r7, #4]
 8004448:	681b      	ldr	r3, [r3, #0]
 800444a:	330c      	adds	r3, #12
 800444c:	6cfa      	ldr	r2, [r7, #76]	@ 0x4c
 800444e:	643a      	str	r2, [r7, #64]	@ 0x40
 8004450:	63fb      	str	r3, [r7, #60]	@ 0x3c
 8004452:	6bf9      	ldr	r1, [r7, #60]	@ 0x3c
 8004454:	6c3a      	ldr	r2, [r7, #64]	@ 0x40
 8004456:	e841 2300 	strex	r3, r2, [r1]
 800445a:	63bb      	str	r3, [r7, #56]	@ 0x38
 800445c:	6bbb      	ldr	r3, [r7, #56]	@ 0x38
 800445e:	2b00      	cmp	r3, #0
 8004460:	d1e5      	bne.n	800442e <UART_EndRxTransfer+0x8>
 8004462:	687b      	ldr	r3, [r7, #4]
 8004464:	681b      	ldr	r3, [r3, #0]
 8004466:	3314      	adds	r3, #20
 8004468:	623b      	str	r3, [r7, #32]
 800446a:	6a3b      	ldr	r3, [r7, #32]
 800446c:	e853 3f00 	ldrex	r3, [r3]
 8004470:	61fb      	str	r3, [r7, #28]
 8004472:	69fb      	ldr	r3, [r7, #28]
 8004474:	f023 0301 	bic.w	r3, r3, #1
 8004478:	64bb      	str	r3, [r7, #72]	@ 0x48
 800447a:	687b      	ldr	r3, [r7, #4]
 800447c:	681b      	ldr	r3, [r3, #0]
 800447e:	3314      	adds	r3, #20
 8004480:	6cba      	ldr	r2, [r7, #72]	@ 0x48
 8004482:	62fa      	str	r2, [r7, #44]	@ 0x2c
 8004484:	62bb      	str	r3, [r7, #40]	@ 0x28
 8004486:	6ab9      	ldr	r1, [r7, #40]	@ 0x28
 8004488:	6afa      	ldr	r2, [r7, #44]	@ 0x2c
 800448a:	e841 2300 	strex	r3, r2, [r1]
 800448e:	627b      	str	r3, [r7, #36]	@ 0x24
 8004490:	6a7b      	ldr	r3, [r7, #36]	@ 0x24
 8004492:	2b00      	cmp	r3, #0
 8004494:	d1e5      	bne.n	8004462 <UART_EndRxTransfer+0x3c>
 8004496:	687b      	ldr	r3, [r7, #4]
 8004498:	6b1b      	ldr	r3, [r3, #48]	@ 0x30
 800449a:	2b01      	cmp	r3, #1
 800449c:	d119      	bne.n	80044d2 <UART_EndRxTransfer+0xac>
 800449e:	687b      	ldr	r3, [r7, #4]
 80044a0:	681b      	ldr	r3, [r3, #0]
 80044a2:	330c      	adds	r3, #12
 80044a4:	60fb      	str	r3, [r7, #12]
 80044a6:	68fb      	ldr	r3, [r7, #12]
 80044a8:	e853 3f00 	ldrex	r3, [r3]
 80044ac:	60bb      	str	r3, [r7, #8]
 80044ae:	68bb      	ldr	r3, [r7, #8]
 80044b0:	f023 0310 	bic.w	r3, r3, #16
 80044b4:	647b      	str	r3, [r7, #68]	@ 0x44
 80044b6:	687b      	ldr	r3, [r7, #4]
 80044b8:	681b      	ldr	r3, [r3, #0]
 80044ba:	330c      	adds	r3, #12
 80044bc:	6c7a      	ldr	r2, [r7, #68]	@ 0x44
 80044be:	61ba      	str	r2, [r7, #24]
 80044c0:	617b      	str	r3, [r7, #20]
 80044c2:	6979      	ldr	r1, [r7, #20]
 80044c4:	69ba      	ldr	r2, [r7, #24]
 80044c6:	e841 2300 	strex	r3, r2, [r1]
 80044ca:	613b      	str	r3, [r7, #16]
 80044cc:	693b      	ldr	r3, [r7, #16]
 80044ce:	2b00      	cmp	r3, #0
 80044d0:	d1e5      	bne.n	800449e <UART_EndRxTransfer+0x78>
 80044d2:	687b      	ldr	r3, [r7, #4]
 80044d4:	2220      	movs	r2, #32
 80044d6:	f883 2042 	strb.w	r2, [r3, #66]	@ 0x42
 80044da:	687b      	ldr	r3, [r7, #4]
 80044dc:	2200      	movs	r2, #0
 80044de:	631a      	str	r2, [r3, #48]	@ 0x30
 80044e0:	bf00      	nop
 80044e2:	3754      	adds	r7, #84	@ 0x54
 80044e4:	46bd      	mov	sp, r7
 80044e6:	f85d 7b04 	ldr.w	r7, [sp], #4
 80044ea:	4770      	bx	lr

080044ec <UART_DMAAbortOnError>:
 80044ec:	b580      	push	{r7, lr}
 80044ee:	b084      	sub	sp, #16
 80044f0:	af00      	add	r7, sp, #0
 80044f2:	6078      	str	r0, [r7, #4]
 80044f4:	687b      	ldr	r3, [r7, #4]
 80044f6:	6b9b      	ldr	r3, [r3, #56]	@ 0x38
 80044f8:	60fb      	str	r3, [r7, #12]
 80044fa:	68fb      	ldr	r3, [r7, #12]
 80044fc:	2200      	movs	r2, #0
 80044fe:	85da      	strh	r2, [r3, #46]	@ 0x2e
 8004500:	68fb      	ldr	r3, [r7, #12]
 8004502:	2200      	movs	r2, #0
 8004504:	84da      	strh	r2, [r3, #38]	@ 0x26
 8004506:	68f8      	ldr	r0, [r7, #12]
 8004508:	f7ff fee4 	bl	80042d4 <HAL_UART_ErrorCallback>
 800450c:	bf00      	nop
 800450e:	3710      	adds	r7, #16
 8004510:	46bd      	mov	sp, r7
 8004512:	bd80      	pop	{r7, pc}

08004514 <UART_Transmit_IT>:
 8004514:	b480      	push	{r7}
 8004516:	b085      	sub	sp, #20
 8004518:	af00      	add	r7, sp, #0
 800451a:	6078      	str	r0, [r7, #4]
 800451c:	687b      	ldr	r3, [r7, #4]
 800451e:	f893 3041 	ldrb.w	r3, [r3, #65]	@ 0x41
 8004522:	b2db      	uxtb	r3, r3
 8004524:	2b21      	cmp	r3, #33	@ 0x21
 8004526:	d13e      	bne.n	80045a6 <UART_Transmit_IT+0x92>
 8004528:	687b      	ldr	r3, [r7, #4]
 800452a:	689b      	ldr	r3, [r3, #8]
 800452c:	f5b3 5f80 	cmp.w	r3, #4096	@ 0x1000
 8004530:	d114      	bne.n	800455c <UART_Transmit_IT+0x48>
 8004532:	687b      	ldr	r3, [r7, #4]
 8004534:	691b      	ldr	r3, [r3, #16]
 8004536:	2b00      	cmp	r3, #0
 8004538:	d110      	bne.n	800455c <UART_Transmit_IT+0x48>
 800453a:	687b      	ldr	r3, [r7, #4]
 800453c:	6a1b      	ldr	r3, [r3, #32]
 800453e:	60fb      	str	r3, [r7, #12]
 8004540:	68fb      	ldr	r3, [r7, #12]
 8004542:	881b      	ldrh	r3, [r3, #0]
 8004544:	461a      	mov	r2, r3
 8004546:	687b      	ldr	r3, [r7, #4]
 8004548:	681b      	ldr	r3, [r3, #0]
 800454a:	f3c2 0208 	ubfx	r2, r2, #0, #9
 800454e:	605a      	str	r2, [r3, #4]
 8004550:	687b      	ldr	r3, [r7, #4]
 8004552:	6a1b      	ldr	r3, [r3, #32]
 8004554:	1c9a      	adds	r2, r3, #2
 8004556:	687b      	ldr	r3, [r7, #4]
 8004558:	621a      	str	r2, [r3, #32]
 800455a:	e008      	b.n	800456e <UART_Transmit_IT+0x5a>
 800455c:	687b      	ldr	r3, [r7, #4]
 800455e:	6a1b      	ldr	r3, [r3, #32]
 8004560:	1c59      	adds	r1, r3, #1
 8004562:	687a      	ldr	r2, [r7, #4]
 8004564:	6211      	str	r1, [r2, #32]
 8004566:	781a      	ldrb	r2, [r3, #0]
 8004568:	687b      	ldr	r3, [r7, #4]
 800456a:	681b      	ldr	r3, [r3, #0]
 800456c:	605a      	str	r2, [r3, #4]
 800456e:	687b      	ldr	r3, [r7, #4]
 8004570:	8cdb      	ldrh	r3, [r3, #38]	@ 0x26
 8004572:	b29b      	uxth	r3, r3
 8004574:	3b01      	subs	r3, #1
 8004576:	b29b      	uxth	r3, r3
 8004578:	687a      	ldr	r2, [r7, #4]
 800457a:	4619      	mov	r1, r3
 800457c:	84d1      	strh	r1, [r2, #38]	@ 0x26
 800457e:	2b00      	cmp	r3, #0
 8004580:	d10f      	bne.n	80045a2 <UART_Transmit_IT+0x8e>
 8004582:	687b      	ldr	r3, [r7, #4]
 8004584:	681b      	ldr	r3, [r3, #0]
 8004586:	68da      	ldr	r2, [r3, #12]
 8004588:	687b      	ldr	r3, [r7, #4]
 800458a:	681b      	ldr	r3, [r3, #0]
 800458c:	f022 0280 	bic.w	r2, r2, #128	@ 0x80
 8004590:	60da      	str	r2, [r3, #12]
 8004592:	687b      	ldr	r3, [r7, #4]
 8004594:	681b      	ldr	r3, [r3, #0]
 8004596:	68da      	ldr	r2, [r3, #12]
 8004598:	687b      	ldr	r3, [r7, #4]
 800459a:	681b      	ldr	r3, [r3, #0]
 800459c:	f042 0240 	orr.w	r2, r2, #64	@ 0x40
 80045a0:	60da      	str	r2, [r3, #12]
 80045a2:	2300      	movs	r3, #0
 80045a4:	e000      	b.n	80045a8 <UART_Transmit_IT+0x94>
 80045a6:	2302      	movs	r3, #2
 80045a8:	4618      	mov	r0, r3
 80045aa:	3714      	adds	r7, #20
 80045ac:	46bd      	mov	sp, r7
 80045ae:	f85d 7b04 	ldr.w	r7, [sp], #4
 80045b2:	4770      	bx	lr

080045b4 <UART_EndTransmit_IT>:
 80045b4:	b580      	push	{r7, lr}
 80045b6:	b082      	sub	sp, #8
 80045b8:	af00      	add	r7, sp, #0
 80045ba:	6078      	str	r0, [r7, #4]
 80045bc:	687b      	ldr	r3, [r7, #4]
 80045be:	681b      	ldr	r3, [r3, #0]
 80045c0:	68da      	ldr	r2, [r3, #12]
 80045c2:	687b      	ldr	r3, [r7, #4]
 80045c4:	681b      	ldr	r3, [r3, #0]
 80045c6:	f022 0240 	bic.w	r2, r2, #64	@ 0x40
 80045ca:	60da      	str	r2, [r3, #12]
 80045cc:	687b      	ldr	r3, [r7, #4]
 80045ce:	2220      	movs	r2, #32
 80045d0:	f883 2041 	strb.w	r2, [r3, #65]	@ 0x41
 80045d4:	6878      	ldr	r0, [r7, #4]
 80045d6:	f7ff fe73 	bl	80042c0 <HAL_UART_TxCpltCallback>
 80045da:	2300      	movs	r3, #0
 80045dc:	4618      	mov	r0, r3
 80045de:	3708      	adds	r7, #8
 80045e0:	46bd      	mov	sp, r7
 80045e2:	bd80      	pop	{r7, pc}

080045e4 <UART_Receive_IT>:
 80045e4:	b580      	push	{r7, lr}
 80045e6:	b08c      	sub	sp, #48	@ 0x30
 80045e8:	af00      	add	r7, sp, #0
 80045ea:	6078      	str	r0, [r7, #4]
 80045ec:	687b      	ldr	r3, [r7, #4]
 80045ee:	f893 3042 	ldrb.w	r3, [r3, #66]	@ 0x42
 80045f2:	b2db      	uxtb	r3, r3
 80045f4:	2b22      	cmp	r3, #34	@ 0x22
 80045f6:	f040 80ae 	bne.w	8004756 <UART_Receive_IT+0x172>
 80045fa:	687b      	ldr	r3, [r7, #4]
 80045fc:	689b      	ldr	r3, [r3, #8]
 80045fe:	f5b3 5f80 	cmp.w	r3, #4096	@ 0x1000
 8004602:	d117      	bne.n	8004634 <UART_Receive_IT+0x50>
 8004604:	687b      	ldr	r3, [r7, #4]
 8004606:	691b      	ldr	r3, [r3, #16]
 8004608:	2b00      	cmp	r3, #0
 800460a:	d113      	bne.n	8004634 <UART_Receive_IT+0x50>
 800460c:	2300      	movs	r3, #0
 800460e:	62fb      	str	r3, [r7, #44]	@ 0x2c
 8004610:	687b      	ldr	r3, [r7, #4]
 8004612:	6a9b      	ldr	r3, [r3, #40]	@ 0x28
 8004614:	62bb      	str	r3, [r7, #40]	@ 0x28
 8004616:	687b      	ldr	r3, [r7, #4]
 8004618:	681b      	ldr	r3, [r3, #0]
 800461a:	685b      	ldr	r3, [r3, #4]
 800461c:	b29b      	uxth	r3, r3
 800461e:	f3c3 0308 	ubfx	r3, r3, #0, #9
 8004622:	b29a      	uxth	r2, r3
 8004624:	6abb      	ldr	r3, [r7, #40]	@ 0x28
 8004626:	801a      	strh	r2, [r3, #0]
 8004628:	687b      	ldr	r3, [r7, #4]
 800462a:	6a9b      	ldr	r3, [r3, #40]	@ 0x28
 800462c:	1c9a      	adds	r2, r3, #2
 800462e:	687b      	ldr	r3, [r7, #4]
 8004630:	629a      	str	r2, [r3, #40]	@ 0x28
 8004632:	e026      	b.n	8004682 <UART_Receive_IT+0x9e>
 8004634:	687b      	ldr	r3, [r7, #4]
 8004636:	6a9b      	ldr	r3, [r3, #40]	@ 0x28
 8004638:	62fb      	str	r3, [r7, #44]	@ 0x2c
 800463a:	2300      	movs	r3, #0
 800463c:	62bb      	str	r3, [r7, #40]	@ 0x28
 800463e:	687b      	ldr	r3, [r7, #4]
 8004640:	689b      	ldr	r3, [r3, #8]
 8004642:	f5b3 5f80 	cmp.w	r3, #4096	@ 0x1000
 8004646:	d007      	beq.n	8004658 <UART_Receive_IT+0x74>
 8004648:	687b      	ldr	r3, [r7, #4]
 800464a:	689b      	ldr	r3, [r3, #8]
 800464c:	2b00      	cmp	r3, #0
 800464e:	d10a      	bne.n	8004666 <UART_Receive_IT+0x82>
 8004650:	687b      	ldr	r3, [r7, #4]
 8004652:	691b      	ldr	r3, [r3, #16]
 8004654:	2b00      	cmp	r3, #0
 8004656:	d106      	bne.n	8004666 <UART_Receive_IT+0x82>
 8004658:	687b      	ldr	r3, [r7, #4]
 800465a:	681b      	ldr	r3, [r3, #0]
 800465c:	685b      	ldr	r3, [r3, #4]
 800465e:	b2da      	uxtb	r2, r3
 8004660:	6afb      	ldr	r3, [r7, #44]	@ 0x2c
 8004662:	701a      	strb	r2, [r3, #0]
 8004664:	e008      	b.n	8004678 <UART_Receive_IT+0x94>
 8004666:	687b      	ldr	r3, [r7, #4]
 8004668:	681b      	ldr	r3, [r3, #0]
 800466a:	685b      	ldr	r3, [r3, #4]
 800466c:	b2db      	uxtb	r3, r3
 800466e:	f003 037f 	and.w	r3, r3, #127	@ 0x7f
 8004672:	b2da      	uxtb	r2, r3
 8004674:	6afb      	ldr	r3, [r7, #44]	@ 0x2c
 8004676:	701a      	strb	r2, [r3, #0]
 8004678:	687b      	ldr	r3, [r7, #4]
 800467a:	6a9b      	ldr	r3, [r3, #40]	@ 0x28
 800467c:	1c5a      	adds	r2, r3, #1
 800467e:	687b      	ldr	r3, [r7, #4]
 8004680:	629a      	str	r2, [r3, #40]	@ 0x28
 8004682:	687b      	ldr	r3, [r7, #4]
 8004684:	8ddb      	ldrh	r3, [r3, #46]	@ 0x2e
 8004686:	b29b      	uxth	r3, r3
 8004688:	3b01      	subs	r3, #1
 800468a:	b29b      	uxth	r3, r3
 800468c:	687a      	ldr	r2, [r7, #4]
 800468e:	4619      	mov	r1, r3
 8004690:	85d1      	strh	r1, [r2, #46]	@ 0x2e
 8004692:	2b00      	cmp	r3, #0
 8004694:	d15d      	bne.n	8004752 <UART_Receive_IT+0x16e>
 8004696:	687b      	ldr	r3, [r7, #4]
 8004698:	681b      	ldr	r3, [r3, #0]
 800469a:	68da      	ldr	r2, [r3, #12]
 800469c:	687b      	ldr	r3, [r7, #4]
 800469e:	681b      	ldr	r3, [r3, #0]
 80046a0:	f022 0220 	bic.w	r2, r2, #32
 80046a4:	60da      	str	r2, [r3, #12]
 80046a6:	687b      	ldr	r3, [r7, #4]
 80046a8:	681b      	ldr	r3, [r3, #0]
 80046aa:	68da      	ldr	r2, [r3, #12]
 80046ac:	687b      	ldr	r3, [r7, #4]
 80046ae:	681b      	ldr	r3, [r3, #0]
 80046b0:	f422 7280 	bic.w	r2, r2, #256	@ 0x100
 80046b4:	60da      	str	r2, [r3, #12]
 80046b6:	687b      	ldr	r3, [r7, #4]
 80046b8:	681b      	ldr	r3, [r3, #0]
 80046ba:	695a      	ldr	r2, [r3, #20]
 80046bc:	687b      	ldr	r3, [r7, #4]
 80046be:	681b      	ldr	r3, [r3, #0]
 80046c0:	f022 0201 	bic.w	r2, r2, #1
 80046c4:	615a      	str	r2, [r3, #20]
 80046c6:	687b      	ldr	r3, [r7, #4]
 80046c8:	2220      	movs	r2, #32
 80046ca:	f883 2042 	strb.w	r2, [r3, #66]	@ 0x42
 80046ce:	687b      	ldr	r3, [r7, #4]
 80046d0:	2200      	movs	r2, #0
 80046d2:	635a      	str	r2, [r3, #52]	@ 0x34
 80046d4:	687b      	ldr	r3, [r7, #4]
 80046d6:	6b1b      	ldr	r3, [r3, #48]	@ 0x30
 80046d8:	2b01      	cmp	r3, #1
 80046da:	d135      	bne.n	8004748 <UART_Receive_IT+0x164>
 80046dc:	687b      	ldr	r3, [r7, #4]
 80046de:	2200      	movs	r2, #0
 80046e0:	631a      	str	r2, [r3, #48]	@ 0x30
 80046e2:	687b      	ldr	r3, [r7, #4]
 80046e4:	681b      	ldr	r3, [r3, #0]
 80046e6:	330c      	adds	r3, #12
 80046e8:	617b      	str	r3, [r7, #20]
 80046ea:	697b      	ldr	r3, [r7, #20]
 80046ec:	e853 3f00 	ldrex	r3, [r3]
 80046f0:	613b      	str	r3, [r7, #16]
 80046f2:	693b      	ldr	r3, [r7, #16]
 80046f4:	f023 0310 	bic.w	r3, r3, #16
 80046f8:	627b      	str	r3, [r7, #36]	@ 0x24
 80046fa:	687b      	ldr	r3, [r7, #4]
 80046fc:	681b      	ldr	r3, [r3, #0]
 80046fe:	330c      	adds	r3, #12
 8004700:	6a7a      	ldr	r2, [r7, #36]	@ 0x24
 8004702:	623a      	str	r2, [r7, #32]
 8004704:	61fb      	str	r3, [r7, #28]
 8004706:	69f9      	ldr	r1, [r7, #28]
 8004708:	6a3a      	ldr	r2, [r7, #32]
 800470a:	e841 2300 	strex	r3, r2, [r1]
 800470e:	61bb      	str	r3, [r7, #24]
 8004710:	69bb      	ldr	r3, [r7, #24]
 8004712:	2b00      	cmp	r3, #0
 8004714:	d1e5      	bne.n	80046e2 <UART_Receive_IT+0xfe>
 8004716:	687b      	ldr	r3, [r7, #4]
 8004718:	681b      	ldr	r3, [r3, #0]
 800471a:	681b      	ldr	r3, [r3, #0]
 800471c:	f003 0310 	and.w	r3, r3, #16
 8004720:	2b10      	cmp	r3, #16
 8004722:	d10a      	bne.n	800473a <UART_Receive_IT+0x156>
 8004724:	2300      	movs	r3, #0
 8004726:	60fb      	str	r3, [r7, #12]
 8004728:	687b      	ldr	r3, [r7, #4]
 800472a:	681b      	ldr	r3, [r3, #0]
 800472c:	681b      	ldr	r3, [r3, #0]
 800472e:	60fb      	str	r3, [r7, #12]
 8004730:	687b      	ldr	r3, [r7, #4]
 8004732:	681b      	ldr	r3, [r3, #0]
 8004734:	685b      	ldr	r3, [r3, #4]
 8004736:	60fb      	str	r3, [r7, #12]
 8004738:	68fb      	ldr	r3, [r7, #12]
 800473a:	687b      	ldr	r3, [r7, #4]
 800473c:	8d9b      	ldrh	r3, [r3, #44]	@ 0x2c
 800473e:	4619      	mov	r1, r3
 8004740:	6878      	ldr	r0, [r7, #4]
 8004742:	f7ff fdd1 	bl	80042e8 <HAL_UARTEx_RxEventCallback>
 8004746:	e002      	b.n	800474e <UART_Receive_IT+0x16a>
 8004748:	6878      	ldr	r0, [r7, #4]
 800474a:	f7fc fca1 	bl	8001090 <HAL_UART_RxCpltCallback>
 800474e:	2300      	movs	r3, #0
 8004750:	e002      	b.n	8004758 <UART_Receive_IT+0x174>
 8004752:	2300      	movs	r3, #0
 8004754:	e000      	b.n	8004758 <UART_Receive_IT+0x174>
 8004756:	2302      	movs	r3, #2
 8004758:	4618      	mov	r0, r3
 800475a:	3730      	adds	r7, #48	@ 0x30
 800475c:	46bd      	mov	sp, r7
 800475e:	bd80      	pop	{r7, pc}

08004760 <UART_SetConfig>:
 8004760:	e92d 4fb0 	stmdb	sp!, {r4, r5, r7, r8, r9, sl, fp, lr}
 8004764:	b0c0      	sub	sp, #256	@ 0x100
 8004766:	af00      	add	r7, sp, #0
 8004768:	f8c7 00f4 	str.w	r0, [r7, #244]	@ 0xf4
 800476c:	f8d7 30f4 	ldr.w	r3, [r7, #244]	@ 0xf4
 8004770:	681b      	ldr	r3, [r3, #0]
 8004772:	691b      	ldr	r3, [r3, #16]
 8004774:	f423 5040 	bic.w	r0, r3, #12288	@ 0x3000
 8004778:	f8d7 30f4 	ldr.w	r3, [r7, #244]	@ 0xf4
 800477c:	68d9      	ldr	r1, [r3, #12]
 800477e:	f8d7 30f4 	ldr.w	r3, [r7, #244]	@ 0xf4
 8004782:	681a      	ldr	r2, [r3, #0]
 8004784:	ea40 0301 	orr.w	r3, r0, r1
 8004788:	6113      	str	r3, [r2, #16]
 800478a:	f8d7 30f4 	ldr.w	r3, [r7, #244]	@ 0xf4
 800478e:	689a      	ldr	r2, [r3, #8]
 8004790:	f8d7 30f4 	ldr.w	r3, [r7, #244]	@ 0xf4
 8004794:	691b      	ldr	r3, [r3, #16]
 8004796:	431a      	orrs	r2, r3
 8004798:	f8d7 30f4 	ldr.w	r3, [r7, #244]	@ 0xf4
 800479c:	695b      	ldr	r3, [r3, #20]
 800479e:	431a      	orrs	r2, r3
 80047a0:	f8d7 30f4 	ldr.w	r3, [r7, #244]	@ 0xf4
 80047a4:	69db      	ldr	r3, [r3, #28]
 80047a6:	4313      	orrs	r3, r2
 80047a8:	f8c7 30f8 	str.w	r3, [r7, #248]	@ 0xf8
 80047ac:	f8d7 30f4 	ldr.w	r3, [r7, #244]	@ 0xf4
 80047b0:	681b      	ldr	r3, [r3, #0]
 80047b2:	68db      	ldr	r3, [r3, #12]
 80047b4:	f423 4116 	bic.w	r1, r3, #38400	@ 0x9600
 80047b8:	f021 010c 	bic.w	r1, r1, #12
 80047bc:	f8d7 30f4 	ldr.w	r3, [r7, #244]	@ 0xf4
 80047c0:	681a      	ldr	r2, [r3, #0]
 80047c2:	f8d7 30f8 	ldr.w	r3, [r7, #248]	@ 0xf8
 80047c6:	430b      	orrs	r3, r1
 80047c8:	60d3      	str	r3, [r2, #12]
 80047ca:	f8d7 30f4 	ldr.w	r3, [r7, #244]	@ 0xf4
 80047ce:	681b      	ldr	r3, [r3, #0]
 80047d0:	695b      	ldr	r3, [r3, #20]
 80047d2:	f423 7040 	bic.w	r0, r3, #768	@ 0x300
 80047d6:	f8d7 30f4 	ldr.w	r3, [r7, #244]	@ 0xf4
 80047da:	6999      	ldr	r1, [r3, #24]
 80047dc:	f8d7 30f4 	ldr.w	r3, [r7, #244]	@ 0xf4
 80047e0:	681a      	ldr	r2, [r3, #0]
 80047e2:	ea40 0301 	orr.w	r3, r0, r1
 80047e6:	6153      	str	r3, [r2, #20]
 80047e8:	f8d7 30f4 	ldr.w	r3, [r7, #244]	@ 0xf4
 80047ec:	681a      	ldr	r2, [r3, #0]
 80047ee:	4b8f      	ldr	r3, [pc, #572]	@ (8004a2c <UART_SetConfig+0x2cc>)
 80047f0:	429a      	cmp	r2, r3
 80047f2:	d005      	beq.n	8004800 <UART_SetConfig+0xa0>
 80047f4:	f8d7 30f4 	ldr.w	r3, [r7, #244]	@ 0xf4
 80047f8:	681a      	ldr	r2, [r3, #0]
 80047fa:	4b8d      	ldr	r3, [pc, #564]	@ (8004a30 <UART_SetConfig+0x2d0>)
 80047fc:	429a      	cmp	r2, r3
 80047fe:	d104      	bne.n	800480a <UART_SetConfig+0xaa>
 8004800:	f7fd fe58 	bl	80024b4 <HAL_RCC_GetPCLK2Freq>
 8004804:	f8c7 00fc 	str.w	r0, [r7, #252]	@ 0xfc
 8004808:	e003      	b.n	8004812 <UART_SetConfig+0xb2>
 800480a:	f7fd fe3f 	bl	800248c <HAL_RCC_GetPCLK1Freq>
 800480e:	f8c7 00fc 	str.w	r0, [r7, #252]	@ 0xfc
 8004812:	f8d7 30f4 	ldr.w	r3, [r7, #244]	@ 0xf4
 8004816:	69db      	ldr	r3, [r3, #28]
 8004818:	f5b3 4f00 	cmp.w	r3, #32768	@ 0x8000
 800481c:	f040 810c 	bne.w	8004a38 <UART_SetConfig+0x2d8>
 8004820:	f8d7 30fc 	ldr.w	r3, [r7, #252]	@ 0xfc
 8004824:	2200      	movs	r2, #0
 8004826:	f8c7 30e8 	str.w	r3, [r7, #232]	@ 0xe8
 800482a:	f8c7 20ec 	str.w	r2, [r7, #236]	@ 0xec
 800482e:	e9d7 453a 	ldrd	r4, r5, [r7, #232]	@ 0xe8
 8004832:	4622      	mov	r2, r4
 8004834:	462b      	mov	r3, r5
 8004836:	1891      	adds	r1, r2, r2
 8004838:	65b9      	str	r1, [r7, #88]	@ 0x58
 800483a:	415b      	adcs	r3, r3
 800483c:	65fb      	str	r3, [r7, #92]	@ 0x5c
 800483e:	e9d7 2316 	ldrd	r2, r3, [r7, #88]	@ 0x58
 8004842:	4621      	mov	r1, r4
 8004844:	eb12 0801 	adds.w	r8, r2, r1
 8004848:	4629      	mov	r1, r5
 800484a:	eb43 0901 	adc.w	r9, r3, r1
 800484e:	f04f 0200 	mov.w	r2, #0
 8004852:	f04f 0300 	mov.w	r3, #0
 8004856:	ea4f 03c9 	mov.w	r3, r9, lsl #3
 800485a:	ea43 7358 	orr.w	r3, r3, r8, lsr #29
 800485e:	ea4f 02c8 	mov.w	r2, r8, lsl #3
 8004862:	4690      	mov	r8, r2
 8004864:	4699      	mov	r9, r3
 8004866:	4623      	mov	r3, r4
 8004868:	eb18 0303 	adds.w	r3, r8, r3
 800486c:	f8c7 30e0 	str.w	r3, [r7, #224]	@ 0xe0
 8004870:	462b      	mov	r3, r5
 8004872:	eb49 0303 	adc.w	r3, r9, r3
 8004876:	f8c7 30e4 	str.w	r3, [r7, #228]	@ 0xe4
 800487a:	f8d7 30f4 	ldr.w	r3, [r7, #244]	@ 0xf4
 800487e:	685b      	ldr	r3, [r3, #4]
 8004880:	2200      	movs	r2, #0
 8004882:	f8c7 30d8 	str.w	r3, [r7, #216]	@ 0xd8
 8004886:	f8c7 20dc 	str.w	r2, [r7, #220]	@ 0xdc
 800488a:	e9d7 1236 	ldrd	r1, r2, [r7, #216]	@ 0xd8
 800488e:	460b      	mov	r3, r1
 8004890:	18db      	adds	r3, r3, r3
 8004892:	653b      	str	r3, [r7, #80]	@ 0x50
 8004894:	4613      	mov	r3, r2
 8004896:	eb42 0303 	adc.w	r3, r2, r3
 800489a:	657b      	str	r3, [r7, #84]	@ 0x54
 800489c:	e9d7 2314 	ldrd	r2, r3, [r7, #80]	@ 0x50
 80048a0:	e9d7 0138 	ldrd	r0, r1, [r7, #224]	@ 0xe0
 80048a4:	f7fc fa10 	bl	8000cc8 <__aeabi_uldivmod>
 80048a8:	4602      	mov	r2, r0
 80048aa:	460b      	mov	r3, r1
 80048ac:	4b61      	ldr	r3, [pc, #388]	@ (8004a34 <UART_SetConfig+0x2d4>)
 80048ae:	fba3 2302 	umull	r2, r3, r3, r2
 80048b2:	095b      	lsrs	r3, r3, #5
 80048b4:	011c      	lsls	r4, r3, #4
 80048b6:	f8d7 30fc 	ldr.w	r3, [r7, #252]	@ 0xfc
 80048ba:	2200      	movs	r2, #0
 80048bc:	f8c7 30d0 	str.w	r3, [r7, #208]	@ 0xd0
 80048c0:	f8c7 20d4 	str.w	r2, [r7, #212]	@ 0xd4
 80048c4:	e9d7 8934 	ldrd	r8, r9, [r7, #208]	@ 0xd0
 80048c8:	4642      	mov	r2, r8
 80048ca:	464b      	mov	r3, r9
 80048cc:	1891      	adds	r1, r2, r2
 80048ce:	64b9      	str	r1, [r7, #72]	@ 0x48
 80048d0:	415b      	adcs	r3, r3
 80048d2:	64fb      	str	r3, [r7, #76]	@ 0x4c
 80048d4:	e9d7 2312 	ldrd	r2, r3, [r7, #72]	@ 0x48
 80048d8:	4641      	mov	r1, r8
 80048da:	eb12 0a01 	adds.w	sl, r2, r1
 80048de:	4649      	mov	r1, r9
 80048e0:	eb43 0b01 	adc.w	fp, r3, r1
 80048e4:	f04f 0200 	mov.w	r2, #0
 80048e8:	f04f 0300 	mov.w	r3, #0
 80048ec:	ea4f 03cb 	mov.w	r3, fp, lsl #3
 80048f0:	ea43 735a 	orr.w	r3, r3, sl, lsr #29
 80048f4:	ea4f 02ca 	mov.w	r2, sl, lsl #3
 80048f8:	4692      	mov	sl, r2
 80048fa:	469b      	mov	fp, r3
 80048fc:	4643      	mov	r3, r8
 80048fe:	eb1a 0303 	adds.w	r3, sl, r3
 8004902:	f8c7 30c8 	str.w	r3, [r7, #200]	@ 0xc8
 8004906:	464b      	mov	r3, r9
 8004908:	eb4b 0303 	adc.w	r3, fp, r3
 800490c:	f8c7 30cc 	str.w	r3, [r7, #204]	@ 0xcc
 8004910:	f8d7 30f4 	ldr.w	r3, [r7, #244]	@ 0xf4
 8004914:	685b      	ldr	r3, [r3, #4]
 8004916:	2200      	movs	r2, #0
 8004918:	f8c7 30c0 	str.w	r3, [r7, #192]	@ 0xc0
 800491c:	f8c7 20c4 	str.w	r2, [r7, #196]	@ 0xc4
 8004920:	e9d7 1230 	ldrd	r1, r2, [r7, #192]	@ 0xc0
 8004924:	460b      	mov	r3, r1
 8004926:	18db      	adds	r3, r3, r3
 8004928:	643b      	str	r3, [r7, #64]	@ 0x40
 800492a:	4613      	mov	r3, r2
 800492c:	eb42 0303 	adc.w	r3, r2, r3
 8004930:	647b      	str	r3, [r7, #68]	@ 0x44
 8004932:	e9d7 2310 	ldrd	r2, r3, [r7, #64]	@ 0x40
 8004936:	e9d7 0132 	ldrd	r0, r1, [r7, #200]	@ 0xc8
 800493a:	f7fc f9c5 	bl	8000cc8 <__aeabi_uldivmod>
 800493e:	4602      	mov	r2, r0
 8004940:	460b      	mov	r3, r1
 8004942:	4611      	mov	r1, r2
 8004944:	4b3b      	ldr	r3, [pc, #236]	@ (8004a34 <UART_SetConfig+0x2d4>)
 8004946:	fba3 2301 	umull	r2, r3, r3, r1
 800494a:	095b      	lsrs	r3, r3, #5
 800494c:	2264      	movs	r2, #100	@ 0x64
 800494e:	fb02 f303 	mul.w	r3, r2, r3
 8004952:	1acb      	subs	r3, r1, r3
 8004954:	00db      	lsls	r3, r3, #3
 8004956:	f103 0232 	add.w	r2, r3, #50	@ 0x32
 800495a:	4b36      	ldr	r3, [pc, #216]	@ (8004a34 <UART_SetConfig+0x2d4>)
 800495c:	fba3 2302 	umull	r2, r3, r3, r2
 8004960:	095b      	lsrs	r3, r3, #5
 8004962:	005b      	lsls	r3, r3, #1
 8004964:	f403 73f8 	and.w	r3, r3, #496	@ 0x1f0
 8004968:	441c      	add	r4, r3
 800496a:	f8d7 30fc 	ldr.w	r3, [r7, #252]	@ 0xfc
 800496e:	2200      	movs	r2, #0
 8004970:	f8c7 30b8 	str.w	r3, [r7, #184]	@ 0xb8
 8004974:	f8c7 20bc 	str.w	r2, [r7, #188]	@ 0xbc
 8004978:	e9d7 892e 	ldrd	r8, r9, [r7, #184]	@ 0xb8
 800497c:	4642      	mov	r2, r8
 800497e:	464b      	mov	r3, r9
 8004980:	1891      	adds	r1, r2, r2
 8004982:	63b9      	str	r1, [r7, #56]	@ 0x38
 8004984:	415b      	adcs	r3, r3
 8004986:	63fb      	str	r3, [r7, #60]	@ 0x3c
 8004988:	e9d7 230e 	ldrd	r2, r3, [r7, #56]	@ 0x38
 800498c:	4641      	mov	r1, r8
 800498e:	1851      	adds	r1, r2, r1
 8004990:	6339      	str	r1, [r7, #48]	@ 0x30
 8004992:	4649      	mov	r1, r9
 8004994:	414b      	adcs	r3, r1
 8004996:	637b      	str	r3, [r7, #52]	@ 0x34
 8004998:	f04f 0200 	mov.w	r2, #0
 800499c:	f04f 0300 	mov.w	r3, #0
 80049a0:	e9d7 ab0c 	ldrd	sl, fp, [r7, #48]	@ 0x30
 80049a4:	4659      	mov	r1, fp
 80049a6:	00cb      	lsls	r3, r1, #3
 80049a8:	4651      	mov	r1, sl
 80049aa:	ea43 7351 	orr.w	r3, r3, r1, lsr #29
 80049ae:	4651      	mov	r1, sl
 80049b0:	00ca      	lsls	r2, r1, #3
 80049b2:	4610      	mov	r0, r2
 80049b4:	4619      	mov	r1, r3
 80049b6:	4603      	mov	r3, r0
 80049b8:	4642      	mov	r2, r8
 80049ba:	189b      	adds	r3, r3, r2
 80049bc:	f8c7 30b0 	str.w	r3, [r7, #176]	@ 0xb0
 80049c0:	464b      	mov	r3, r9
 80049c2:	460a      	mov	r2, r1
 80049c4:	eb42 0303 	adc.w	r3, r2, r3
 80049c8:	f8c7 30b4 	str.w	r3, [r7, #180]	@ 0xb4
 80049cc:	f8d7 30f4 	ldr.w	r3, [r7, #244]	@ 0xf4
 80049d0:	685b      	ldr	r3, [r3, #4]
 80049d2:	2200      	movs	r2, #0
 80049d4:	f8c7 30a8 	str.w	r3, [r7, #168]	@ 0xa8
 80049d8:	f8c7 20ac 	str.w	r2, [r7, #172]	@ 0xac
 80049dc:	e9d7 122a 	ldrd	r1, r2, [r7, #168]	@ 0xa8
 80049e0:	460b      	mov	r3, r1
 80049e2:	18db      	adds	r3, r3, r3
 80049e4:	62bb      	str	r3, [r7, #40]	@ 0x28
 80049e6:	4613      	mov	r3, r2
 80049e8:	eb42 0303 	adc.w	r3, r2, r3
 80049ec:	62fb      	str	r3, [r7, #44]	@ 0x2c
 80049ee:	e9d7 230a 	ldrd	r2, r3, [r7, #40]	@ 0x28
 80049f2:	e9d7 012c 	ldrd	r0, r1, [r7, #176]	@ 0xb0
 80049f6:	f7fc f967 	bl	8000cc8 <__aeabi_uldivmod>
 80049fa:	4602      	mov	r2, r0
 80049fc:	460b      	mov	r3, r1
 80049fe:	4b0d      	ldr	r3, [pc, #52]	@ (8004a34 <UART_SetConfig+0x2d4>)
 8004a00:	fba3 1302 	umull	r1, r3, r3, r2
 8004a04:	095b      	lsrs	r3, r3, #5
 8004a06:	2164      	movs	r1, #100	@ 0x64
 8004a08:	fb01 f303 	mul.w	r3, r1, r3
 8004a0c:	1ad3      	subs	r3, r2, r3
 8004a0e:	00db      	lsls	r3, r3, #3
 8004a10:	3332      	adds	r3, #50	@ 0x32
 8004a12:	4a08      	ldr	r2, [pc, #32]	@ (8004a34 <UART_SetConfig+0x2d4>)
 8004a14:	fba2 2303 	umull	r2, r3, r2, r3
 8004a18:	095b      	lsrs	r3, r3, #5
 8004a1a:	f003 0207 	and.w	r2, r3, #7
 8004a1e:	f8d7 30f4 	ldr.w	r3, [r7, #244]	@ 0xf4
 8004a22:	681b      	ldr	r3, [r3, #0]
 8004a24:	4422      	add	r2, r4
 8004a26:	609a      	str	r2, [r3, #8]
 8004a28:	e106      	b.n	8004c38 <UART_SetConfig+0x4d8>
 8004a2a:	bf00      	nop
 8004a2c:	40011000 	.word	0x40011000
 8004a30:	40011400 	.word	0x40011400
 8004a34:	51eb851f 	.word	0x51eb851f
 8004a38:	f8d7 30fc 	ldr.w	r3, [r7, #252]	@ 0xfc
 8004a3c:	2200      	movs	r2, #0
 8004a3e:	f8c7 30a0 	str.w	r3, [r7, #160]	@ 0xa0
 8004a42:	f8c7 20a4 	str.w	r2, [r7, #164]	@ 0xa4
 8004a46:	e9d7 8928 	ldrd	r8, r9, [r7, #160]	@ 0xa0
 8004a4a:	4642      	mov	r2, r8
 8004a4c:	464b      	mov	r3, r9
 8004a4e:	1891      	adds	r1, r2, r2
 8004a50:	6239      	str	r1, [r7, #32]
 8004a52:	415b      	adcs	r3, r3
 8004a54:	627b      	str	r3, [r7, #36]	@ 0x24
 8004a56:	e9d7 2308 	ldrd	r2, r3, [r7, #32]
 8004a5a:	4641      	mov	r1, r8
 8004a5c:	1854      	adds	r4, r2, r1
 8004a5e:	4649      	mov	r1, r9
 8004a60:	eb43 0501 	adc.w	r5, r3, r1
 8004a64:	f04f 0200 	mov.w	r2, #0
 8004a68:	f04f 0300 	mov.w	r3, #0
 8004a6c:	00eb      	lsls	r3, r5, #3
 8004a6e:	ea43 7354 	orr.w	r3, r3, r4, lsr #29
 8004a72:	00e2      	lsls	r2, r4, #3
 8004a74:	4614      	mov	r4, r2
 8004a76:	461d      	mov	r5, r3
 8004a78:	4643      	mov	r3, r8
 8004a7a:	18e3      	adds	r3, r4, r3
 8004a7c:	f8c7 3098 	str.w	r3, [r7, #152]	@ 0x98
 8004a80:	464b      	mov	r3, r9
 8004a82:	eb45 0303 	adc.w	r3, r5, r3
 8004a86:	f8c7 309c 	str.w	r3, [r7, #156]	@ 0x9c
 8004a8a:	f8d7 30f4 	ldr.w	r3, [r7, #244]	@ 0xf4
 8004a8e:	685b      	ldr	r3, [r3, #4]
 8004a90:	2200      	movs	r2, #0
 8004a92:	f8c7 3090 	str.w	r3, [r7, #144]	@ 0x90
 8004a96:	f8c7 2094 	str.w	r2, [r7, #148]	@ 0x94
 8004a9a:	f04f 0200 	mov.w	r2, #0
 8004a9e:	f04f 0300 	mov.w	r3, #0
 8004aa2:	e9d7 4524 	ldrd	r4, r5, [r7, #144]	@ 0x90
 8004aa6:	4629      	mov	r1, r5
 8004aa8:	008b      	lsls	r3, r1, #2
 8004aaa:	4621      	mov	r1, r4
 8004aac:	ea43 7391 	orr.w	r3, r3, r1, lsr #30
 8004ab0:	4621      	mov	r1, r4
 8004ab2:	008a      	lsls	r2, r1, #2
 8004ab4:	e9d7 0126 	ldrd	r0, r1, [r7, #152]	@ 0x98
 8004ab8:	f7fc f906 	bl	8000cc8 <__aeabi_uldivmod>
 8004abc:	4602      	mov	r2, r0
 8004abe:	460b      	mov	r3, r1
 8004ac0:	4b60      	ldr	r3, [pc, #384]	@ (8004c44 <UART_SetConfig+0x4e4>)
 8004ac2:	fba3 2302 	umull	r2, r3, r3, r2
 8004ac6:	095b      	lsrs	r3, r3, #5
 8004ac8:	011c      	lsls	r4, r3, #4
 8004aca:	f8d7 30fc 	ldr.w	r3, [r7, #252]	@ 0xfc
 8004ace:	2200      	movs	r2, #0
 8004ad0:	f8c7 3088 	str.w	r3, [r7, #136]	@ 0x88
 8004ad4:	f8c7 208c 	str.w	r2, [r7, #140]	@ 0x8c
 8004ad8:	e9d7 8922 	ldrd	r8, r9, [r7, #136]	@ 0x88
 8004adc:	4642      	mov	r2, r8
 8004ade:	464b      	mov	r3, r9
 8004ae0:	1891      	adds	r1, r2, r2
 8004ae2:	61b9      	str	r1, [r7, #24]
 8004ae4:	415b      	adcs	r3, r3
 8004ae6:	61fb      	str	r3, [r7, #28]
 8004ae8:	e9d7 2306 	ldrd	r2, r3, [r7, #24]
 8004aec:	4641      	mov	r1, r8
 8004aee:	1851      	adds	r1, r2, r1
 8004af0:	6139      	str	r1, [r7, #16]
 8004af2:	4649      	mov	r1, r9
 8004af4:	414b      	adcs	r3, r1
 8004af6:	617b      	str	r3, [r7, #20]
 8004af8:	f04f 0200 	mov.w	r2, #0
 8004afc:	f04f 0300 	mov.w	r3, #0
 8004b00:	e9d7 ab04 	ldrd	sl, fp, [r7, #16]
 8004b04:	4659      	mov	r1, fp
 8004b06:	00cb      	lsls	r3, r1, #3
 8004b08:	4651      	mov	r1, sl
 8004b0a:	ea43 7351 	orr.w	r3, r3, r1, lsr #29
 8004b0e:	4651      	mov	r1, sl
 8004b10:	00ca      	lsls	r2, r1, #3
 8004b12:	4610      	mov	r0, r2
 8004b14:	4619      	mov	r1, r3
 8004b16:	4603      	mov	r3, r0
 8004b18:	4642      	mov	r2, r8
 8004b1a:	189b      	adds	r3, r3, r2
 8004b1c:	f8c7 3080 	str.w	r3, [r7, #128]	@ 0x80
 8004b20:	464b      	mov	r3, r9
 8004b22:	460a      	mov	r2, r1
 8004b24:	eb42 0303 	adc.w	r3, r2, r3
 8004b28:	f8c7 3084 	str.w	r3, [r7, #132]	@ 0x84
 8004b2c:	f8d7 30f4 	ldr.w	r3, [r7, #244]	@ 0xf4
 8004b30:	685b      	ldr	r3, [r3, #4]
 8004b32:	2200      	movs	r2, #0
 8004b34:	67bb      	str	r3, [r7, #120]	@ 0x78
 8004b36:	67fa      	str	r2, [r7, #124]	@ 0x7c
 8004b38:	f04f 0200 	mov.w	r2, #0
 8004b3c:	f04f 0300 	mov.w	r3, #0
 8004b40:	e9d7 891e 	ldrd	r8, r9, [r7, #120]	@ 0x78
 8004b44:	4649      	mov	r1, r9
 8004b46:	008b      	lsls	r3, r1, #2
 8004b48:	4641      	mov	r1, r8
 8004b4a:	ea43 7391 	orr.w	r3, r3, r1, lsr #30
 8004b4e:	4641      	mov	r1, r8
 8004b50:	008a      	lsls	r2, r1, #2
 8004b52:	e9d7 0120 	ldrd	r0, r1, [r7, #128]	@ 0x80
 8004b56:	f7fc f8b7 	bl	8000cc8 <__aeabi_uldivmod>
 8004b5a:	4602      	mov	r2, r0
 8004b5c:	460b      	mov	r3, r1
 8004b5e:	4611      	mov	r1, r2
 8004b60:	4b38      	ldr	r3, [pc, #224]	@ (8004c44 <UART_SetConfig+0x4e4>)
 8004b62:	fba3 2301 	umull	r2, r3, r3, r1
 8004b66:	095b      	lsrs	r3, r3, #5
 8004b68:	2264      	movs	r2, #100	@ 0x64
 8004b6a:	fb02 f303 	mul.w	r3, r2, r3
 8004b6e:	1acb      	subs	r3, r1, r3
 8004b70:	011b      	lsls	r3, r3, #4
 8004b72:	3332      	adds	r3, #50	@ 0x32
 8004b74:	4a33      	ldr	r2, [pc, #204]	@ (8004c44 <UART_SetConfig+0x4e4>)
 8004b76:	fba2 2303 	umull	r2, r3, r2, r3
 8004b7a:	095b      	lsrs	r3, r3, #5
 8004b7c:	f003 03f0 	and.w	r3, r3, #240	@ 0xf0
 8004b80:	441c      	add	r4, r3
 8004b82:	f8d7 30fc 	ldr.w	r3, [r7, #252]	@ 0xfc
 8004b86:	2200      	movs	r2, #0
 8004b88:	673b      	str	r3, [r7, #112]	@ 0x70
 8004b8a:	677a      	str	r2, [r7, #116]	@ 0x74
 8004b8c:	e9d7 891c 	ldrd	r8, r9, [r7, #112]	@ 0x70
 8004b90:	4642      	mov	r2, r8
 8004b92:	464b      	mov	r3, r9
 8004b94:	1891      	adds	r1, r2, r2
 8004b96:	60b9      	str	r1, [r7, #8]
 8004b98:	415b      	adcs	r3, r3
 8004b9a:	60fb      	str	r3, [r7, #12]
 8004b9c:	e9d7 2302 	ldrd	r2, r3, [r7, #8]
 8004ba0:	4641      	mov	r1, r8
 8004ba2:	1851      	adds	r1, r2, r1
 8004ba4:	6039      	str	r1, [r7, #0]
 8004ba6:	4649      	mov	r1, r9
 8004ba8:	414b      	adcs	r3, r1
 8004baa:	607b      	str	r3, [r7, #4]
 8004bac:	f04f 0200 	mov.w	r2, #0
 8004bb0:	f04f 0300 	mov.w	r3, #0
 8004bb4:	e9d7 ab00 	ldrd	sl, fp, [r7]
 8004bb8:	4659      	mov	r1, fp
 8004bba:	00cb      	lsls	r3, r1, #3
 8004bbc:	4651      	mov	r1, sl
 8004bbe:	ea43 7351 	orr.w	r3, r3, r1, lsr #29
 8004bc2:	4651      	mov	r1, sl
 8004bc4:	00ca      	lsls	r2, r1, #3
 8004bc6:	4610      	mov	r0, r2
 8004bc8:	4619      	mov	r1, r3
 8004bca:	4603      	mov	r3, r0
 8004bcc:	4642      	mov	r2, r8
 8004bce:	189b      	adds	r3, r3, r2
 8004bd0:	66bb      	str	r3, [r7, #104]	@ 0x68
 8004bd2:	464b      	mov	r3, r9
 8004bd4:	460a      	mov	r2, r1
 8004bd6:	eb42 0303 	adc.w	r3, r2, r3
 8004bda:	66fb      	str	r3, [r7, #108]	@ 0x6c
 8004bdc:	f8d7 30f4 	ldr.w	r3, [r7, #244]	@ 0xf4
 8004be0:	685b      	ldr	r3, [r3, #4]
 8004be2:	2200      	movs	r2, #0
 8004be4:	663b      	str	r3, [r7, #96]	@ 0x60
 8004be6:	667a      	str	r2, [r7, #100]	@ 0x64
 8004be8:	f04f 0200 	mov.w	r2, #0
 8004bec:	f04f 0300 	mov.w	r3, #0
 8004bf0:	e9d7 8918 	ldrd	r8, r9, [r7, #96]	@ 0x60
 8004bf4:	4649      	mov	r1, r9
 8004bf6:	008b      	lsls	r3, r1, #2
 8004bf8:	4641      	mov	r1, r8
 8004bfa:	ea43 7391 	orr.w	r3, r3, r1, lsr #30
 8004bfe:	4641      	mov	r1, r8
 8004c00:	008a      	lsls	r2, r1, #2
 8004c02:	e9d7 011a 	ldrd	r0, r1, [r7, #104]	@ 0x68
 8004c06:	f7fc f85f 	bl	8000cc8 <__aeabi_uldivmod>
 8004c0a:	4602      	mov	r2, r0
 8004c0c:	460b      	mov	r3, r1
 8004c0e:	4b0d      	ldr	r3, [pc, #52]	@ (8004c44 <UART_SetConfig+0x4e4>)
 8004c10:	fba3 1302 	umull	r1, r3, r3, r2
 8004c14:	095b      	lsrs	r3, r3, #5
 8004c16:	2164      	movs	r1, #100	@ 0x64
 8004c18:	fb01 f303 	mul.w	r3, r1, r3
 8004c1c:	1ad3      	subs	r3, r2, r3
 8004c1e:	011b      	lsls	r3, r3, #4
 8004c20:	3332      	adds	r3, #50	@ 0x32
 8004c22:	4a08      	ldr	r2, [pc, #32]	@ (8004c44 <UART_SetConfig+0x4e4>)
 8004c24:	fba2 2303 	umull	r2, r3, r2, r3
 8004c28:	095b      	lsrs	r3, r3, #5
 8004c2a:	f003 020f 	and.w	r2, r3, #15
 8004c2e:	f8d7 30f4 	ldr.w	r3, [r7, #244]	@ 0xf4
 8004c32:	681b      	ldr	r3, [r3, #0]
 8004c34:	4422      	add	r2, r4
 8004c36:	609a      	str	r2, [r3, #8]
 8004c38:	bf00      	nop
 8004c3a:	f507 7780 	add.w	r7, r7, #256	@ 0x100
 8004c3e:	46bd      	mov	sp, r7
 8004c40:	e8bd 8fb0 	ldmia.w	sp!, {r4, r5, r7, r8, r9, sl, fp, pc}
 8004c44:	51eb851f 	.word	0x51eb851f

08004c48 <vApplicationGetIdleTaskMemory>:

/*
  vApplicationGetIdleTaskMemory gets called when configSUPPORT_STATIC_ALLOCATION
  equals to 1 and is required for static memory allocation support.
*/
__WEAK void vApplicationGetIdleTaskMemory (StaticTask_t **ppxIdleTaskTCBBuffer, StackType_t **ppxIdleTaskStackBuffer, uint32_t *pulIdleTaskStackSize) {
 8004c48:	b480      	push	{r7}
 8004c4a:	b085      	sub	sp, #20
 8004c4c:	af00      	add	r7, sp, #0
 8004c4e:	60f8      	str	r0, [r7, #12]
 8004c50:	60b9      	str	r1, [r7, #8]
 8004c52:	607a      	str	r2, [r7, #4]
  /* Idle task control block and stack */
  static StaticTask_t Idle_TCB;
  static StackType_t  Idle_Stack[configMINIMAL_STACK_SIZE];

  *ppxIdleTaskTCBBuffer   = &Idle_TCB;
 8004c54:	68fb      	ldr	r3, [r7, #12]
 8004c56:	4a07      	ldr	r2, [pc, #28]	@ (8004c74 <vApplicationGetIdleTaskMemory+0x2c>)
 8004c58:	601a      	str	r2, [r3, #0]
  *ppxIdleTaskStackBuffer = &Idle_Stack[0];
 8004c5a:	68bb      	ldr	r3, [r7, #8]
 8004c5c:	4a06      	ldr	r2, [pc, #24]	@ (8004c78 <vApplicationGetIdleTaskMemory+0x30>)
 8004c5e:	601a      	str	r2, [r3, #0]
  *pulIdleTaskStackSize   = (uint32_t)configMINIMAL_STACK_SIZE;
 8004c60:	687b      	ldr	r3, [r7, #4]
 8004c62:	f44f 7200 	mov.w	r2, #512	@ 0x200
 8004c66:	601a      	str	r2, [r3, #0]
}
 8004c68:	bf00      	nop
 8004c6a:	3714      	adds	r7, #20
 8004c6c:	46bd      	mov	sp, r7
 8004c6e:	f85d 7b04 	ldr.w	r7, [sp], #4
 8004c72:	4770      	bx	lr
 8004c74:	200002ac 	.word	0x200002ac
 8004c78:	20000308 	.word	0x20000308

08004c7c <vApplicationGetTimerTaskMemory>:

/*
  vApplicationGetTimerTaskMemory gets called when configSUPPORT_STATIC_ALLOCATION
  equals to 1 and is required for static memory allocation support.
*/
__WEAK void vApplicationGetTimerTaskMemory (StaticTask_t **ppxTimerTaskTCBBuffer, StackType_t **ppxTimerTaskStackBuffer, uint32_t *pulTimerTaskStackSize) {
 8004c7c:	b480      	push	{r7}
 8004c7e:	b085      	sub	sp, #20
 8004c80:	af00      	add	r7, sp, #0
 8004c82:	60f8      	str	r0, [r7, #12]
 8004c84:	60b9      	str	r1, [r7, #8]
 8004c86:	607a      	str	r2, [r7, #4]
  /* Timer task control block and stack */
  static StaticTask_t Timer_TCB;
  static StackType_t  Timer_Stack[configTIMER_TASK_STACK_DEPTH];

  *ppxTimerTaskTCBBuffer   = &Timer_TCB;
 8004c88:	68fb      	ldr	r3, [r7, #12]
 8004c8a:	4a07      	ldr	r2, [pc, #28]	@ (8004ca8 <vApplicationGetTimerTaskMemory+0x2c>)
 8004c8c:	601a      	str	r2, [r3, #0]
  *ppxTimerTaskStackBuffer = &Timer_Stack[0];
 8004c8e:	68bb      	ldr	r3, [r7, #8]
 8004c90:	4a06      	ldr	r2, [pc, #24]	@ (8004cac <vApplicationGetTimerTaskMemory+0x30>)
 8004c92:	601a      	str	r2, [r3, #0]
  *pulTimerTaskStackSize   = (uint32_t)configTIMER_TASK_STACK_DEPTH;
 8004c94:	687b      	ldr	r3, [r7, #4]
 8004c96:	f44f 7280 	mov.w	r2, #256	@ 0x100
 8004c9a:	601a      	str	r2, [r3, #0]
}
 8004c9c:	bf00      	nop
 8004c9e:	3714      	adds	r7, #20
 8004ca0:	46bd      	mov	sp, r7
 8004ca2:	f85d 7b04 	ldr.w	r7, [sp], #4
 8004ca6:	4770      	bx	lr
 8004ca8:	20000b08 	.word	0x20000b08
 8004cac:	20000b64 	.word	0x20000b64

08004cb0 <vListInitialise>:
/*-----------------------------------------------------------
 * PUBLIC LIST API documented in list.h
 *----------------------------------------------------------*/

void vListInitialise( List_t * const pxList )
{
 8004cb0:	b480      	push	{r7}
 8004cb2:	b083      	sub	sp, #12
 8004cb4:	af00      	add	r7, sp, #0
 8004cb6:	6078      	str	r0, [r7, #4]
	/* The list structure contains a list item which is used to mark the
	end of the list.  To initialise the list the list end is inserted
	as the only list entry. */
	pxList->pxIndex = ( ListItem_t * ) &( pxList->xListEnd );			/*lint !e826 !e740 !e9087 The mini list structure is used as the list end to save RAM.  This is checked and valid. */
 8004cb8:	687b      	ldr	r3, [r7, #4]
 8004cba:	f103 0208 	add.w	r2, r3, #8
 8004cbe:	687b      	ldr	r3, [r7, #4]
 8004cc0:	605a      	str	r2, [r3, #4]

	/* The list end value is the highest possible value in the list to
	ensure it remains at the end of the list. */
	pxList->xListEnd.xItemValue = portMAX_DELAY;
 8004cc2:	687b      	ldr	r3, [r7, #4]
 8004cc4:	f04f 32ff 	mov.w	r2, #4294967295	@ 0xffffffff
 8004cc8:	609a      	str	r2, [r3, #8]

	/* The list end next and previous pointers point to itself so we know
	when the list is empty. */
	pxList->xListEnd.pxNext = ( ListItem_t * ) &( pxList->xListEnd );	/*lint !e826 !e740 !e9087 The mini list structure is used as the list end to save RAM.  This is checked and valid. */
 8004cca:	687b      	ldr	r3, [r7, #4]
 8004ccc:	f103 0208 	add.w	r2, r3, #8
 8004cd0:	687b      	ldr	r3, [r7, #4]
 8004cd2:	60da      	str	r2, [r3, #12]
	pxList->xListEnd.pxPrevious = ( ListItem_t * ) &( pxList->xListEnd );/*lint !e826 !e740 !e9087 The mini list structure is used as the list end to save RAM.  This is checked and valid. */
 8004cd4:	687b      	ldr	r3, [r7, #4]
 8004cd6:	f103 0208 	add.w	r2, r3, #8
 8004cda:	687b      	ldr	r3, [r7, #4]
 8004cdc:	611a      	str	r2, [r3, #16]

	pxList->uxNumberOfItems = ( UBaseType_t ) 0U;
 8004cde:	687b      	ldr	r3, [r7, #4]
 8004ce0:	2200      	movs	r2, #0
 8004ce2:	601a      	str	r2, [r3, #0]

	/* Write known values into the list if
	configUSE_LIST_DATA_INTEGRITY_CHECK_BYTES is set to 1. */
	listSET_LIST_INTEGRITY_CHECK_1_VALUE( pxList );
	listSET_LIST_INTEGRITY_CHECK_2_VALUE( pxList );
}
 8004ce4:	bf00      	nop
 8004ce6:	370c      	adds	r7, #12
 8004ce8:	46bd      	mov	sp, r7
 8004cea:	f85d 7b04 	ldr.w	r7, [sp], #4
 8004cee:	4770      	bx	lr

08004cf0 <vListInitialiseItem>:
/*-----------------------------------------------------------*/

void vListInitialiseItem( ListItem_t * const pxItem )
{
 8004cf0:	b480      	push	{r7}
 8004cf2:	b083      	sub	sp, #12
 8004cf4:	af00      	add	r7, sp, #0
 8004cf6:	6078      	str	r0, [r7, #4]
	/* Make sure the list item is not recorded as being on a list. */
	pxItem->pxContainer = NULL;
 8004cf8:	687b      	ldr	r3, [r7, #4]
 8004cfa:	2200      	movs	r2, #0
 8004cfc:	611a      	str	r2, [r3, #16]

	/* Write known values into the list item if
	configUSE_LIST_DATA_INTEGRITY_CHECK_BYTES is set to 1. */
	listSET_FIRST_LIST_ITEM_INTEGRITY_CHECK_VALUE( pxItem );
	listSET_SECOND_LIST_ITEM_INTEGRITY_CHECK_VALUE( pxItem );
}
 8004cfe:	bf00      	nop
 8004d00:	370c      	adds	r7, #12
 8004d02:	46bd      	mov	sp, r7
 8004d04:	f85d 7b04 	ldr.w	r7, [sp], #4
 8004d08:	4770      	bx	lr

08004d0a <vListInsertEnd>:
/*-----------------------------------------------------------*/

void vListInsertEnd( List_t * const pxList, ListItem_t * const pxNewListItem )
{
 8004d0a:	b480      	push	{r7}
 8004d0c:	b085      	sub	sp, #20
 8004d0e:	af00      	add	r7, sp, #0
 8004d10:	6078      	str	r0, [r7, #4]
 8004d12:	6039      	str	r1, [r7, #0]
ListItem_t * const pxIndex = pxList->pxIndex;
 8004d14:	687b      	ldr	r3, [r7, #4]
 8004d16:	685b      	ldr	r3, [r3, #4]
 8004d18:	60fb      	str	r3, [r7, #12]
	listTEST_LIST_ITEM_INTEGRITY( pxNewListItem );

	/* Insert a new list item into pxList, but rather than sort the list,
	makes the new list item the last item to be removed by a call to
	listGET_OWNER_OF_NEXT_ENTRY(). */
	pxNewListItem->pxNext = pxIndex;
 8004d1a:	683b      	ldr	r3, [r7, #0]
 8004d1c:	68fa      	ldr	r2, [r7, #12]
 8004d1e:	605a      	str	r2, [r3, #4]
	pxNewListItem->pxPrevious = pxIndex->pxPrevious;
 8004d20:	68fb      	ldr	r3, [r7, #12]
 8004d22:	689a      	ldr	r2, [r3, #8]
 8004d24:	683b      	ldr	r3, [r7, #0]
 8004d26:	609a      	str	r2, [r3, #8]

	/* Only used during decision coverage testing. */
	mtCOVERAGE_TEST_DELAY();

	pxIndex->pxPrevious->pxNext = pxNewListItem;
 8004d28:	68fb      	ldr	r3, [r7, #12]
 8004d2a:	689b      	ldr	r3, [r3, #8]
 8004d2c:	683a      	ldr	r2, [r7, #0]
 8004d2e:	605a      	str	r2, [r3, #4]
	pxIndex->pxPrevious = pxNewListItem;
 8004d30:	68fb      	ldr	r3, [r7, #12]
 8004d32:	683a      	ldr	r2, [r7, #0]
 8004d34:	609a      	str	r2, [r3, #8]

	/* Remember which list the item is in. */
	pxNewListItem->pxContainer = pxList;
 8004d36:	683b      	ldr	r3, [r7, #0]
 8004d38:	687a      	ldr	r2, [r7, #4]
 8004d3a:	611a      	str	r2, [r3, #16]

	( pxList->uxNumberOfItems )++;
 8004d3c:	687b      	ldr	r3, [r7, #4]
 8004d3e:	681b      	ldr	r3, [r3, #0]
 8004d40:	1c5a      	adds	r2, r3, #1
 8004d42:	687b      	ldr	r3, [r7, #4]
 8004d44:	601a      	str	r2, [r3, #0]
}
 8004d46:	bf00      	nop
 8004d48:	3714      	adds	r7, #20
 8004d4a:	46bd      	mov	sp, r7
 8004d4c:	f85d 7b04 	ldr.w	r7, [sp], #4
 8004d50:	4770      	bx	lr

08004d52 <vListInsert>:
/*-----------------------------------------------------------*/

void vListInsert( List_t * const pxList, ListItem_t * const pxNewListItem )
{
 8004d52:	b480      	push	{r7}
 8004d54:	b085      	sub	sp, #20
 8004d56:	af00      	add	r7, sp, #0
 8004d58:	6078      	str	r0, [r7, #4]
 8004d5a:	6039      	str	r1, [r7, #0]
ListItem_t *pxIterator;
const TickType_t xValueOfInsertion = pxNewListItem->xItemValue;
 8004d5c:	683b      	ldr	r3, [r7, #0]
 8004d5e:	681b      	ldr	r3, [r3, #0]
 8004d60:	60bb      	str	r3, [r7, #8]
	new list item should be placed after it.  This ensures that TCBs which are
	stored in ready lists (all of which have the same xItemValue value) get a
	share of the CPU.  However, if the xItemValue is the same as the back marker
	the iteration loop below will not end.  Therefore the value is checked
	first, and the algorithm slightly modified if necessary. */
	if( xValueOfInsertion == portMAX_DELAY )
 8004d62:	68bb      	ldr	r3, [r7, #8]
 8004d64:	f1b3 3fff 	cmp.w	r3, #4294967295	@ 0xffffffff
 8004d68:	d103      	bne.n	8004d72 <vListInsert+0x20>
	{
		pxIterator = pxList->xListEnd.pxPrevious;
 8004d6a:	687b      	ldr	r3, [r7, #4]
 8004d6c:	691b      	ldr	r3, [r3, #16]
 8004d6e:	60fb      	str	r3, [r7, #12]
 8004d70:	e00c      	b.n	8004d8c <vListInsert+0x3a>
			4) Using a queue or semaphore before it has been initialised or
			   before the scheduler has been started (are interrupts firing
			   before vTaskStartScheduler() has been called?).
		**********************************************************************/

		for( pxIterator = ( ListItem_t * ) &( pxList->xListEnd ); pxIterator->pxNext->xItemValue <= xValueOfInsertion; pxIterator = pxIterator->pxNext ) /*lint !e826 !e740 !e9087 The mini list structure is used as the list end to save RAM.  This is checked and valid. *//*lint !e440 The iterator moves to a different value, not xValueOfInsertion. */
 8004d72:	687b      	ldr	r3, [r7, #4]
 8004d74:	3308      	adds	r3, #8
 8004d76:	60fb      	str	r3, [r7, #12]
 8004d78:	e002      	b.n	8004d80 <vListInsert+0x2e>
 8004d7a:	68fb      	ldr	r3, [r7, #12]
 8004d7c:	685b      	ldr	r3, [r3, #4]
 8004d7e:	60fb      	str	r3, [r7, #12]
 8004d80:	68fb      	ldr	r3, [r7, #12]
 8004d82:	685b      	ldr	r3, [r3, #4]
 8004d84:	681b      	ldr	r3, [r3, #0]
 8004d86:	68ba      	ldr	r2, [r7, #8]
 8004d88:	429a      	cmp	r2, r3
 8004d8a:	d2f6      	bcs.n	8004d7a <vListInsert+0x28>
			/* There is nothing to do here, just iterating to the wanted
			insertion position. */
		}
	}

	pxNewListItem->pxNext = pxIterator->pxNext;
 8004d8c:	68fb      	ldr	r3, [r7, #12]
 8004d8e:	685a      	ldr	r2, [r3, #4]
 8004d90:	683b      	ldr	r3, [r7, #0]
 8004d92:	605a      	str	r2, [r3, #4]
	pxNewListItem->pxNext->pxPrevious = pxNewListItem;
 8004d94:	683b      	ldr	r3, [r7, #0]
 8004d96:	685b      	ldr	r3, [r3, #4]
 8004d98:	683a      	ldr	r2, [r7, #0]
 8004d9a:	609a      	str	r2, [r3, #8]
	pxNewListItem->pxPrevious = pxIterator;
 8004d9c:	683b      	ldr	r3, [r7, #0]
 8004d9e:	68fa      	ldr	r2, [r7, #12]
 8004da0:	609a      	str	r2, [r3, #8]
	pxIterator->pxNext = pxNewListItem;
 8004da2:	68fb      	ldr	r3, [r7, #12]
 8004da4:	683a      	ldr	r2, [r7, #0]
 8004da6:	605a      	str	r2, [r3, #4]

	/* Remember which list the item is in.  This allows fast removal of the
	item later. */
	pxNewListItem->pxContainer = pxList;
 8004da8:	683b      	ldr	r3, [r7, #0]
 8004daa:	687a      	ldr	r2, [r7, #4]
 8004dac:	611a      	str	r2, [r3, #16]

	( pxList->uxNumberOfItems )++;
 8004dae:	687b      	ldr	r3, [r7, #4]
 8004db0:	681b      	ldr	r3, [r3, #0]
 8004db2:	1c5a      	adds	r2, r3, #1
 8004db4:	687b      	ldr	r3, [r7, #4]
 8004db6:	601a      	str	r2, [r3, #0]
}
 8004db8:	bf00      	nop
 8004dba:	3714      	adds	r7, #20
 8004dbc:	46bd      	mov	sp, r7
 8004dbe:	f85d 7b04 	ldr.w	r7, [sp], #4
 8004dc2:	4770      	bx	lr

08004dc4 <uxListRemove>:
/*-----------------------------------------------------------*/

UBaseType_t uxListRemove( ListItem_t * const pxItemToRemove )
{
 8004dc4:	b480      	push	{r7}
 8004dc6:	b085      	sub	sp, #20
 8004dc8:	af00      	add	r7, sp, #0
 8004dca:	6078      	str	r0, [r7, #4]
/* The list item knows which list it is in.  Obtain the list from the list
item. */
List_t * const pxList = pxItemToRemove->pxContainer;
 8004dcc:	687b      	ldr	r3, [r7, #4]
 8004dce:	691b      	ldr	r3, [r3, #16]
 8004dd0:	60fb      	str	r3, [r7, #12]

	pxItemToRemove->pxNext->pxPrevious = pxItemToRemove->pxPrevious;
 8004dd2:	687b      	ldr	r3, [r7, #4]
 8004dd4:	685b      	ldr	r3, [r3, #4]
 8004dd6:	687a      	ldr	r2, [r7, #4]
 8004dd8:	6892      	ldr	r2, [r2, #8]
 8004dda:	609a      	str	r2, [r3, #8]
	pxItemToRemove->pxPrevious->pxNext = pxItemToRemove->pxNext;
 8004ddc:	687b      	ldr	r3, [r7, #4]
 8004dde:	689b      	ldr	r3, [r3, #8]
 8004de0:	687a      	ldr	r2, [r7, #4]
 8004de2:	6852      	ldr	r2, [r2, #4]
 8004de4:	605a      	str	r2, [r3, #4]

	/* Only used during decision coverage testing. */
	mtCOVERAGE_TEST_DELAY();

	/* Make sure the index is left pointing to a valid item. */
	if( pxList->pxIndex == pxItemToRemove )
 8004de6:	68fb      	ldr	r3, [r7, #12]
 8004de8:	685b      	ldr	r3, [r3, #4]
 8004dea:	687a      	ldr	r2, [r7, #4]
 8004dec:	429a      	cmp	r2, r3
 8004dee:	d103      	bne.n	8004df8 <uxListRemove+0x34>
	{
		pxList->pxIndex = pxItemToRemove->pxPrevious;
 8004df0:	687b      	ldr	r3, [r7, #4]
 8004df2:	689a      	ldr	r2, [r3, #8]
 8004df4:	68fb      	ldr	r3, [r7, #12]
 8004df6:	605a      	str	r2, [r3, #4]
	else
	{
		mtCOVERAGE_TEST_MARKER();
	}

	pxItemToRemove->pxContainer = NULL;
 8004df8:	687b      	ldr	r3, [r7, #4]
 8004dfa:	2200      	movs	r2, #0
 8004dfc:	611a      	str	r2, [r3, #16]
	( pxList->uxNumberOfItems )--;
 8004dfe:	68fb      	ldr	r3, [r7, #12]
 8004e00:	681b      	ldr	r3, [r3, #0]
 8004e02:	1e5a      	subs	r2, r3, #1
 8004e04:	68fb      	ldr	r3, [r7, #12]
 8004e06:	601a      	str	r2, [r3, #0]

	return pxList->uxNumberOfItems;
 8004e08:	68fb      	ldr	r3, [r7, #12]
 8004e0a:	681b      	ldr	r3, [r3, #0]
}
 8004e0c:	4618      	mov	r0, r3
 8004e0e:	3714      	adds	r7, #20
 8004e10:	46bd      	mov	sp, r7
 8004e12:	f85d 7b04 	ldr.w	r7, [sp], #4
 8004e16:	4770      	bx	lr

08004e18 <xQueueGenericReset>:
	}														\
	taskEXIT_CRITICAL()
/*-----------------------------------------------------------*/

BaseType_t xQueueGenericReset( QueueHandle_t xQueue, BaseType_t xNewQueue )
{
 8004e18:	b580      	push	{r7, lr}
 8004e1a:	b084      	sub	sp, #16
 8004e1c:	af00      	add	r7, sp, #0
 8004e1e:	6078      	str	r0, [r7, #4]
 8004e20:	6039      	str	r1, [r7, #0]
Queue_t * const pxQueue = xQueue;
 8004e22:	687b      	ldr	r3, [r7, #4]
 8004e24:	60fb      	str	r3, [r7, #12]

	configASSERT( pxQueue );
 8004e26:	68fb      	ldr	r3, [r7, #12]
 8004e28:	2b00      	cmp	r3, #0
 8004e2a:	d10b      	bne.n	8004e44 <xQueueGenericReset+0x2c>
	__asm volatile
 8004e2c:	f04f 0350 	mov.w	r3, #80	@ 0x50
 8004e30:	f383 8811 	msr	BASEPRI, r3
 8004e34:	f3bf 8f6f 	isb	sy
 8004e38:	f3bf 8f4f 	dsb	sy
 8004e3c:	60bb      	str	r3, [r7, #8]
}
 8004e3e:	bf00      	nop
 8004e40:	bf00      	nop
 8004e42:	e7fd      	b.n	8004e40 <xQueueGenericReset+0x28>

	taskENTER_CRITICAL();
 8004e44:	f002 fb10 	bl	8007468 <vPortEnterCritical>
	{
		pxQueue->u.xQueue.pcTail = pxQueue->pcHead + ( pxQueue->uxLength * pxQueue->uxItemSize ); /*lint !e9016 Pointer arithmetic allowed on char types, especially when it assists conveying intent. */
 8004e48:	68fb      	ldr	r3, [r7, #12]
 8004e4a:	681a      	ldr	r2, [r3, #0]
 8004e4c:	68fb      	ldr	r3, [r7, #12]
 8004e4e:	6bdb      	ldr	r3, [r3, #60]	@ 0x3c
 8004e50:	68f9      	ldr	r1, [r7, #12]
 8004e52:	6c09      	ldr	r1, [r1, #64]	@ 0x40
 8004e54:	fb01 f303 	mul.w	r3, r1, r3
 8004e58:	441a      	add	r2, r3
 8004e5a:	68fb      	ldr	r3, [r7, #12]
 8004e5c:	609a      	str	r2, [r3, #8]
		pxQueue->uxMessagesWaiting = ( UBaseType_t ) 0U;
 8004e5e:	68fb      	ldr	r3, [r7, #12]
 8004e60:	2200      	movs	r2, #0
 8004e62:	639a      	str	r2, [r3, #56]	@ 0x38
		pxQueue->pcWriteTo = pxQueue->pcHead;
 8004e64:	68fb      	ldr	r3, [r7, #12]
 8004e66:	681a      	ldr	r2, [r3, #0]
 8004e68:	68fb      	ldr	r3, [r7, #12]
 8004e6a:	605a      	str	r2, [r3, #4]
		pxQueue->u.xQueue.pcReadFrom = pxQueue->pcHead + ( ( pxQueue->uxLength - 1U ) * pxQueue->uxItemSize ); /*lint !e9016 Pointer arithmetic allowed on char types, especially when it assists conveying intent. */
 8004e6c:	68fb      	ldr	r3, [r7, #12]
 8004e6e:	681a      	ldr	r2, [r3, #0]
 8004e70:	68fb      	ldr	r3, [r7, #12]
 8004e72:	6bdb      	ldr	r3, [r3, #60]	@ 0x3c
 8004e74:	3b01      	subs	r3, #1
 8004e76:	68f9      	ldr	r1, [r7, #12]
 8004e78:	6c09      	ldr	r1, [r1, #64]	@ 0x40
 8004e7a:	fb01 f303 	mul.w	r3, r1, r3
 8004e7e:	441a      	add	r2, r3
 8004e80:	68fb      	ldr	r3, [r7, #12]
 8004e82:	60da      	str	r2, [r3, #12]
		pxQueue->cRxLock = queueUNLOCKED;
 8004e84:	68fb      	ldr	r3, [r7, #12]
 8004e86:	22ff      	movs	r2, #255	@ 0xff
 8004e88:	f883 2044 	strb.w	r2, [r3, #68]	@ 0x44
		pxQueue->cTxLock = queueUNLOCKED;
 8004e8c:	68fb      	ldr	r3, [r7, #12]
 8004e8e:	22ff      	movs	r2, #255	@ 0xff
 8004e90:	f883 2045 	strb.w	r2, [r3, #69]	@ 0x45

		if( xNewQueue == pdFALSE )
 8004e94:	683b      	ldr	r3, [r7, #0]
 8004e96:	2b00      	cmp	r3, #0
 8004e98:	d114      	bne.n	8004ec4 <xQueueGenericReset+0xac>
			/* If there are tasks blocked waiting to read from the queue, then
			the tasks will remain blocked as after this function exits the queue
			will still be empty.  If there are tasks blocked waiting to write to
			the queue, then one should be unblocked as after this function exits
			it will be possible to write to it. */
			if( listLIST_IS_EMPTY( &( pxQueue->xTasksWaitingToSend ) ) == pdFALSE )
 8004e9a:	68fb      	ldr	r3, [r7, #12]
 8004e9c:	691b      	ldr	r3, [r3, #16]
 8004e9e:	2b00      	cmp	r3, #0
 8004ea0:	d01a      	beq.n	8004ed8 <xQueueGenericReset+0xc0>
			{
				if( xTaskRemoveFromEventList( &( pxQueue->xTasksWaitingToSend ) ) != pdFALSE )
 8004ea2:	68fb      	ldr	r3, [r7, #12]
 8004ea4:	3310      	adds	r3, #16
 8004ea6:	4618      	mov	r0, r3
 8004ea8:	f001 fab0 	bl	800640c <xTaskRemoveFromEventList>
 8004eac:	4603      	mov	r3, r0
 8004eae:	2b00      	cmp	r3, #0
 8004eb0:	d012      	beq.n	8004ed8 <xQueueGenericReset+0xc0>
				{
					queueYIELD_IF_USING_PREEMPTION();
 8004eb2:	4b0d      	ldr	r3, [pc, #52]	@ (8004ee8 <xQueueGenericReset+0xd0>)
 8004eb4:	f04f 5280 	mov.w	r2, #268435456	@ 0x10000000
 8004eb8:	601a      	str	r2, [r3, #0]
 8004eba:	f3bf 8f4f 	dsb	sy
 8004ebe:	f3bf 8f6f 	isb	sy
 8004ec2:	e009      	b.n	8004ed8 <xQueueGenericReset+0xc0>
			}
		}
		else
		{
			/* Ensure the event queues start in the correct state. */
			vListInitialise( &( pxQueue->xTasksWaitingToSend ) );
 8004ec4:	68fb      	ldr	r3, [r7, #12]
 8004ec6:	3310      	adds	r3, #16
 8004ec8:	4618      	mov	r0, r3
 8004eca:	f7ff fef1 	bl	8004cb0 <vListInitialise>
			vListInitialise( &( pxQueue->xTasksWaitingToReceive ) );
 8004ece:	68fb      	ldr	r3, [r7, #12]
 8004ed0:	3324      	adds	r3, #36	@ 0x24
 8004ed2:	4618      	mov	r0, r3
 8004ed4:	f7ff feec 	bl	8004cb0 <vListInitialise>
		}
	}
	taskEXIT_CRITICAL();
 8004ed8:	f002 faf8 	bl	80074cc <vPortExitCritical>

	/* A value is returned for calling semantic consistency with previous
	versions. */
	return pdPASS;
 8004edc:	2301      	movs	r3, #1
}
 8004ede:	4618      	mov	r0, r3
 8004ee0:	3710      	adds	r7, #16
 8004ee2:	46bd      	mov	sp, r7
 8004ee4:	bd80      	pop	{r7, pc}
 8004ee6:	bf00      	nop
 8004ee8:	e000ed04 	.word	0xe000ed04

08004eec <xQueueGenericCreateStatic>:
/*-----------------------------------------------------------*/

#if( configSUPPORT_STATIC_ALLOCATION == 1 )

	QueueHandle_t xQueueGenericCreateStatic( const UBaseType_t uxQueueLength, const UBaseType_t uxItemSize, uint8_t *pucQueueStorage, StaticQueue_t *pxStaticQueue, const uint8_t ucQueueType )
	{
 8004eec:	b580      	push	{r7, lr}
 8004eee:	b08e      	sub	sp, #56	@ 0x38
 8004ef0:	af02      	add	r7, sp, #8
 8004ef2:	60f8      	str	r0, [r7, #12]
 8004ef4:	60b9      	str	r1, [r7, #8]
 8004ef6:	607a      	str	r2, [r7, #4]
 8004ef8:	603b      	str	r3, [r7, #0]
	Queue_t *pxNewQueue;

		configASSERT( uxQueueLength > ( UBaseType_t ) 0 );
 8004efa:	68fb      	ldr	r3, [r7, #12]
 8004efc:	2b00      	cmp	r3, #0
 8004efe:	d10b      	bne.n	8004f18 <xQueueGenericCreateStatic+0x2c>
	__asm volatile
 8004f00:	f04f 0350 	mov.w	r3, #80	@ 0x50
 8004f04:	f383 8811 	msr	BASEPRI, r3
 8004f08:	f3bf 8f6f 	isb	sy
 8004f0c:	f3bf 8f4f 	dsb	sy
 8004f10:	62bb      	str	r3, [r7, #40]	@ 0x28
}
 8004f12:	bf00      	nop
 8004f14:	bf00      	nop
 8004f16:	e7fd      	b.n	8004f14 <xQueueGenericCreateStatic+0x28>

		/* The StaticQueue_t structure and the queue storage area must be
		supplied. */
		configASSERT( pxStaticQueue != NULL );
 8004f18:	683b      	ldr	r3, [r7, #0]
 8004f1a:	2b00      	cmp	r3, #0
 8004f1c:	d10b      	bne.n	8004f36 <xQueueGenericCreateStatic+0x4a>
	__asm volatile
 8004f1e:	f04f 0350 	mov.w	r3, #80	@ 0x50
 8004f22:	f383 8811 	msr	BASEPRI, r3
 8004f26:	f3bf 8f6f 	isb	sy
 8004f2a:	f3bf 8f4f 	dsb	sy
 8004f2e:	627b      	str	r3, [r7, #36]	@ 0x24
}
 8004f30:	bf00      	nop
 8004f32:	bf00      	nop
 8004f34:	e7fd      	b.n	8004f32 <xQueueGenericCreateStatic+0x46>

		/* A queue storage area should be provided if the item size is not 0, and
		should not be provided if the item size is 0. */
		configASSERT( !( ( pucQueueStorage != NULL ) && ( uxItemSize == 0 ) ) );
 8004f36:	687b      	ldr	r3, [r7, #4]
 8004f38:	2b00      	cmp	r3, #0
 8004f3a:	d002      	beq.n	8004f42 <xQueueGenericCreateStatic+0x56>
 8004f3c:	68bb      	ldr	r3, [r7, #8]
 8004f3e:	2b00      	cmp	r3, #0
 8004f40:	d001      	beq.n	8004f46 <xQueueGenericCreateStatic+0x5a>
 8004f42:	2301      	movs	r3, #1
 8004f44:	e000      	b.n	8004f48 <xQueueGenericCreateStatic+0x5c>
 8004f46:	2300      	movs	r3, #0
 8004f48:	2b00      	cmp	r3, #0
 8004f4a:	d10b      	bne.n	8004f64 <xQueueGenericCreateStatic+0x78>
	__asm volatile
 8004f4c:	f04f 0350 	mov.w	r3, #80	@ 0x50
 8004f50:	f383 8811 	msr	BASEPRI, r3
 8004f54:	f3bf 8f6f 	isb	sy
 8004f58:	f3bf 8f4f 	dsb	sy
 8004f5c:	623b      	str	r3, [r7, #32]
}
 8004f5e:	bf00      	nop
 8004f60:	bf00      	nop
 8004f62:	e7fd      	b.n	8004f60 <xQueueGenericCreateStatic+0x74>
		configASSERT( !( ( pucQueueStorage == NULL ) && ( uxItemSize != 0 ) ) );
 8004f64:	687b      	ldr	r3, [r7, #4]
 8004f66:	2b00      	cmp	r3, #0
 8004f68:	d102      	bne.n	8004f70 <xQueueGenericCreateStatic+0x84>
 8004f6a:	68bb      	ldr	r3, [r7, #8]
 8004f6c:	2b00      	cmp	r3, #0
 8004f6e:	d101      	bne.n	8004f74 <xQueueGenericCreateStatic+0x88>
 8004f70:	2301      	movs	r3, #1
 8004f72:	e000      	b.n	8004f76 <xQueueGenericCreateStatic+0x8a>
 8004f74:	2300      	movs	r3, #0
 8004f76:	2b00      	cmp	r3, #0
 8004f78:	d10b      	bne.n	8004f92 <xQueueGenericCreateStatic+0xa6>
	__asm volatile
 8004f7a:	f04f 0350 	mov.w	r3, #80	@ 0x50
 8004f7e:	f383 8811 	msr	BASEPRI, r3
 8004f82:	f3bf 8f6f 	isb	sy
 8004f86:	f3bf 8f4f 	dsb	sy
 8004f8a:	61fb      	str	r3, [r7, #28]
}
 8004f8c:	bf00      	nop
 8004f8e:	bf00      	nop
 8004f90:	e7fd      	b.n	8004f8e <xQueueGenericCreateStatic+0xa2>
		#if( configASSERT_DEFINED == 1 )
		{
			/* Sanity check that the size of the structure used to declare a
			variable of type StaticQueue_t or StaticSemaphore_t equals the size of
			the real queue and semaphore structures. */
			volatile size_t xSize = sizeof( StaticQueue_t );
 8004f92:	2350      	movs	r3, #80	@ 0x50
 8004f94:	617b      	str	r3, [r7, #20]
			configASSERT( xSize == sizeof( Queue_t ) );
 8004f96:	697b      	ldr	r3, [r7, #20]
 8004f98:	2b50      	cmp	r3, #80	@ 0x50
 8004f9a:	d00b      	beq.n	8004fb4 <xQueueGenericCreateStatic+0xc8>
	__asm volatile
 8004f9c:	f04f 0350 	mov.w	r3, #80	@ 0x50
 8004fa0:	f383 8811 	msr	BASEPRI, r3
 8004fa4:	f3bf 8f6f 	isb	sy
 8004fa8:	f3bf 8f4f 	dsb	sy
 8004fac:	61bb      	str	r3, [r7, #24]
}
 8004fae:	bf00      	nop
 8004fb0:	bf00      	nop
 8004fb2:	e7fd      	b.n	8004fb0 <xQueueGenericCreateStatic+0xc4>
			( void ) xSize; /* Keeps lint quiet when configASSERT() is not defined. */
 8004fb4:	697b      	ldr	r3, [r7, #20]
		#endif /* configASSERT_DEFINED */

		/* The address of a statically allocated queue was passed in, use it.
		The address of a statically allocated storage area was also passed in
		but is already set. */
		pxNewQueue = ( Queue_t * ) pxStaticQueue; /*lint !e740 !e9087 Unusual cast is ok as the structures are designed to have the same alignment, and the size is checked by an assert. */
 8004fb6:	683b      	ldr	r3, [r7, #0]
 8004fb8:	62fb      	str	r3, [r7, #44]	@ 0x2c

		if( pxNewQueue != NULL )
 8004fba:	6afb      	ldr	r3, [r7, #44]	@ 0x2c
 8004fbc:	2b00      	cmp	r3, #0
 8004fbe:	d00d      	beq.n	8004fdc <xQueueGenericCreateStatic+0xf0>
			#if( configSUPPORT_DYNAMIC_ALLOCATION == 1 )
			{
				/* Queues can be allocated wither statically or dynamically, so
				note this queue was allocated statically in case the queue is
				later deleted. */
				pxNewQueue->ucStaticallyAllocated = pdTRUE;
 8004fc0:	6afb      	ldr	r3, [r7, #44]	@ 0x2c
 8004fc2:	2201      	movs	r2, #1
 8004fc4:	f883 2046 	strb.w	r2, [r3, #70]	@ 0x46
			}
			#endif /* configSUPPORT_DYNAMIC_ALLOCATION */

			prvInitialiseNewQueue( uxQueueLength, uxItemSize, pucQueueStorage, ucQueueType, pxNewQueue );
 8004fc8:	f897 2038 	ldrb.w	r2, [r7, #56]	@ 0x38
 8004fcc:	6afb      	ldr	r3, [r7, #44]	@ 0x2c
 8004fce:	9300      	str	r3, [sp, #0]
 8004fd0:	4613      	mov	r3, r2
 8004fd2:	687a      	ldr	r2, [r7, #4]
 8004fd4:	68b9      	ldr	r1, [r7, #8]
 8004fd6:	68f8      	ldr	r0, [r7, #12]
 8004fd8:	f000 f840 	bl	800505c <prvInitialiseNewQueue>
		{
			traceQUEUE_CREATE_FAILED( ucQueueType );
			mtCOVERAGE_TEST_MARKER();
		}

		return pxNewQueue;
 8004fdc:	6afb      	ldr	r3, [r7, #44]	@ 0x2c
	}
 8004fde:	4618      	mov	r0, r3
 8004fe0:	3730      	adds	r7, #48	@ 0x30
 8004fe2:	46bd      	mov	sp, r7
 8004fe4:	bd80      	pop	{r7, pc}

08004fe6 <xQueueGenericCreate>:
/*-----------------------------------------------------------*/

#if( configSUPPORT_DYNAMIC_ALLOCATION == 1 )

	QueueHandle_t xQueueGenericCreate( const UBaseType_t uxQueueLength, const UBaseType_t uxItemSize, const uint8_t ucQueueType )
	{
 8004fe6:	b580      	push	{r7, lr}
 8004fe8:	b08a      	sub	sp, #40	@ 0x28
 8004fea:	af02      	add	r7, sp, #8
 8004fec:	60f8      	str	r0, [r7, #12]
 8004fee:	60b9      	str	r1, [r7, #8]
 8004ff0:	4613      	mov	r3, r2
 8004ff2:	71fb      	strb	r3, [r7, #7]
	Queue_t *pxNewQueue;
	size_t xQueueSizeInBytes;
	uint8_t *pucQueueStorage;

		configASSERT( uxQueueLength > ( UBaseType_t ) 0 );
 8004ff4:	68fb      	ldr	r3, [r7, #12]
 8004ff6:	2b00      	cmp	r3, #0
 8004ff8:	d10b      	bne.n	8005012 <xQueueGenericCreate+0x2c>
	__asm volatile
 8004ffa:	f04f 0350 	mov.w	r3, #80	@ 0x50
 8004ffe:	f383 8811 	msr	BASEPRI, r3
 8005002:	f3bf 8f6f 	isb	sy
 8005006:	f3bf 8f4f 	dsb	sy
 800500a:	613b      	str	r3, [r7, #16]
}
 800500c:	bf00      	nop
 800500e:	bf00      	nop
 8005010:	e7fd      	b.n	800500e <xQueueGenericCreate+0x28>

		/* Allocate enough space to hold the maximum number of items that
		can be in the queue at any time.  It is valid for uxItemSize to be
		zero in the case the queue is used as a semaphore. */
		xQueueSizeInBytes = ( size_t ) ( uxQueueLength * uxItemSize ); /*lint !e961 MISRA exception as the casts are only redundant for some ports. */
 8005012:	68fb      	ldr	r3, [r7, #12]
 8005014:	68ba      	ldr	r2, [r7, #8]
 8005016:	fb02 f303 	mul.w	r3, r2, r3
 800501a:	61fb      	str	r3, [r7, #28]
		alignment requirements of the Queue_t structure - which in this case
		is an int8_t *.  Therefore, whenever the stack alignment requirements
		are greater than or equal to the pointer to char requirements the cast
		is safe.  In other cases alignment requirements are not strict (one or
		two bytes). */
		pxNewQueue = ( Queue_t * ) pvPortMalloc( sizeof( Queue_t ) + xQueueSizeInBytes ); /*lint !e9087 !e9079 see comment above. */
 800501c:	69fb      	ldr	r3, [r7, #28]
 800501e:	3350      	adds	r3, #80	@ 0x50
 8005020:	4618      	mov	r0, r3
 8005022:	f002 fb43 	bl	80076ac <pvPortMalloc>
 8005026:	61b8      	str	r0, [r7, #24]

		if( pxNewQueue != NULL )
 8005028:	69bb      	ldr	r3, [r7, #24]
 800502a:	2b00      	cmp	r3, #0
 800502c:	d011      	beq.n	8005052 <xQueueGenericCreate+0x6c>
		{
			/* Jump past the queue structure to find the location of the queue
			storage area. */
			pucQueueStorage = ( uint8_t * ) pxNewQueue;
 800502e:	69bb      	ldr	r3, [r7, #24]
 8005030:	617b      	str	r3, [r7, #20]
			pucQueueStorage += sizeof( Queue_t ); /*lint !e9016 Pointer arithmetic allowed on char types, especially when it assists conveying intent. */
 8005032:	697b      	ldr	r3, [r7, #20]
 8005034:	3350      	adds	r3, #80	@ 0x50
 8005036:	617b      	str	r3, [r7, #20]
			#if( configSUPPORT_STATIC_ALLOCATION == 1 )
			{
				/* Queues can be created either statically or dynamically, so
				note this task was created dynamically in case it is later
				deleted. */
				pxNewQueue->ucStaticallyAllocated = pdFALSE;
 8005038:	69bb      	ldr	r3, [r7, #24]
 800503a:	2200      	movs	r2, #0
 800503c:	f883 2046 	strb.w	r2, [r3, #70]	@ 0x46
			}
			#endif /* configSUPPORT_STATIC_ALLOCATION */

			prvInitialiseNewQueue( uxQueueLength, uxItemSize, pucQueueStorage, ucQueueType, pxNewQueue );
 8005040:	79fa      	ldrb	r2, [r7, #7]
 8005042:	69bb      	ldr	r3, [r7, #24]
 8005044:	9300      	str	r3, [sp, #0]
 8005046:	4613      	mov	r3, r2
 8005048:	697a      	ldr	r2, [r7, #20]
 800504a:	68b9      	ldr	r1, [r7, #8]
 800504c:	68f8      	ldr	r0, [r7, #12]
 800504e:	f000 f805 	bl	800505c <prvInitialiseNewQueue>
		{
			traceQUEUE_CREATE_FAILED( ucQueueType );
			mtCOVERAGE_TEST_MARKER();
		}

		return pxNewQueue;
 8005052:	69bb      	ldr	r3, [r7, #24]
	}
 8005054:	4618      	mov	r0, r3
 8005056:	3720      	adds	r7, #32
 8005058:	46bd      	mov	sp, r7
 800505a:	bd80      	pop	{r7, pc}

0800505c <prvInitialiseNewQueue>:

#endif /* configSUPPORT_STATIC_ALLOCATION */
/*-----------------------------------------------------------*/

static void prvInitialiseNewQueue( const UBaseType_t uxQueueLength, const UBaseType_t uxItemSize, uint8_t *pucQueueStorage, const uint8_t ucQueueType, Queue_t *pxNewQueue )
{
 800505c:	b580      	push	{r7, lr}
 800505e:	b084      	sub	sp, #16
 8005060:	af00      	add	r7, sp, #0
 8005062:	60f8      	str	r0, [r7, #12]
 8005064:	60b9      	str	r1, [r7, #8]
 8005066:	607a      	str	r2, [r7, #4]
 8005068:	70fb      	strb	r3, [r7, #3]
	/* Remove compiler warnings about unused parameters should
	configUSE_TRACE_FACILITY not be set to 1. */
	( void ) ucQueueType;

	if( uxItemSize == ( UBaseType_t ) 0 )
 800506a:	68bb      	ldr	r3, [r7, #8]
 800506c:	2b00      	cmp	r3, #0
 800506e:	d103      	bne.n	8005078 <prvInitialiseNewQueue+0x1c>
	{
		/* No RAM was allocated for the queue storage area, but PC head cannot
		be set to NULL because NULL is used as a key to say the queue is used as
		a mutex.  Therefore just set pcHead to point to the queue as a benign
		value that is known to be within the memory map. */
		pxNewQueue->pcHead = ( int8_t * ) pxNewQueue;
 8005070:	69bb      	ldr	r3, [r7, #24]
 8005072:	69ba      	ldr	r2, [r7, #24]
 8005074:	601a      	str	r2, [r3, #0]
 8005076:	e002      	b.n	800507e <prvInitialiseNewQueue+0x22>
	}
	else
	{
		/* Set the head to the start of the queue storage area. */
		pxNewQueue->pcHead = ( int8_t * ) pucQueueStorage;
 8005078:	69bb      	ldr	r3, [r7, #24]
 800507a:	687a      	ldr	r2, [r7, #4]
 800507c:	601a      	str	r2, [r3, #0]
	}

	/* Initialise the queue members as described where the queue type is
	defined. */
	pxNewQueue->uxLength = uxQueueLength;
 800507e:	69bb      	ldr	r3, [r7, #24]
 8005080:	68fa      	ldr	r2, [r7, #12]
 8005082:	63da      	str	r2, [r3, #60]	@ 0x3c
	pxNewQueue->uxItemSize = uxItemSize;
 8005084:	69bb      	ldr	r3, [r7, #24]
 8005086:	68ba      	ldr	r2, [r7, #8]
 8005088:	641a      	str	r2, [r3, #64]	@ 0x40
	( void ) xQueueGenericReset( pxNewQueue, pdTRUE );
 800508a:	2101      	movs	r1, #1
 800508c:	69b8      	ldr	r0, [r7, #24]
 800508e:	f7ff fec3 	bl	8004e18 <xQueueGenericReset>

	#if ( configUSE_TRACE_FACILITY == 1 )
	{
		pxNewQueue->ucQueueType = ucQueueType;
 8005092:	69bb      	ldr	r3, [r7, #24]
 8005094:	78fa      	ldrb	r2, [r7, #3]
 8005096:	f883 204c 	strb.w	r2, [r3, #76]	@ 0x4c
		pxNewQueue->pxQueueSetContainer = NULL;
	}
	#endif /* configUSE_QUEUE_SETS */

	traceQUEUE_CREATE( pxNewQueue );
}
 800509a:	bf00      	nop
 800509c:	3710      	adds	r7, #16
 800509e:	46bd      	mov	sp, r7
 80050a0:	bd80      	pop	{r7, pc}

080050a2 <prvInitialiseMutex>:
/*-----------------------------------------------------------*/

#if( configUSE_MUTEXES == 1 )

	static void prvInitialiseMutex( Queue_t *pxNewQueue )
	{
 80050a2:	b580      	push	{r7, lr}
 80050a4:	b082      	sub	sp, #8
 80050a6:	af00      	add	r7, sp, #0
 80050a8:	6078      	str	r0, [r7, #4]
		if( pxNewQueue != NULL )
 80050aa:	687b      	ldr	r3, [r7, #4]
 80050ac:	2b00      	cmp	r3, #0
 80050ae:	d00e      	beq.n	80050ce <prvInitialiseMutex+0x2c>
		{
			/* The queue create function will set all the queue structure members
			correctly for a generic queue, but this function is creating a
			mutex.  Overwrite those members that need to be set differently -
			in particular the information required for priority inheritance. */
			pxNewQueue->u.xSemaphore.xMutexHolder = NULL;
 80050b0:	687b      	ldr	r3, [r7, #4]
 80050b2:	2200      	movs	r2, #0
 80050b4:	609a      	str	r2, [r3, #8]
			pxNewQueue->uxQueueType = queueQUEUE_IS_MUTEX;
 80050b6:	687b      	ldr	r3, [r7, #4]
 80050b8:	2200      	movs	r2, #0
 80050ba:	601a      	str	r2, [r3, #0]

			/* In case this is a recursive mutex. */
			pxNewQueue->u.xSemaphore.uxRecursiveCallCount = 0;
 80050bc:	687b      	ldr	r3, [r7, #4]
 80050be:	2200      	movs	r2, #0
 80050c0:	60da      	str	r2, [r3, #12]

			traceCREATE_MUTEX( pxNewQueue );

			/* Start with the semaphore in the expected state. */
			( void ) xQueueGenericSend( pxNewQueue, NULL, ( TickType_t ) 0U, queueSEND_TO_BACK );
 80050c2:	2300      	movs	r3, #0
 80050c4:	2200      	movs	r2, #0
 80050c6:	2100      	movs	r1, #0
 80050c8:	6878      	ldr	r0, [r7, #4]
 80050ca:	f000 f81d 	bl	8005108 <xQueueGenericSend>
		}
		else
		{
			traceCREATE_MUTEX_FAILED();
		}
	}
 80050ce:	bf00      	nop
 80050d0:	3708      	adds	r7, #8
 80050d2:	46bd      	mov	sp, r7
 80050d4:	bd80      	pop	{r7, pc}

080050d6 <xQueueCreateMutex>:
/*-----------------------------------------------------------*/

#if( ( configUSE_MUTEXES == 1 ) && ( configSUPPORT_DYNAMIC_ALLOCATION == 1 ) )

	QueueHandle_t xQueueCreateMutex( const uint8_t ucQueueType )
	{
 80050d6:	b580      	push	{r7, lr}
 80050d8:	b086      	sub	sp, #24
 80050da:	af00      	add	r7, sp, #0
 80050dc:	4603      	mov	r3, r0
 80050de:	71fb      	strb	r3, [r7, #7]
	QueueHandle_t xNewQueue;
	const UBaseType_t uxMutexLength = ( UBaseType_t ) 1, uxMutexSize = ( UBaseType_t ) 0;
 80050e0:	2301      	movs	r3, #1
 80050e2:	617b      	str	r3, [r7, #20]
 80050e4:	2300      	movs	r3, #0
 80050e6:	613b      	str	r3, [r7, #16]

		xNewQueue = xQueueGenericCreate( uxMutexLength, uxMutexSize, ucQueueType );
 80050e8:	79fb      	ldrb	r3, [r7, #7]
 80050ea:	461a      	mov	r2, r3
 80050ec:	6939      	ldr	r1, [r7, #16]
 80050ee:	6978      	ldr	r0, [r7, #20]
 80050f0:	f7ff ff79 	bl	8004fe6 <xQueueGenericCreate>
 80050f4:	60f8      	str	r0, [r7, #12]
		prvInitialiseMutex( ( Queue_t * ) xNewQueue );
 80050f6:	68f8      	ldr	r0, [r7, #12]
 80050f8:	f7ff ffd3 	bl	80050a2 <prvInitialiseMutex>

		return xNewQueue;
 80050fc:	68fb      	ldr	r3, [r7, #12]
	}
 80050fe:	4618      	mov	r0, r3
 8005100:	3718      	adds	r7, #24
 8005102:	46bd      	mov	sp, r7
 8005104:	bd80      	pop	{r7, pc}
	...

08005108 <xQueueGenericSend>:

#endif /* ( ( configUSE_COUNTING_SEMAPHORES == 1 ) && ( configSUPPORT_DYNAMIC_ALLOCATION == 1 ) ) */
/*-----------------------------------------------------------*/

BaseType_t xQueueGenericSend( QueueHandle_t xQueue, const void * const pvItemToQueue, TickType_t xTicksToWait, const BaseType_t xCopyPosition )
{
 8005108:	b580      	push	{r7, lr}
 800510a:	b08e      	sub	sp, #56	@ 0x38
 800510c:	af00      	add	r7, sp, #0
 800510e:	60f8      	str	r0, [r7, #12]
 8005110:	60b9      	str	r1, [r7, #8]
 8005112:	607a      	str	r2, [r7, #4]
 8005114:	603b      	str	r3, [r7, #0]
BaseType_t xEntryTimeSet = pdFALSE, xYieldRequired;
 8005116:	2300      	movs	r3, #0
 8005118:	637b      	str	r3, [r7, #52]	@ 0x34
TimeOut_t xTimeOut;
Queue_t * const pxQueue = xQueue;
 800511a:	68fb      	ldr	r3, [r7, #12]
 800511c:	633b      	str	r3, [r7, #48]	@ 0x30

	configASSERT( pxQueue );
 800511e:	6b3b      	ldr	r3, [r7, #48]	@ 0x30
 8005120:	2b00      	cmp	r3, #0
 8005122:	d10b      	bne.n	800513c <xQueueGenericSend+0x34>
	__asm volatile
 8005124:	f04f 0350 	mov.w	r3, #80	@ 0x50
 8005128:	f383 8811 	msr	BASEPRI, r3
 800512c:	f3bf 8f6f 	isb	sy
 8005130:	f3bf 8f4f 	dsb	sy
 8005134:	62bb      	str	r3, [r7, #40]	@ 0x28
}
 8005136:	bf00      	nop
 8005138:	bf00      	nop
 800513a:	e7fd      	b.n	8005138 <xQueueGenericSend+0x30>
	configASSERT( !( ( pvItemToQueue == NULL ) && ( pxQueue->uxItemSize != ( UBaseType_t ) 0U ) ) );
 800513c:	68bb      	ldr	r3, [r7, #8]
 800513e:	2b00      	cmp	r3, #0
 8005140:	d103      	bne.n	800514a <xQueueGenericSend+0x42>
 8005142:	6b3b      	ldr	r3, [r7, #48]	@ 0x30
 8005144:	6c1b      	ldr	r3, [r3, #64]	@ 0x40
 8005146:	2b00      	cmp	r3, #0
 8005148:	d101      	bne.n	800514e <xQueueGenericSend+0x46>
 800514a:	2301      	movs	r3, #1
 800514c:	e000      	b.n	8005150 <xQueueGenericSend+0x48>
 800514e:	2300      	movs	r3, #0
 8005150:	2b00      	cmp	r3, #0
 8005152:	d10b      	bne.n	800516c <xQueueGenericSend+0x64>
	__asm volatile
 8005154:	f04f 0350 	mov.w	r3, #80	@ 0x50
 8005158:	f383 8811 	msr	BASEPRI, r3
 800515c:	f3bf 8f6f 	isb	sy
 8005160:	f3bf 8f4f 	dsb	sy
 8005164:	627b      	str	r3, [r7, #36]	@ 0x24
}
 8005166:	bf00      	nop
 8005168:	bf00      	nop
 800516a:	e7fd      	b.n	8005168 <xQueueGenericSend+0x60>
	configASSERT( !( ( xCopyPosition == queueOVERWRITE ) && ( pxQueue->uxLength != 1 ) ) );
 800516c:	683b      	ldr	r3, [r7, #0]
 800516e:	2b02      	cmp	r3, #2
 8005170:	d103      	bne.n	800517a <xQueueGenericSend+0x72>
 8005172:	6b3b      	ldr	r3, [r7, #48]	@ 0x30
 8005174:	6bdb      	ldr	r3, [r3, #60]	@ 0x3c
 8005176:	2b01      	cmp	r3, #1
 8005178:	d101      	bne.n	800517e <xQueueGenericSend+0x76>
 800517a:	2301      	movs	r3, #1
 800517c:	e000      	b.n	8005180 <xQueueGenericSend+0x78>
 800517e:	2300      	movs	r3, #0
 8005180:	2b00      	cmp	r3, #0
 8005182:	d10b      	bne.n	800519c <xQueueGenericSend+0x94>
	__asm volatile
 8005184:	f04f 0350 	mov.w	r3, #80	@ 0x50
 8005188:	f383 8811 	msr	BASEPRI, r3
 800518c:	f3bf 8f6f 	isb	sy
 8005190:	f3bf 8f4f 	dsb	sy
 8005194:	623b      	str	r3, [r7, #32]
}
 8005196:	bf00      	nop
 8005198:	bf00      	nop
 800519a:	e7fd      	b.n	8005198 <xQueueGenericSend+0x90>
	#if ( ( INCLUDE_xTaskGetSchedulerState == 1 ) || ( configUSE_TIMERS == 1 ) )
	{
		configASSERT( !( ( xTaskGetSchedulerState() == taskSCHEDULER_SUSPENDED ) && ( xTicksToWait != 0 ) ) );
 800519c:	f001 faf6 	bl	800678c <xTaskGetSchedulerState>
 80051a0:	4603      	mov	r3, r0
 80051a2:	2b00      	cmp	r3, #0
 80051a4:	d102      	bne.n	80051ac <xQueueGenericSend+0xa4>
 80051a6:	687b      	ldr	r3, [r7, #4]
 80051a8:	2b00      	cmp	r3, #0
 80051aa:	d101      	bne.n	80051b0 <xQueueGenericSend+0xa8>
 80051ac:	2301      	movs	r3, #1
 80051ae:	e000      	b.n	80051b2 <xQueueGenericSend+0xaa>
 80051b0:	2300      	movs	r3, #0
 80051b2:	2b00      	cmp	r3, #0
 80051b4:	d10b      	bne.n	80051ce <xQueueGenericSend+0xc6>
	__asm volatile
 80051b6:	f04f 0350 	mov.w	r3, #80	@ 0x50
 80051ba:	f383 8811 	msr	BASEPRI, r3
 80051be:	f3bf 8f6f 	isb	sy
 80051c2:	f3bf 8f4f 	dsb	sy
 80051c6:	61fb      	str	r3, [r7, #28]
}
 80051c8:	bf00      	nop
 80051ca:	bf00      	nop
 80051cc:	e7fd      	b.n	80051ca <xQueueGenericSend+0xc2>
	/*lint -save -e904 This function relaxes the coding standard somewhat to
	allow return statements within the function itself.  This is done in the
	interest of execution time efficiency. */
	for( ;; )
	{
		taskENTER_CRITICAL();
 80051ce:	f002 f94b 	bl	8007468 <vPortEnterCritical>
		{
			/* Is there room on the queue now?  The running task must be the
			highest priority task wanting to access the queue.  If the head item
			in the queue is to be overwritten then it does not matter if the
			queue is full. */
			if( ( pxQueue->uxMessagesWaiting < pxQueue->uxLength ) || ( xCopyPosition == queueOVERWRITE ) )
 80051d2:	6b3b      	ldr	r3, [r7, #48]	@ 0x30
 80051d4:	6b9a      	ldr	r2, [r3, #56]	@ 0x38
 80051d6:	6b3b      	ldr	r3, [r7, #48]	@ 0x30
 80051d8:	6bdb      	ldr	r3, [r3, #60]	@ 0x3c
 80051da:	429a      	cmp	r2, r3
 80051dc:	d302      	bcc.n	80051e4 <xQueueGenericSend+0xdc>
 80051de:	683b      	ldr	r3, [r7, #0]
 80051e0:	2b02      	cmp	r3, #2
 80051e2:	d129      	bne.n	8005238 <xQueueGenericSend+0x130>
						}
					}
				}
				#else /* configUSE_QUEUE_SETS */
				{
					xYieldRequired = prvCopyDataToQueue( pxQueue, pvItemToQueue, xCopyPosition );
 80051e4:	683a      	ldr	r2, [r7, #0]
 80051e6:	68b9      	ldr	r1, [r7, #8]
 80051e8:	6b38      	ldr	r0, [r7, #48]	@ 0x30
 80051ea:	f000 fb37 	bl	800585c <prvCopyDataToQueue>
 80051ee:	62f8      	str	r0, [r7, #44]	@ 0x2c

					/* If there was a task waiting for data to arrive on the
					queue then unblock it now. */
					if( listLIST_IS_EMPTY( &( pxQueue->xTasksWaitingToReceive ) ) == pdFALSE )
 80051f0:	6b3b      	ldr	r3, [r7, #48]	@ 0x30
 80051f2:	6a5b      	ldr	r3, [r3, #36]	@ 0x24
 80051f4:	2b00      	cmp	r3, #0
 80051f6:	d010      	beq.n	800521a <xQueueGenericSend+0x112>
					{
						if( xTaskRemoveFromEventList( &( pxQueue->xTasksWaitingToReceive ) ) != pdFALSE )
 80051f8:	6b3b      	ldr	r3, [r7, #48]	@ 0x30
 80051fa:	3324      	adds	r3, #36	@ 0x24
 80051fc:	4618      	mov	r0, r3
 80051fe:	f001 f905 	bl	800640c <xTaskRemoveFromEventList>
 8005202:	4603      	mov	r3, r0
 8005204:	2b00      	cmp	r3, #0
 8005206:	d013      	beq.n	8005230 <xQueueGenericSend+0x128>
						{
							/* The unblocked task has a priority higher than
							our own so yield immediately.  Yes it is ok to do
							this from within the critical section - the kernel
							takes care of that. */
							queueYIELD_IF_USING_PREEMPTION();
 8005208:	4b3f      	ldr	r3, [pc, #252]	@ (8005308 <xQueueGenericSend+0x200>)
 800520a:	f04f 5280 	mov.w	r2, #268435456	@ 0x10000000
 800520e:	601a      	str	r2, [r3, #0]
 8005210:	f3bf 8f4f 	dsb	sy
 8005214:	f3bf 8f6f 	isb	sy
 8005218:	e00a      	b.n	8005230 <xQueueGenericSend+0x128>
						else
						{
							mtCOVERAGE_TEST_MARKER();
						}
					}
					else if( xYieldRequired != pdFALSE )
 800521a:	6afb      	ldr	r3, [r7, #44]	@ 0x2c
 800521c:	2b00      	cmp	r3, #0
 800521e:	d007      	beq.n	8005230 <xQueueGenericSend+0x128>
					{
						/* This path is a special case that will only get
						executed if the task was holding multiple mutexes and
						the mutexes were given back in an order that is
						different to that in which they were taken. */
						queueYIELD_IF_USING_PREEMPTION();
 8005220:	4b39      	ldr	r3, [pc, #228]	@ (8005308 <xQueueGenericSend+0x200>)
 8005222:	f04f 5280 	mov.w	r2, #268435456	@ 0x10000000
 8005226:	601a      	str	r2, [r3, #0]
 8005228:	f3bf 8f4f 	dsb	sy
 800522c:	f3bf 8f6f 	isb	sy
						mtCOVERAGE_TEST_MARKER();
					}
				}
				#endif /* configUSE_QUEUE_SETS */

				taskEXIT_CRITICAL();
 8005230:	f002 f94c 	bl	80074cc <vPortExitCritical>
				return pdPASS;
 8005234:	2301      	movs	r3, #1
 8005236:	e063      	b.n	8005300 <xQueueGenericSend+0x1f8>
			}
			else
			{
				if( xTicksToWait == ( TickType_t ) 0 )
 8005238:	687b      	ldr	r3, [r7, #4]
 800523a:	2b00      	cmp	r3, #0
 800523c:	d103      	bne.n	8005246 <xQueueGenericSend+0x13e>
				{
					/* The queue was full and no block time is specified (or
					the block time has expired) so leave now. */
					taskEXIT_CRITICAL();
 800523e:	f002 f945 	bl	80074cc <vPortExitCritical>

					/* Return to the original privilege level before exiting
					the function. */
					traceQUEUE_SEND_FAILED( pxQueue );
					return errQUEUE_FULL;
 8005242:	2300      	movs	r3, #0
 8005244:	e05c      	b.n	8005300 <xQueueGenericSend+0x1f8>
				}
				else if( xEntryTimeSet == pdFALSE )
 8005246:	6b7b      	ldr	r3, [r7, #52]	@ 0x34
 8005248:	2b00      	cmp	r3, #0
 800524a:	d106      	bne.n	800525a <xQueueGenericSend+0x152>
				{
					/* The queue was full and a block time was specified so
					configure the timeout structure. */
					vTaskInternalSetTimeOutState( &xTimeOut );
 800524c:	f107 0314 	add.w	r3, r7, #20
 8005250:	4618      	mov	r0, r3
 8005252:	f001 f93f 	bl	80064d4 <vTaskInternalSetTimeOutState>
					xEntryTimeSet = pdTRUE;
 8005256:	2301      	movs	r3, #1
 8005258:	637b      	str	r3, [r7, #52]	@ 0x34
					/* Entry time was already set. */
					mtCOVERAGE_TEST_MARKER();
				}
			}
		}
		taskEXIT_CRITICAL();
 800525a:	f002 f937 	bl	80074cc <vPortExitCritical>

		/* Interrupts and other tasks can send to and receive from the queue
		now the critical section has been exited. */

		vTaskSuspendAll();
 800525e:	f000 feaf 	bl	8005fc0 <vTaskSuspendAll>
		prvLockQueue( pxQueue );
 8005262:	f002 f901 	bl	8007468 <vPortEnterCritical>
 8005266:	6b3b      	ldr	r3, [r7, #48]	@ 0x30
 8005268:	f893 3044 	ldrb.w	r3, [r3, #68]	@ 0x44
 800526c:	b25b      	sxtb	r3, r3
 800526e:	f1b3 3fff 	cmp.w	r3, #4294967295	@ 0xffffffff
 8005272:	d103      	bne.n	800527c <xQueueGenericSend+0x174>
 8005274:	6b3b      	ldr	r3, [r7, #48]	@ 0x30
 8005276:	2200      	movs	r2, #0
 8005278:	f883 2044 	strb.w	r2, [r3, #68]	@ 0x44
 800527c:	6b3b      	ldr	r3, [r7, #48]	@ 0x30
 800527e:	f893 3045 	ldrb.w	r3, [r3, #69]	@ 0x45
 8005282:	b25b      	sxtb	r3, r3
 8005284:	f1b3 3fff 	cmp.w	r3, #4294967295	@ 0xffffffff
 8005288:	d103      	bne.n	8005292 <xQueueGenericSend+0x18a>
 800528a:	6b3b      	ldr	r3, [r7, #48]	@ 0x30
 800528c:	2200      	movs	r2, #0
 800528e:	f883 2045 	strb.w	r2, [r3, #69]	@ 0x45
 8005292:	f002 f91b 	bl	80074cc <vPortExitCritical>

		/* Update the timeout state to see if it has expired yet. */
		if( xTaskCheckForTimeOut( &xTimeOut, &xTicksToWait ) == pdFALSE )
 8005296:	1d3a      	adds	r2, r7, #4
 8005298:	f107 0314 	add.w	r3, r7, #20
 800529c:	4611      	mov	r1, r2
 800529e:	4618      	mov	r0, r3
 80052a0:	f001 f92e 	bl	8006500 <xTaskCheckForTimeOut>
 80052a4:	4603      	mov	r3, r0
 80052a6:	2b00      	cmp	r3, #0
 80052a8:	d124      	bne.n	80052f4 <xQueueGenericSend+0x1ec>
		{
			if( prvIsQueueFull( pxQueue ) != pdFALSE )
 80052aa:	6b38      	ldr	r0, [r7, #48]	@ 0x30
 80052ac:	f000 fbce 	bl	8005a4c <prvIsQueueFull>
 80052b0:	4603      	mov	r3, r0
 80052b2:	2b00      	cmp	r3, #0
 80052b4:	d018      	beq.n	80052e8 <xQueueGenericSend+0x1e0>
			{
				traceBLOCKING_ON_QUEUE_SEND( pxQueue );
				vTaskPlaceOnEventList( &( pxQueue->xTasksWaitingToSend ), xTicksToWait );
 80052b6:	6b3b      	ldr	r3, [r7, #48]	@ 0x30
 80052b8:	3310      	adds	r3, #16
 80052ba:	687a      	ldr	r2, [r7, #4]
 80052bc:	4611      	mov	r1, r2
 80052be:	4618      	mov	r0, r3
 80052c0:	f001 f852 	bl	8006368 <vTaskPlaceOnEventList>
				/* Unlocking the queue means queue events can effect the
				event list.  It is possible that interrupts occurring now
				remove this task from the event list again - but as the
				scheduler is suspended the task will go onto the pending
				ready last instead of the actual ready list. */
				prvUnlockQueue( pxQueue );
 80052c4:	6b38      	ldr	r0, [r7, #48]	@ 0x30
 80052c6:	f000 fb59 	bl	800597c <prvUnlockQueue>
				/* Resuming the scheduler will move tasks from the pending
				ready list into the ready list - so it is feasible that this
				task is already in a ready list before it yields - in which
				case the yield will not cause a context switch unless there
				is also a higher priority task in the pending ready list. */
				if( xTaskResumeAll() == pdFALSE )
 80052ca:	f000 fe87 	bl	8005fdc <xTaskResumeAll>
 80052ce:	4603      	mov	r3, r0
 80052d0:	2b00      	cmp	r3, #0
 80052d2:	f47f af7c 	bne.w	80051ce <xQueueGenericSend+0xc6>
				{
					portYIELD_WITHIN_API();
 80052d6:	4b0c      	ldr	r3, [pc, #48]	@ (8005308 <xQueueGenericSend+0x200>)
 80052d8:	f04f 5280 	mov.w	r2, #268435456	@ 0x10000000
 80052dc:	601a      	str	r2, [r3, #0]
 80052de:	f3bf 8f4f 	dsb	sy
 80052e2:	f3bf 8f6f 	isb	sy
 80052e6:	e772      	b.n	80051ce <xQueueGenericSend+0xc6>
				}
			}
			else
			{
				/* Try again. */
				prvUnlockQueue( pxQueue );
 80052e8:	6b38      	ldr	r0, [r7, #48]	@ 0x30
 80052ea:	f000 fb47 	bl	800597c <prvUnlockQueue>
				( void ) xTaskResumeAll();
 80052ee:	f000 fe75 	bl	8005fdc <xTaskResumeAll>
 80052f2:	e76c      	b.n	80051ce <xQueueGenericSend+0xc6>
			}
		}
		else
		{
			/* The timeout has expired. */
			prvUnlockQueue( pxQueue );
 80052f4:	6b38      	ldr	r0, [r7, #48]	@ 0x30
 80052f6:	f000 fb41 	bl	800597c <prvUnlockQueue>
			( void ) xTaskResumeAll();
 80052fa:	f000 fe6f 	bl	8005fdc <xTaskResumeAll>

			traceQUEUE_SEND_FAILED( pxQueue );
			return errQUEUE_FULL;
 80052fe:	2300      	movs	r3, #0
		}
	} /*lint -restore */
}
 8005300:	4618      	mov	r0, r3
 8005302:	3738      	adds	r7, #56	@ 0x38
 8005304:	46bd      	mov	sp, r7
 8005306:	bd80      	pop	{r7, pc}
 8005308:	e000ed04 	.word	0xe000ed04

0800530c <xQueueGenericSendFromISR>:
/*-----------------------------------------------------------*/

BaseType_t xQueueGenericSendFromISR( QueueHandle_t xQueue, const void * const pvItemToQueue, BaseType_t * const pxHigherPriorityTaskWoken, const BaseType_t xCopyPosition )
{
 800530c:	b580      	push	{r7, lr}
 800530e:	b090      	sub	sp, #64	@ 0x40
 8005310:	af00      	add	r7, sp, #0
 8005312:	60f8      	str	r0, [r7, #12]
 8005314:	60b9      	str	r1, [r7, #8]
 8005316:	607a      	str	r2, [r7, #4]
 8005318:	603b      	str	r3, [r7, #0]
BaseType_t xReturn;
UBaseType_t uxSavedInterruptStatus;
Queue_t * const pxQueue = xQueue;
 800531a:	68fb      	ldr	r3, [r7, #12]
 800531c:	63bb      	str	r3, [r7, #56]	@ 0x38

	configASSERT( pxQueue );
 800531e:	6bbb      	ldr	r3, [r7, #56]	@ 0x38
 8005320:	2b00      	cmp	r3, #0
 8005322:	d10b      	bne.n	800533c <xQueueGenericSendFromISR+0x30>
	__asm volatile
 8005324:	f04f 0350 	mov.w	r3, #80	@ 0x50
 8005328:	f383 8811 	msr	BASEPRI, r3
 800532c:	f3bf 8f6f 	isb	sy
 8005330:	f3bf 8f4f 	dsb	sy
 8005334:	62bb      	str	r3, [r7, #40]	@ 0x28
}
 8005336:	bf00      	nop
 8005338:	bf00      	nop
 800533a:	e7fd      	b.n	8005338 <xQueueGenericSendFromISR+0x2c>
	configASSERT( !( ( pvItemToQueue == NULL ) && ( pxQueue->uxItemSize != ( UBaseType_t ) 0U ) ) );
 800533c:	68bb      	ldr	r3, [r7, #8]
 800533e:	2b00      	cmp	r3, #0
 8005340:	d103      	bne.n	800534a <xQueueGenericSendFromISR+0x3e>
 8005342:	6bbb      	ldr	r3, [r7, #56]	@ 0x38
 8005344:	6c1b      	ldr	r3, [r3, #64]	@ 0x40
 8005346:	2b00      	cmp	r3, #0
 8005348:	d101      	bne.n	800534e <xQueueGenericSendFromISR+0x42>
 800534a:	2301      	movs	r3, #1
 800534c:	e000      	b.n	8005350 <xQueueGenericSendFromISR+0x44>
 800534e:	2300      	movs	r3, #0
 8005350:	2b00      	cmp	r3, #0
 8005352:	d10b      	bne.n	800536c <xQueueGenericSendFromISR+0x60>
	__asm volatile
 8005354:	f04f 0350 	mov.w	r3, #80	@ 0x50
 8005358:	f383 8811 	msr	BASEPRI, r3
 800535c:	f3bf 8f6f 	isb	sy
 8005360:	f3bf 8f4f 	dsb	sy
 8005364:	627b      	str	r3, [r7, #36]	@ 0x24
}
 8005366:	bf00      	nop
 8005368:	bf00      	nop
 800536a:	e7fd      	b.n	8005368 <xQueueGenericSendFromISR+0x5c>
	configASSERT( !( ( xCopyPosition == queueOVERWRITE ) && ( pxQueue->uxLength != 1 ) ) );
 800536c:	683b      	ldr	r3, [r7, #0]
 800536e:	2b02      	cmp	r3, #2
 8005370:	d103      	bne.n	800537a <xQueueGenericSendFromISR+0x6e>
 8005372:	6bbb      	ldr	r3, [r7, #56]	@ 0x38
 8005374:	6bdb      	ldr	r3, [r3, #60]	@ 0x3c
 8005376:	2b01      	cmp	r3, #1
 8005378:	d101      	bne.n	800537e <xQueueGenericSendFromISR+0x72>
 800537a:	2301      	movs	r3, #1
 800537c:	e000      	b.n	8005380 <xQueueGenericSendFromISR+0x74>
 800537e:	2300      	movs	r3, #0
 8005380:	2b00      	cmp	r3, #0
 8005382:	d10b      	bne.n	800539c <xQueueGenericSendFromISR+0x90>
	__asm volatile
 8005384:	f04f 0350 	mov.w	r3, #80	@ 0x50
 8005388:	f383 8811 	msr	BASEPRI, r3
 800538c:	f3bf 8f6f 	isb	sy
 8005390:	f3bf 8f4f 	dsb	sy
 8005394:	623b      	str	r3, [r7, #32]
}
 8005396:	bf00      	nop
 8005398:	bf00      	nop
 800539a:	e7fd      	b.n	8005398 <xQueueGenericSendFromISR+0x8c>
	that have been assigned a priority at or (logically) below the maximum
	system call	interrupt priority.  FreeRTOS maintains a separate interrupt
	safe API to ensure interrupt entry is as fast and as simple as possible.
	More information (albeit Cortex-M specific) is provided on the following
	link: http://www.freertos.org/RTOS-Cortex-M3-M4.html */
	portASSERT_IF_INTERRUPT_PRIORITY_INVALID();
 800539c:	f002 f944 	bl	8007628 <vPortValidateInterruptPriority>

portFORCE_INLINE static uint32_t ulPortRaiseBASEPRI( void )
{
uint32_t ulOriginalBASEPRI, ulNewBASEPRI;

	__asm volatile
 80053a0:	f3ef 8211 	mrs	r2, BASEPRI
 80053a4:	f04f 0350 	mov.w	r3, #80	@ 0x50
 80053a8:	f383 8811 	msr	BASEPRI, r3
 80053ac:	f3bf 8f6f 	isb	sy
 80053b0:	f3bf 8f4f 	dsb	sy
 80053b4:	61fa      	str	r2, [r7, #28]
 80053b6:	61bb      	str	r3, [r7, #24]
		:"=r" (ulOriginalBASEPRI), "=r" (ulNewBASEPRI) : "i" ( configMAX_SYSCALL_INTERRUPT_PRIORITY ) : "memory"
	);

	/* This return will not be reached but is necessary to prevent compiler
	warnings. */
	return ulOriginalBASEPRI;
 80053b8:	69fb      	ldr	r3, [r7, #28]
	/* Similar to xQueueGenericSend, except without blocking if there is no room
	in the queue.  Also don't directly wake a task that was blocked on a queue
	read, instead return a flag to say whether a context switch is required or
	not (i.e. has a task with a higher priority than us been woken by this
	post). */
	uxSavedInterruptStatus = portSET_INTERRUPT_MASK_FROM_ISR();
 80053ba:	637b      	str	r3, [r7, #52]	@ 0x34
	{
		if( ( pxQueue->uxMessagesWaiting < pxQueue->uxLength ) || ( xCopyPosition == queueOVERWRITE ) )
 80053bc:	6bbb      	ldr	r3, [r7, #56]	@ 0x38
 80053be:	6b9a      	ldr	r2, [r3, #56]	@ 0x38
 80053c0:	6bbb      	ldr	r3, [r7, #56]	@ 0x38
 80053c2:	6bdb      	ldr	r3, [r3, #60]	@ 0x3c
 80053c4:	429a      	cmp	r2, r3
 80053c6:	d302      	bcc.n	80053ce <xQueueGenericSendFromISR+0xc2>
 80053c8:	683b      	ldr	r3, [r7, #0]
 80053ca:	2b02      	cmp	r3, #2
 80053cc:	d12f      	bne.n	800542e <xQueueGenericSendFromISR+0x122>
		{
			const int8_t cTxLock = pxQueue->cTxLock;
 80053ce:	6bbb      	ldr	r3, [r7, #56]	@ 0x38
 80053d0:	f893 3045 	ldrb.w	r3, [r3, #69]	@ 0x45
 80053d4:	f887 3033 	strb.w	r3, [r7, #51]	@ 0x33
			const UBaseType_t uxPreviousMessagesWaiting = pxQueue->uxMessagesWaiting;
 80053d8:	6bbb      	ldr	r3, [r7, #56]	@ 0x38
 80053da:	6b9b      	ldr	r3, [r3, #56]	@ 0x38
 80053dc:	62fb      	str	r3, [r7, #44]	@ 0x2c
			/* Semaphores use xQueueGiveFromISR(), so pxQueue will not be a
			semaphore or mutex.  That means prvCopyDataToQueue() cannot result
			in a task disinheriting a priority and prvCopyDataToQueue() can be
			called here even though the disinherit function does not check if
			the scheduler is suspended before accessing the ready lists. */
			( void ) prvCopyDataToQueue( pxQueue, pvItemToQueue, xCopyPosition );
 80053de:	683a      	ldr	r2, [r7, #0]
 80053e0:	68b9      	ldr	r1, [r7, #8]
 80053e2:	6bb8      	ldr	r0, [r7, #56]	@ 0x38
 80053e4:	f000 fa3a 	bl	800585c <prvCopyDataToQueue>

			/* The event list is not altered if the queue is locked.  This will
			be done when the queue is unlocked later. */
			if( cTxLock == queueUNLOCKED )
 80053e8:	f997 3033 	ldrsb.w	r3, [r7, #51]	@ 0x33
 80053ec:	f1b3 3fff 	cmp.w	r3, #4294967295	@ 0xffffffff
 80053f0:	d112      	bne.n	8005418 <xQueueGenericSendFromISR+0x10c>
						}
					}
				}
				#else /* configUSE_QUEUE_SETS */
				{
					if( listLIST_IS_EMPTY( &( pxQueue->xTasksWaitingToReceive ) ) == pdFALSE )
 80053f2:	6bbb      	ldr	r3, [r7, #56]	@ 0x38
 80053f4:	6a5b      	ldr	r3, [r3, #36]	@ 0x24
 80053f6:	2b00      	cmp	r3, #0
 80053f8:	d016      	beq.n	8005428 <xQueueGenericSendFromISR+0x11c>
					{
						if( xTaskRemoveFromEventList( &( pxQueue->xTasksWaitingToReceive ) ) != pdFALSE )
 80053fa:	6bbb      	ldr	r3, [r7, #56]	@ 0x38
 80053fc:	3324      	adds	r3, #36	@ 0x24
 80053fe:	4618      	mov	r0, r3
 8005400:	f001 f804 	bl	800640c <xTaskRemoveFromEventList>
 8005404:	4603      	mov	r3, r0
 8005406:	2b00      	cmp	r3, #0
 8005408:	d00e      	beq.n	8005428 <xQueueGenericSendFromISR+0x11c>
						{
							/* The task waiting has a higher priority so record that a
							context	switch is required. */
							if( pxHigherPriorityTaskWoken != NULL )
 800540a:	687b      	ldr	r3, [r7, #4]
 800540c:	2b00      	cmp	r3, #0
 800540e:	d00b      	beq.n	8005428 <xQueueGenericSendFromISR+0x11c>
							{
								*pxHigherPriorityTaskWoken = pdTRUE;
 8005410:	687b      	ldr	r3, [r7, #4]
 8005412:	2201      	movs	r2, #1
 8005414:	601a      	str	r2, [r3, #0]
 8005416:	e007      	b.n	8005428 <xQueueGenericSendFromISR+0x11c>
			}
			else
			{
				/* Increment the lock count so the task that unlocks the queue
				knows that data was posted while it was locked. */
				pxQueue->cTxLock = ( int8_t ) ( cTxLock + 1 );
 8005418:	f897 3033 	ldrb.w	r3, [r7, #51]	@ 0x33
 800541c:	3301      	adds	r3, #1
 800541e:	b2db      	uxtb	r3, r3
 8005420:	b25a      	sxtb	r2, r3
 8005422:	6bbb      	ldr	r3, [r7, #56]	@ 0x38
 8005424:	f883 2045 	strb.w	r2, [r3, #69]	@ 0x45
			}

			xReturn = pdPASS;
 8005428:	2301      	movs	r3, #1
 800542a:	63fb      	str	r3, [r7, #60]	@ 0x3c
		{
 800542c:	e001      	b.n	8005432 <xQueueGenericSendFromISR+0x126>
		}
		else
		{
			traceQUEUE_SEND_FROM_ISR_FAILED( pxQueue );
			xReturn = errQUEUE_FULL;
 800542e:	2300      	movs	r3, #0
 8005430:	63fb      	str	r3, [r7, #60]	@ 0x3c
 8005432:	6b7b      	ldr	r3, [r7, #52]	@ 0x34
 8005434:	617b      	str	r3, [r7, #20]
}
/*-----------------------------------------------------------*/

portFORCE_INLINE static void vPortSetBASEPRI( uint32_t ulNewMaskValue )
{
	__asm volatile
 8005436:	697b      	ldr	r3, [r7, #20]
 8005438:	f383 8811 	msr	BASEPRI, r3
	(
		"	msr basepri, %0	" :: "r" ( ulNewMaskValue ) : "memory"
	);
}
 800543c:	bf00      	nop
		}
	}
	portCLEAR_INTERRUPT_MASK_FROM_ISR( uxSavedInterruptStatus );

	return xReturn;
 800543e:	6bfb      	ldr	r3, [r7, #60]	@ 0x3c
}
 8005440:	4618      	mov	r0, r3
 8005442:	3740      	adds	r7, #64	@ 0x40
 8005444:	46bd      	mov	sp, r7
 8005446:	bd80      	pop	{r7, pc}

08005448 <xQueueReceive>:
	return xReturn;
}
/*-----------------------------------------------------------*/

BaseType_t xQueueReceive( QueueHandle_t xQueue, void * const pvBuffer, TickType_t xTicksToWait )
{
 8005448:	b580      	push	{r7, lr}
 800544a:	b08c      	sub	sp, #48	@ 0x30
 800544c:	af00      	add	r7, sp, #0
 800544e:	60f8      	str	r0, [r7, #12]
 8005450:	60b9      	str	r1, [r7, #8]
 8005452:	607a      	str	r2, [r7, #4]
BaseType_t xEntryTimeSet = pdFALSE;
 8005454:	2300      	movs	r3, #0
 8005456:	62fb      	str	r3, [r7, #44]	@ 0x2c
TimeOut_t xTimeOut;
Queue_t * const pxQueue = xQueue;
 8005458:	68fb      	ldr	r3, [r7, #12]
 800545a:	62bb      	str	r3, [r7, #40]	@ 0x28

	/* Check the pointer is not NULL. */
	configASSERT( ( pxQueue ) );
 800545c:	6abb      	ldr	r3, [r7, #40]	@ 0x28
 800545e:	2b00      	cmp	r3, #0
 8005460:	d10b      	bne.n	800547a <xQueueReceive+0x32>
	__asm volatile
 8005462:	f04f 0350 	mov.w	r3, #80	@ 0x50
 8005466:	f383 8811 	msr	BASEPRI, r3
 800546a:	f3bf 8f6f 	isb	sy
 800546e:	f3bf 8f4f 	dsb	sy
 8005472:	623b      	str	r3, [r7, #32]
}
 8005474:	bf00      	nop
 8005476:	bf00      	nop
 8005478:	e7fd      	b.n	8005476 <xQueueReceive+0x2e>

	/* The buffer into which data is received can only be NULL if the data size
	is zero (so no data is copied into the buffer. */
	configASSERT( !( ( ( pvBuffer ) == NULL ) && ( ( pxQueue )->uxItemSize != ( UBaseType_t ) 0U ) ) );
 800547a:	68bb      	ldr	r3, [r7, #8]
 800547c:	2b00      	cmp	r3, #0
 800547e:	d103      	bne.n	8005488 <xQueueReceive+0x40>
 8005480:	6abb      	ldr	r3, [r7, #40]	@ 0x28
 8005482:	6c1b      	ldr	r3, [r3, #64]	@ 0x40
 8005484:	2b00      	cmp	r3, #0
 8005486:	d101      	bne.n	800548c <xQueueReceive+0x44>
 8005488:	2301      	movs	r3, #1
 800548a:	e000      	b.n	800548e <xQueueReceive+0x46>
 800548c:	2300      	movs	r3, #0
 800548e:	2b00      	cmp	r3, #0
 8005490:	d10b      	bne.n	80054aa <xQueueReceive+0x62>
	__asm volatile
 8005492:	f04f 0350 	mov.w	r3, #80	@ 0x50
 8005496:	f383 8811 	msr	BASEPRI, r3
 800549a:	f3bf 8f6f 	isb	sy
 800549e:	f3bf 8f4f 	dsb	sy
 80054a2:	61fb      	str	r3, [r7, #28]
}
 80054a4:	bf00      	nop
 80054a6:	bf00      	nop
 80054a8:	e7fd      	b.n	80054a6 <xQueueReceive+0x5e>

	/* Cannot block if the scheduler is suspended. */
	#if ( ( INCLUDE_xTaskGetSchedulerState == 1 ) || ( configUSE_TIMERS == 1 ) )
	{
		configASSERT( !( ( xTaskGetSchedulerState() == taskSCHEDULER_SUSPENDED ) && ( xTicksToWait != 0 ) ) );
 80054aa:	f001 f96f 	bl	800678c <xTaskGetSchedulerState>
 80054ae:	4603      	mov	r3, r0
 80054b0:	2b00      	cmp	r3, #0
 80054b2:	d102      	bne.n	80054ba <xQueueReceive+0x72>
 80054b4:	687b      	ldr	r3, [r7, #4]
 80054b6:	2b00      	cmp	r3, #0
 80054b8:	d101      	bne.n	80054be <xQueueReceive+0x76>
 80054ba:	2301      	movs	r3, #1
 80054bc:	e000      	b.n	80054c0 <xQueueReceive+0x78>
 80054be:	2300      	movs	r3, #0
 80054c0:	2b00      	cmp	r3, #0
 80054c2:	d10b      	bne.n	80054dc <xQueueReceive+0x94>
	__asm volatile
 80054c4:	f04f 0350 	mov.w	r3, #80	@ 0x50
 80054c8:	f383 8811 	msr	BASEPRI, r3
 80054cc:	f3bf 8f6f 	isb	sy
 80054d0:	f3bf 8f4f 	dsb	sy
 80054d4:	61bb      	str	r3, [r7, #24]
}
 80054d6:	bf00      	nop
 80054d8:	bf00      	nop
 80054da:	e7fd      	b.n	80054d8 <xQueueReceive+0x90>
	/*lint -save -e904  This function relaxes the coding standard somewhat to
	allow return statements within the function itself.  This is done in the
	interest of execution time efficiency. */
	for( ;; )
	{
		taskENTER_CRITICAL();
 80054dc:	f001 ffc4 	bl	8007468 <vPortEnterCritical>
		{
			const UBaseType_t uxMessagesWaiting = pxQueue->uxMessagesWaiting;
 80054e0:	6abb      	ldr	r3, [r7, #40]	@ 0x28
 80054e2:	6b9b      	ldr	r3, [r3, #56]	@ 0x38
 80054e4:	627b      	str	r3, [r7, #36]	@ 0x24

			/* Is there data in the queue now?  To be running the calling task
			must be the highest priority task wanting to access the queue. */
			if( uxMessagesWaiting > ( UBaseType_t ) 0 )
 80054e6:	6a7b      	ldr	r3, [r7, #36]	@ 0x24
 80054e8:	2b00      	cmp	r3, #0
 80054ea:	d01f      	beq.n	800552c <xQueueReceive+0xe4>
			{
				/* Data available, remove one item. */
				prvCopyDataFromQueue( pxQueue, pvBuffer );
 80054ec:	68b9      	ldr	r1, [r7, #8]
 80054ee:	6ab8      	ldr	r0, [r7, #40]	@ 0x28
 80054f0:	f000 fa1e 	bl	8005930 <prvCopyDataFromQueue>
				traceQUEUE_RECEIVE( pxQueue );
				pxQueue->uxMessagesWaiting = uxMessagesWaiting - ( UBaseType_t ) 1;
 80054f4:	6a7b      	ldr	r3, [r7, #36]	@ 0x24
 80054f6:	1e5a      	subs	r2, r3, #1
 80054f8:	6abb      	ldr	r3, [r7, #40]	@ 0x28
 80054fa:	639a      	str	r2, [r3, #56]	@ 0x38

				/* There is now space in the queue, were any tasks waiting to
				post to the queue?  If so, unblock the highest priority waiting
				task. */
				if( listLIST_IS_EMPTY( &( pxQueue->xTasksWaitingToSend ) ) == pdFALSE )
 80054fc:	6abb      	ldr	r3, [r7, #40]	@ 0x28
 80054fe:	691b      	ldr	r3, [r3, #16]
 8005500:	2b00      	cmp	r3, #0
 8005502:	d00f      	beq.n	8005524 <xQueueReceive+0xdc>
				{
					if( xTaskRemoveFromEventList( &( pxQueue->xTasksWaitingToSend ) ) != pdFALSE )
 8005504:	6abb      	ldr	r3, [r7, #40]	@ 0x28
 8005506:	3310      	adds	r3, #16
 8005508:	4618      	mov	r0, r3
 800550a:	f000 ff7f 	bl	800640c <xTaskRemoveFromEventList>
 800550e:	4603      	mov	r3, r0
 8005510:	2b00      	cmp	r3, #0
 8005512:	d007      	beq.n	8005524 <xQueueReceive+0xdc>
					{
						queueYIELD_IF_USING_PREEMPTION();
 8005514:	4b3c      	ldr	r3, [pc, #240]	@ (8005608 <xQueueReceive+0x1c0>)
 8005516:	f04f 5280 	mov.w	r2, #268435456	@ 0x10000000
 800551a:	601a      	str	r2, [r3, #0]
 800551c:	f3bf 8f4f 	dsb	sy
 8005520:	f3bf 8f6f 	isb	sy
				else
				{
					mtCOVERAGE_TEST_MARKER();
				}

				taskEXIT_CRITICAL();
 8005524:	f001 ffd2 	bl	80074cc <vPortExitCritical>
				return pdPASS;
 8005528:	2301      	movs	r3, #1
 800552a:	e069      	b.n	8005600 <xQueueReceive+0x1b8>
			}
			else
			{
				if( xTicksToWait == ( TickType_t ) 0 )
 800552c:	687b      	ldr	r3, [r7, #4]
 800552e:	2b00      	cmp	r3, #0
 8005530:	d103      	bne.n	800553a <xQueueReceive+0xf2>
				{
					/* The queue was empty and no block time is specified (or
					the block time has expired) so leave now. */
					taskEXIT_CRITICAL();
 8005532:	f001 ffcb 	bl	80074cc <vPortExitCritical>
					traceQUEUE_RECEIVE_FAILED( pxQueue );
					return errQUEUE_EMPTY;
 8005536:	2300      	movs	r3, #0
 8005538:	e062      	b.n	8005600 <xQueueReceive+0x1b8>
				}
				else if( xEntryTimeSet == pdFALSE )
 800553a:	6afb      	ldr	r3, [r7, #44]	@ 0x2c
 800553c:	2b00      	cmp	r3, #0
 800553e:	d106      	bne.n	800554e <xQueueReceive+0x106>
				{
					/* The queue was empty and a block time was specified so
					configure the timeout structure. */
					vTaskInternalSetTimeOutState( &xTimeOut );
 8005540:	f107 0310 	add.w	r3, r7, #16
 8005544:	4618      	mov	r0, r3
 8005546:	f000 ffc5 	bl	80064d4 <vTaskInternalSetTimeOutState>
					xEntryTimeSet = pdTRUE;
 800554a:	2301      	movs	r3, #1
 800554c:	62fb      	str	r3, [r7, #44]	@ 0x2c
					/* Entry time was already set. */
					mtCOVERAGE_TEST_MARKER();
				}
			}
		}
		taskEXIT_CRITICAL();
 800554e:	f001 ffbd 	bl	80074cc <vPortExitCritical>

		/* Interrupts and other tasks can send to and receive from the queue
		now the critical section has been exited. */

		vTaskSuspendAll();
 8005552:	f000 fd35 	bl	8005fc0 <vTaskSuspendAll>
		prvLockQueue( pxQueue );
 8005556:	f001 ff87 	bl	8007468 <vPortEnterCritical>
 800555a:	6abb      	ldr	r3, [r7, #40]	@ 0x28
 800555c:	f893 3044 	ldrb.w	r3, [r3, #68]	@ 0x44
 8005560:	b25b      	sxtb	r3, r3
 8005562:	f1b3 3fff 	cmp.w	r3, #4294967295	@ 0xffffffff
 8005566:	d103      	bne.n	8005570 <xQueueReceive+0x128>
 8005568:	6abb      	ldr	r3, [r7, #40]	@ 0x28
 800556a:	2200      	movs	r2, #0
 800556c:	f883 2044 	strb.w	r2, [r3, #68]	@ 0x44
 8005570:	6abb      	ldr	r3, [r7, #40]	@ 0x28
 8005572:	f893 3045 	ldrb.w	r3, [r3, #69]	@ 0x45
 8005576:	b25b      	sxtb	r3, r3
 8005578:	f1b3 3fff 	cmp.w	r3, #4294967295	@ 0xffffffff
 800557c:	d103      	bne.n	8005586 <xQueueReceive+0x13e>
 800557e:	6abb      	ldr	r3, [r7, #40]	@ 0x28
 8005580:	2200      	movs	r2, #0
 8005582:	f883 2045 	strb.w	r2, [r3, #69]	@ 0x45
 8005586:	f001 ffa1 	bl	80074cc <vPortExitCritical>

		/* Update the timeout state to see if it has expired yet. */
		if( xTaskCheckForTimeOut( &xTimeOut, &xTicksToWait ) == pdFALSE )
 800558a:	1d3a      	adds	r2, r7, #4
 800558c:	f107 0310 	add.w	r3, r7, #16
 8005590:	4611      	mov	r1, r2
 8005592:	4618      	mov	r0, r3
 8005594:	f000 ffb4 	bl	8006500 <xTaskCheckForTimeOut>
 8005598:	4603      	mov	r3, r0
 800559a:	2b00      	cmp	r3, #0
 800559c:	d123      	bne.n	80055e6 <xQueueReceive+0x19e>
		{
			/* The timeout has not expired.  If the queue is still empty place
			the task on the list of tasks waiting to receive from the queue. */
			if( prvIsQueueEmpty( pxQueue ) != pdFALSE )
 800559e:	6ab8      	ldr	r0, [r7, #40]	@ 0x28
 80055a0:	f000 fa3e 	bl	8005a20 <prvIsQueueEmpty>
 80055a4:	4603      	mov	r3, r0
 80055a6:	2b00      	cmp	r3, #0
 80055a8:	d017      	beq.n	80055da <xQueueReceive+0x192>
			{
				traceBLOCKING_ON_QUEUE_RECEIVE( pxQueue );
				vTaskPlaceOnEventList( &( pxQueue->xTasksWaitingToReceive ), xTicksToWait );
 80055aa:	6abb      	ldr	r3, [r7, #40]	@ 0x28
 80055ac:	3324      	adds	r3, #36	@ 0x24
 80055ae:	687a      	ldr	r2, [r7, #4]
 80055b0:	4611      	mov	r1, r2
 80055b2:	4618      	mov	r0, r3
 80055b4:	f000 fed8 	bl	8006368 <vTaskPlaceOnEventList>
				prvUnlockQueue( pxQueue );
 80055b8:	6ab8      	ldr	r0, [r7, #40]	@ 0x28
 80055ba:	f000 f9df 	bl	800597c <prvUnlockQueue>
				if( xTaskResumeAll() == pdFALSE )
 80055be:	f000 fd0d 	bl	8005fdc <xTaskResumeAll>
 80055c2:	4603      	mov	r3, r0
 80055c4:	2b00      	cmp	r3, #0
 80055c6:	d189      	bne.n	80054dc <xQueueReceive+0x94>
				{
					portYIELD_WITHIN_API();
 80055c8:	4b0f      	ldr	r3, [pc, #60]	@ (8005608 <xQueueReceive+0x1c0>)
 80055ca:	f04f 5280 	mov.w	r2, #268435456	@ 0x10000000
 80055ce:	601a      	str	r2, [r3, #0]
 80055d0:	f3bf 8f4f 	dsb	sy
 80055d4:	f3bf 8f6f 	isb	sy
 80055d8:	e780      	b.n	80054dc <xQueueReceive+0x94>
			}
			else
			{
				/* The queue contains data again.  Loop back to try and read the
				data. */
				prvUnlockQueue( pxQueue );
 80055da:	6ab8      	ldr	r0, [r7, #40]	@ 0x28
 80055dc:	f000 f9ce 	bl	800597c <prvUnlockQueue>
				( void ) xTaskResumeAll();
 80055e0:	f000 fcfc 	bl	8005fdc <xTaskResumeAll>
 80055e4:	e77a      	b.n	80054dc <xQueueReceive+0x94>
		}
		else
		{
			/* Timed out.  If there is no data in the queue exit, otherwise loop
			back and attempt to read the data. */
			prvUnlockQueue( pxQueue );
 80055e6:	6ab8      	ldr	r0, [r7, #40]	@ 0x28
 80055e8:	f000 f9c8 	bl	800597c <prvUnlockQueue>
			( void ) xTaskResumeAll();
 80055ec:	f000 fcf6 	bl	8005fdc <xTaskResumeAll>

			if( prvIsQueueEmpty( pxQueue ) != pdFALSE )
 80055f0:	6ab8      	ldr	r0, [r7, #40]	@ 0x28
 80055f2:	f000 fa15 	bl	8005a20 <prvIsQueueEmpty>
 80055f6:	4603      	mov	r3, r0
 80055f8:	2b00      	cmp	r3, #0
 80055fa:	f43f af6f 	beq.w	80054dc <xQueueReceive+0x94>
			{
				traceQUEUE_RECEIVE_FAILED( pxQueue );
				return errQUEUE_EMPTY;
 80055fe:	2300      	movs	r3, #0
			{
				mtCOVERAGE_TEST_MARKER();
			}
		}
	} /*lint -restore */
}
 8005600:	4618      	mov	r0, r3
 8005602:	3730      	adds	r7, #48	@ 0x30
 8005604:	46bd      	mov	sp, r7
 8005606:	bd80      	pop	{r7, pc}
 8005608:	e000ed04 	.word	0xe000ed04

0800560c <xQueueSemaphoreTake>:
/*-----------------------------------------------------------*/

BaseType_t xQueueSemaphoreTake( QueueHandle_t xQueue, TickType_t xTicksToWait )
{
 800560c:	b580      	push	{r7, lr}
 800560e:	b08e      	sub	sp, #56	@ 0x38
 8005610:	af00      	add	r7, sp, #0
 8005612:	6078      	str	r0, [r7, #4]
 8005614:	6039      	str	r1, [r7, #0]
BaseType_t xEntryTimeSet = pdFALSE;
 8005616:	2300      	movs	r3, #0
 8005618:	637b      	str	r3, [r7, #52]	@ 0x34
TimeOut_t xTimeOut;
Queue_t * const pxQueue = xQueue;
 800561a:	687b      	ldr	r3, [r7, #4]
 800561c:	62fb      	str	r3, [r7, #44]	@ 0x2c

#if( configUSE_MUTEXES == 1 )
	BaseType_t xInheritanceOccurred = pdFALSE;
 800561e:	2300      	movs	r3, #0
 8005620:	633b      	str	r3, [r7, #48]	@ 0x30
#endif

	/* Check the queue pointer is not NULL. */
	configASSERT( ( pxQueue ) );
 8005622:	6afb      	ldr	r3, [r7, #44]	@ 0x2c
 8005624:	2b00      	cmp	r3, #0
 8005626:	d10b      	bne.n	8005640 <xQueueSemaphoreTake+0x34>
	__asm volatile
 8005628:	f04f 0350 	mov.w	r3, #80	@ 0x50
 800562c:	f383 8811 	msr	BASEPRI, r3
 8005630:	f3bf 8f6f 	isb	sy
 8005634:	f3bf 8f4f 	dsb	sy
 8005638:	623b      	str	r3, [r7, #32]
}
 800563a:	bf00      	nop
 800563c:	bf00      	nop
 800563e:	e7fd      	b.n	800563c <xQueueSemaphoreTake+0x30>

	/* Check this really is a semaphore, in which case the item size will be
	0. */
	configASSERT( pxQueue->uxItemSize == 0 );
 8005640:	6afb      	ldr	r3, [r7, #44]	@ 0x2c
 8005642:	6c1b      	ldr	r3, [r3, #64]	@ 0x40
 8005644:	2b00      	cmp	r3, #0
 8005646:	d00b      	beq.n	8005660 <xQueueSemaphoreTake+0x54>
	__asm volatile
 8005648:	f04f 0350 	mov.w	r3, #80	@ 0x50
 800564c:	f383 8811 	msr	BASEPRI, r3
 8005650:	f3bf 8f6f 	isb	sy
 8005654:	f3bf 8f4f 	dsb	sy
 8005658:	61fb      	str	r3, [r7, #28]
}
 800565a:	bf00      	nop
 800565c:	bf00      	nop
 800565e:	e7fd      	b.n	800565c <xQueueSemaphoreTake+0x50>

	/* Cannot block if the scheduler is suspended. */
	#if ( ( INCLUDE_xTaskGetSchedulerState == 1 ) || ( configUSE_TIMERS == 1 ) )
	{
		configASSERT( !( ( xTaskGetSchedulerState() == taskSCHEDULER_SUSPENDED ) && ( xTicksToWait != 0 ) ) );
 8005660:	f001 f894 	bl	800678c <xTaskGetSchedulerState>
 8005664:	4603      	mov	r3, r0
 8005666:	2b00      	cmp	r3, #0
 8005668:	d102      	bne.n	8005670 <xQueueSemaphoreTake+0x64>
 800566a:	683b      	ldr	r3, [r7, #0]
 800566c:	2b00      	cmp	r3, #0
 800566e:	d101      	bne.n	8005674 <xQueueSemaphoreTake+0x68>
 8005670:	2301      	movs	r3, #1
 8005672:	e000      	b.n	8005676 <xQueueSemaphoreTake+0x6a>
 8005674:	2300      	movs	r3, #0
 8005676:	2b00      	cmp	r3, #0
 8005678:	d10b      	bne.n	8005692 <xQueueSemaphoreTake+0x86>
	__asm volatile
 800567a:	f04f 0350 	mov.w	r3, #80	@ 0x50
 800567e:	f383 8811 	msr	BASEPRI, r3
 8005682:	f3bf 8f6f 	isb	sy
 8005686:	f3bf 8f4f 	dsb	sy
 800568a:	61bb      	str	r3, [r7, #24]
}
 800568c:	bf00      	nop
 800568e:	bf00      	nop
 8005690:	e7fd      	b.n	800568e <xQueueSemaphoreTake+0x82>
	/*lint -save -e904 This function relaxes the coding standard somewhat to allow return
	statements within the function itself.  This is done in the interest
	of execution time efficiency. */
	for( ;; )
	{
		taskENTER_CRITICAL();
 8005692:	f001 fee9 	bl	8007468 <vPortEnterCritical>
		{
			/* Semaphores are queues with an item size of 0, and where the
			number of messages in the queue is the semaphore's count value. */
			const UBaseType_t uxSemaphoreCount = pxQueue->uxMessagesWaiting;
 8005696:	6afb      	ldr	r3, [r7, #44]	@ 0x2c
 8005698:	6b9b      	ldr	r3, [r3, #56]	@ 0x38
 800569a:	62bb      	str	r3, [r7, #40]	@ 0x28

			/* Is there data in the queue now?  To be running the calling task
			must be the highest priority task wanting to access the queue. */
			if( uxSemaphoreCount > ( UBaseType_t ) 0 )
 800569c:	6abb      	ldr	r3, [r7, #40]	@ 0x28
 800569e:	2b00      	cmp	r3, #0
 80056a0:	d024      	beq.n	80056ec <xQueueSemaphoreTake+0xe0>
			{
				traceQUEUE_RECEIVE( pxQueue );

				/* Semaphores are queues with a data size of zero and where the
				messages waiting is the semaphore's count.  Reduce the count. */
				pxQueue->uxMessagesWaiting = uxSemaphoreCount - ( UBaseType_t ) 1;
 80056a2:	6abb      	ldr	r3, [r7, #40]	@ 0x28
 80056a4:	1e5a      	subs	r2, r3, #1
 80056a6:	6afb      	ldr	r3, [r7, #44]	@ 0x2c
 80056a8:	639a      	str	r2, [r3, #56]	@ 0x38

				#if ( configUSE_MUTEXES == 1 )
				{
					if( pxQueue->uxQueueType == queueQUEUE_IS_MUTEX )
 80056aa:	6afb      	ldr	r3, [r7, #44]	@ 0x2c
 80056ac:	681b      	ldr	r3, [r3, #0]
 80056ae:	2b00      	cmp	r3, #0
 80056b0:	d104      	bne.n	80056bc <xQueueSemaphoreTake+0xb0>
					{
						/* Record the information required to implement
						priority inheritance should it become necessary. */
						pxQueue->u.xSemaphore.xMutexHolder = pvTaskIncrementMutexHeldCount();
 80056b2:	f001 f9e5 	bl	8006a80 <pvTaskIncrementMutexHeldCount>
 80056b6:	4602      	mov	r2, r0
 80056b8:	6afb      	ldr	r3, [r7, #44]	@ 0x2c
 80056ba:	609a      	str	r2, [r3, #8]
				}
				#endif /* configUSE_MUTEXES */

				/* Check to see if other tasks are blocked waiting to give the
				semaphore, and if so, unblock the highest priority such task. */
				if( listLIST_IS_EMPTY( &( pxQueue->xTasksWaitingToSend ) ) == pdFALSE )
 80056bc:	6afb      	ldr	r3, [r7, #44]	@ 0x2c
 80056be:	691b      	ldr	r3, [r3, #16]
 80056c0:	2b00      	cmp	r3, #0
 80056c2:	d00f      	beq.n	80056e4 <xQueueSemaphoreTake+0xd8>
				{
					if( xTaskRemoveFromEventList( &( pxQueue->xTasksWaitingToSend ) ) != pdFALSE )
 80056c4:	6afb      	ldr	r3, [r7, #44]	@ 0x2c
 80056c6:	3310      	adds	r3, #16
 80056c8:	4618      	mov	r0, r3
 80056ca:	f000 fe9f 	bl	800640c <xTaskRemoveFromEventList>
 80056ce:	4603      	mov	r3, r0
 80056d0:	2b00      	cmp	r3, #0
 80056d2:	d007      	beq.n	80056e4 <xQueueSemaphoreTake+0xd8>
					{
						queueYIELD_IF_USING_PREEMPTION();
 80056d4:	4b54      	ldr	r3, [pc, #336]	@ (8005828 <xQueueSemaphoreTake+0x21c>)
 80056d6:	f04f 5280 	mov.w	r2, #268435456	@ 0x10000000
 80056da:	601a      	str	r2, [r3, #0]
 80056dc:	f3bf 8f4f 	dsb	sy
 80056e0:	f3bf 8f6f 	isb	sy
				else
				{
					mtCOVERAGE_TEST_MARKER();
				}

				taskEXIT_CRITICAL();
 80056e4:	f001 fef2 	bl	80074cc <vPortExitCritical>
				return pdPASS;
 80056e8:	2301      	movs	r3, #1
 80056ea:	e098      	b.n	800581e <xQueueSemaphoreTake+0x212>
			}
			else
			{
				if( xTicksToWait == ( TickType_t ) 0 )
 80056ec:	683b      	ldr	r3, [r7, #0]
 80056ee:	2b00      	cmp	r3, #0
 80056f0:	d112      	bne.n	8005718 <xQueueSemaphoreTake+0x10c>
					/* For inheritance to have occurred there must have been an
					initial timeout, and an adjusted timeout cannot become 0, as
					if it were 0 the function would have exited. */
					#if( configUSE_MUTEXES == 1 )
					{
						configASSERT( xInheritanceOccurred == pdFALSE );
 80056f2:	6b3b      	ldr	r3, [r7, #48]	@ 0x30
 80056f4:	2b00      	cmp	r3, #0
 80056f6:	d00b      	beq.n	8005710 <xQueueSemaphoreTake+0x104>
	__asm volatile
 80056f8:	f04f 0350 	mov.w	r3, #80	@ 0x50
 80056fc:	f383 8811 	msr	BASEPRI, r3
 8005700:	f3bf 8f6f 	isb	sy
 8005704:	f3bf 8f4f 	dsb	sy
 8005708:	617b      	str	r3, [r7, #20]
}
 800570a:	bf00      	nop
 800570c:	bf00      	nop
 800570e:	e7fd      	b.n	800570c <xQueueSemaphoreTake+0x100>
					}
					#endif /* configUSE_MUTEXES */

					/* The semaphore count was 0 and no block time is specified
					(or the block time has expired) so exit now. */
					taskEXIT_CRITICAL();
 8005710:	f001 fedc 	bl	80074cc <vPortExitCritical>
					traceQUEUE_RECEIVE_FAILED( pxQueue );
					return errQUEUE_EMPTY;
 8005714:	2300      	movs	r3, #0
 8005716:	e082      	b.n	800581e <xQueueSemaphoreTake+0x212>
				}
				else if( xEntryTimeSet == pdFALSE )
 8005718:	6b7b      	ldr	r3, [r7, #52]	@ 0x34
 800571a:	2b00      	cmp	r3, #0
 800571c:	d106      	bne.n	800572c <xQueueSemaphoreTake+0x120>
				{
					/* The semaphore count was 0 and a block time was specified
					so configure the timeout structure ready to block. */
					vTaskInternalSetTimeOutState( &xTimeOut );
 800571e:	f107 030c 	add.w	r3, r7, #12
 8005722:	4618      	mov	r0, r3
 8005724:	f000 fed6 	bl	80064d4 <vTaskInternalSetTimeOutState>
					xEntryTimeSet = pdTRUE;
 8005728:	2301      	movs	r3, #1
 800572a:	637b      	str	r3, [r7, #52]	@ 0x34
					/* Entry time was already set. */
					mtCOVERAGE_TEST_MARKER();
				}
			}
		}
		taskEXIT_CRITICAL();
 800572c:	f001 fece 	bl	80074cc <vPortExitCritical>

		/* Interrupts and other tasks can give to and take from the semaphore
		now the critical section has been exited. */

		vTaskSuspendAll();
 8005730:	f000 fc46 	bl	8005fc0 <vTaskSuspendAll>
		prvLockQueue( pxQueue );
 8005734:	f001 fe98 	bl	8007468 <vPortEnterCritical>
 8005738:	6afb      	ldr	r3, [r7, #44]	@ 0x2c
 800573a:	f893 3044 	ldrb.w	r3, [r3, #68]	@ 0x44
 800573e:	b25b      	sxtb	r3, r3
 8005740:	f1b3 3fff 	cmp.w	r3, #4294967295	@ 0xffffffff
 8005744:	d103      	bne.n	800574e <xQueueSemaphoreTake+0x142>
 8005746:	6afb      	ldr	r3, [r7, #44]	@ 0x2c
 8005748:	2200      	movs	r2, #0
 800574a:	f883 2044 	strb.w	r2, [r3, #68]	@ 0x44
 800574e:	6afb      	ldr	r3, [r7, #44]	@ 0x2c
 8005750:	f893 3045 	ldrb.w	r3, [r3, #69]	@ 0x45
 8005754:	b25b      	sxtb	r3, r3
 8005756:	f1b3 3fff 	cmp.w	r3, #4294967295	@ 0xffffffff
 800575a:	d103      	bne.n	8005764 <xQueueSemaphoreTake+0x158>
 800575c:	6afb      	ldr	r3, [r7, #44]	@ 0x2c
 800575e:	2200      	movs	r2, #0
 8005760:	f883 2045 	strb.w	r2, [r3, #69]	@ 0x45
 8005764:	f001 feb2 	bl	80074cc <vPortExitCritical>

		/* Update the timeout state to see if it has expired yet. */
		if( xTaskCheckForTimeOut( &xTimeOut, &xTicksToWait ) == pdFALSE )
 8005768:	463a      	mov	r2, r7
 800576a:	f107 030c 	add.w	r3, r7, #12
 800576e:	4611      	mov	r1, r2
 8005770:	4618      	mov	r0, r3
 8005772:	f000 fec5 	bl	8006500 <xTaskCheckForTimeOut>
 8005776:	4603      	mov	r3, r0
 8005778:	2b00      	cmp	r3, #0
 800577a:	d132      	bne.n	80057e2 <xQueueSemaphoreTake+0x1d6>
		{
			/* A block time is specified and not expired.  If the semaphore
			count is 0 then enter the Blocked state to wait for a semaphore to
			become available.  As semaphores are implemented with queues the
			queue being empty is equivalent to the semaphore count being 0. */
			if( prvIsQueueEmpty( pxQueue ) != pdFALSE )
 800577c:	6af8      	ldr	r0, [r7, #44]	@ 0x2c
 800577e:	f000 f94f 	bl	8005a20 <prvIsQueueEmpty>
 8005782:	4603      	mov	r3, r0
 8005784:	2b00      	cmp	r3, #0
 8005786:	d026      	beq.n	80057d6 <xQueueSemaphoreTake+0x1ca>
			{
				traceBLOCKING_ON_QUEUE_RECEIVE( pxQueue );

				#if ( configUSE_MUTEXES == 1 )
				{
					if( pxQueue->uxQueueType == queueQUEUE_IS_MUTEX )
 8005788:	6afb      	ldr	r3, [r7, #44]	@ 0x2c
 800578a:	681b      	ldr	r3, [r3, #0]
 800578c:	2b00      	cmp	r3, #0
 800578e:	d109      	bne.n	80057a4 <xQueueSemaphoreTake+0x198>
					{
						taskENTER_CRITICAL();
 8005790:	f001 fe6a 	bl	8007468 <vPortEnterCritical>
						{
							xInheritanceOccurred = xTaskPriorityInherit( pxQueue->u.xSemaphore.xMutexHolder );
 8005794:	6afb      	ldr	r3, [r7, #44]	@ 0x2c
 8005796:	689b      	ldr	r3, [r3, #8]
 8005798:	4618      	mov	r0, r3
 800579a:	f001 f815 	bl	80067c8 <xTaskPriorityInherit>
 800579e:	6338      	str	r0, [r7, #48]	@ 0x30
						}
						taskEXIT_CRITICAL();
 80057a0:	f001 fe94 	bl	80074cc <vPortExitCritical>
						mtCOVERAGE_TEST_MARKER();
					}
				}
				#endif

				vTaskPlaceOnEventList( &( pxQueue->xTasksWaitingToReceive ), xTicksToWait );
 80057a4:	6afb      	ldr	r3, [r7, #44]	@ 0x2c
 80057a6:	3324      	adds	r3, #36	@ 0x24
 80057a8:	683a      	ldr	r2, [r7, #0]
 80057aa:	4611      	mov	r1, r2
 80057ac:	4618      	mov	r0, r3
 80057ae:	f000 fddb 	bl	8006368 <vTaskPlaceOnEventList>
				prvUnlockQueue( pxQueue );
 80057b2:	6af8      	ldr	r0, [r7, #44]	@ 0x2c
 80057b4:	f000 f8e2 	bl	800597c <prvUnlockQueue>
				if( xTaskResumeAll() == pdFALSE )
 80057b8:	f000 fc10 	bl	8005fdc <xTaskResumeAll>
 80057bc:	4603      	mov	r3, r0
 80057be:	2b00      	cmp	r3, #0
 80057c0:	f47f af67 	bne.w	8005692 <xQueueSemaphoreTake+0x86>
				{
					portYIELD_WITHIN_API();
 80057c4:	4b18      	ldr	r3, [pc, #96]	@ (8005828 <xQueueSemaphoreTake+0x21c>)
 80057c6:	f04f 5280 	mov.w	r2, #268435456	@ 0x10000000
 80057ca:	601a      	str	r2, [r3, #0]
 80057cc:	f3bf 8f4f 	dsb	sy
 80057d0:	f3bf 8f6f 	isb	sy
 80057d4:	e75d      	b.n	8005692 <xQueueSemaphoreTake+0x86>
			}
			else
			{
				/* There was no timeout and the semaphore count was not 0, so
				attempt to take the semaphore again. */
				prvUnlockQueue( pxQueue );
 80057d6:	6af8      	ldr	r0, [r7, #44]	@ 0x2c
 80057d8:	f000 f8d0 	bl	800597c <prvUnlockQueue>
				( void ) xTaskResumeAll();
 80057dc:	f000 fbfe 	bl	8005fdc <xTaskResumeAll>
 80057e0:	e757      	b.n	8005692 <xQueueSemaphoreTake+0x86>
			}
		}
		else
		{
			/* Timed out. */
			prvUnlockQueue( pxQueue );
 80057e2:	6af8      	ldr	r0, [r7, #44]	@ 0x2c
 80057e4:	f000 f8ca 	bl	800597c <prvUnlockQueue>
			( void ) xTaskResumeAll();
 80057e8:	f000 fbf8 	bl	8005fdc <xTaskResumeAll>

			/* If the semaphore count is 0 exit now as the timeout has
			expired.  Otherwise return to attempt to take the semaphore that is
			known to be available.  As semaphores are implemented by queues the
			queue being empty is equivalent to the semaphore count being 0. */
			if( prvIsQueueEmpty( pxQueue ) != pdFALSE )
 80057ec:	6af8      	ldr	r0, [r7, #44]	@ 0x2c
 80057ee:	f000 f917 	bl	8005a20 <prvIsQueueEmpty>
 80057f2:	4603      	mov	r3, r0
 80057f4:	2b00      	cmp	r3, #0
 80057f6:	f43f af4c 	beq.w	8005692 <xQueueSemaphoreTake+0x86>
				#if ( configUSE_MUTEXES == 1 )
				{
					/* xInheritanceOccurred could only have be set if
					pxQueue->uxQueueType == queueQUEUE_IS_MUTEX so no need to
					test the mutex type again to check it is actually a mutex. */
					if( xInheritanceOccurred != pdFALSE )
 80057fa:	6b3b      	ldr	r3, [r7, #48]	@ 0x30
 80057fc:	2b00      	cmp	r3, #0
 80057fe:	d00d      	beq.n	800581c <xQueueSemaphoreTake+0x210>
					{
						taskENTER_CRITICAL();
 8005800:	f001 fe32 	bl	8007468 <vPortEnterCritical>
							/* This task blocking on the mutex caused another
							task to inherit this task's priority.  Now this task
							has timed out the priority should be disinherited
							again, but only as low as the next highest priority
							task that is waiting for the same mutex. */
							uxHighestWaitingPriority = prvGetDisinheritPriorityAfterTimeout( pxQueue );
 8005804:	6af8      	ldr	r0, [r7, #44]	@ 0x2c
 8005806:	f000 f811 	bl	800582c <prvGetDisinheritPriorityAfterTimeout>
 800580a:	6278      	str	r0, [r7, #36]	@ 0x24
							vTaskPriorityDisinheritAfterTimeout( pxQueue->u.xSemaphore.xMutexHolder, uxHighestWaitingPriority );
 800580c:	6afb      	ldr	r3, [r7, #44]	@ 0x2c
 800580e:	689b      	ldr	r3, [r3, #8]
 8005810:	6a79      	ldr	r1, [r7, #36]	@ 0x24
 8005812:	4618      	mov	r0, r3
 8005814:	f001 f8b0 	bl	8006978 <vTaskPriorityDisinheritAfterTimeout>
						}
						taskEXIT_CRITICAL();
 8005818:	f001 fe58 	bl	80074cc <vPortExitCritical>
					}
				}
				#endif /* configUSE_MUTEXES */

				traceQUEUE_RECEIVE_FAILED( pxQueue );
				return errQUEUE_EMPTY;
 800581c:	2300      	movs	r3, #0
			{
				mtCOVERAGE_TEST_MARKER();
			}
		}
	} /*lint -restore */
}
 800581e:	4618      	mov	r0, r3
 8005820:	3738      	adds	r7, #56	@ 0x38
 8005822:	46bd      	mov	sp, r7
 8005824:	bd80      	pop	{r7, pc}
 8005826:	bf00      	nop
 8005828:	e000ed04 	.word	0xe000ed04

0800582c <prvGetDisinheritPriorityAfterTimeout>:
/*-----------------------------------------------------------*/

#if( configUSE_MUTEXES == 1 )

	static UBaseType_t prvGetDisinheritPriorityAfterTimeout( const Queue_t * const pxQueue )
	{
 800582c:	b480      	push	{r7}
 800582e:	b085      	sub	sp, #20
 8005830:	af00      	add	r7, sp, #0
 8005832:	6078      	str	r0, [r7, #4]
		priority, but the waiting task times out, then the holder should
		disinherit the priority - but only down to the highest priority of any
		other tasks that are waiting for the same mutex.  For this purpose,
		return the priority of the highest priority task that is waiting for the
		mutex. */
		if( listCURRENT_LIST_LENGTH( &( pxQueue->xTasksWaitingToReceive ) ) > 0U )
 8005834:	687b      	ldr	r3, [r7, #4]
 8005836:	6a5b      	ldr	r3, [r3, #36]	@ 0x24
 8005838:	2b00      	cmp	r3, #0
 800583a:	d006      	beq.n	800584a <prvGetDisinheritPriorityAfterTimeout+0x1e>
		{
			uxHighestPriorityOfWaitingTasks = ( UBaseType_t ) configMAX_PRIORITIES - ( UBaseType_t ) listGET_ITEM_VALUE_OF_HEAD_ENTRY( &( pxQueue->xTasksWaitingToReceive ) );
 800583c:	687b      	ldr	r3, [r7, #4]
 800583e:	6b1b      	ldr	r3, [r3, #48]	@ 0x30
 8005840:	681b      	ldr	r3, [r3, #0]
 8005842:	f1c3 0338 	rsb	r3, r3, #56	@ 0x38
 8005846:	60fb      	str	r3, [r7, #12]
 8005848:	e001      	b.n	800584e <prvGetDisinheritPriorityAfterTimeout+0x22>
		}
		else
		{
			uxHighestPriorityOfWaitingTasks = tskIDLE_PRIORITY;
 800584a:	2300      	movs	r3, #0
 800584c:	60fb      	str	r3, [r7, #12]
		}

		return uxHighestPriorityOfWaitingTasks;
 800584e:	68fb      	ldr	r3, [r7, #12]
	}
 8005850:	4618      	mov	r0, r3
 8005852:	3714      	adds	r7, #20
 8005854:	46bd      	mov	sp, r7
 8005856:	f85d 7b04 	ldr.w	r7, [sp], #4
 800585a:	4770      	bx	lr

0800585c <prvCopyDataToQueue>:

#endif /* configUSE_MUTEXES */
/*-----------------------------------------------------------*/

static BaseType_t prvCopyDataToQueue( Queue_t * const pxQueue, const void *pvItemToQueue, const BaseType_t xPosition )
{
 800585c:	b580      	push	{r7, lr}
 800585e:	b086      	sub	sp, #24
 8005860:	af00      	add	r7, sp, #0
 8005862:	60f8      	str	r0, [r7, #12]
 8005864:	60b9      	str	r1, [r7, #8]
 8005866:	607a      	str	r2, [r7, #4]
BaseType_t xReturn = pdFALSE;
 8005868:	2300      	movs	r3, #0
 800586a:	617b      	str	r3, [r7, #20]
UBaseType_t uxMessagesWaiting;

	/* This function is called from a critical section. */

	uxMessagesWaiting = pxQueue->uxMessagesWaiting;
 800586c:	68fb      	ldr	r3, [r7, #12]
 800586e:	6b9b      	ldr	r3, [r3, #56]	@ 0x38
 8005870:	613b      	str	r3, [r7, #16]

	if( pxQueue->uxItemSize == ( UBaseType_t ) 0 )
 8005872:	68fb      	ldr	r3, [r7, #12]
 8005874:	6c1b      	ldr	r3, [r3, #64]	@ 0x40
 8005876:	2b00      	cmp	r3, #0
 8005878:	d10d      	bne.n	8005896 <prvCopyDataToQueue+0x3a>
	{
		#if ( configUSE_MUTEXES == 1 )
		{
			if( pxQueue->uxQueueType == queueQUEUE_IS_MUTEX )
 800587a:	68fb      	ldr	r3, [r7, #12]
 800587c:	681b      	ldr	r3, [r3, #0]
 800587e:	2b00      	cmp	r3, #0
 8005880:	d14d      	bne.n	800591e <prvCopyDataToQueue+0xc2>
			{
				/* The mutex is no longer being held. */
				xReturn = xTaskPriorityDisinherit( pxQueue->u.xSemaphore.xMutexHolder );
 8005882:	68fb      	ldr	r3, [r7, #12]
 8005884:	689b      	ldr	r3, [r3, #8]
 8005886:	4618      	mov	r0, r3
 8005888:	f001 f806 	bl	8006898 <xTaskPriorityDisinherit>
 800588c:	6178      	str	r0, [r7, #20]
				pxQueue->u.xSemaphore.xMutexHolder = NULL;
 800588e:	68fb      	ldr	r3, [r7, #12]
 8005890:	2200      	movs	r2, #0
 8005892:	609a      	str	r2, [r3, #8]
 8005894:	e043      	b.n	800591e <prvCopyDataToQueue+0xc2>
				mtCOVERAGE_TEST_MARKER();
			}
		}
		#endif /* configUSE_MUTEXES */
	}
	else if( xPosition == queueSEND_TO_BACK )
 8005896:	687b      	ldr	r3, [r7, #4]
 8005898:	2b00      	cmp	r3, #0
 800589a:	d119      	bne.n	80058d0 <prvCopyDataToQueue+0x74>
	{
		( void ) memcpy( ( void * ) pxQueue->pcWriteTo, pvItemToQueue, ( size_t ) pxQueue->uxItemSize ); /*lint !e961 !e418 !e9087 MISRA exception as the casts are only redundant for some ports, plus previous logic ensures a null pointer can only be passed to memcpy() if the copy size is 0.  Cast to void required by function signature and safe as no alignment requirement and copy length specified in bytes. */
 800589c:	68fb      	ldr	r3, [r7, #12]
 800589e:	6858      	ldr	r0, [r3, #4]
 80058a0:	68fb      	ldr	r3, [r7, #12]
 80058a2:	6c1b      	ldr	r3, [r3, #64]	@ 0x40
 80058a4:	461a      	mov	r2, r3
 80058a6:	68b9      	ldr	r1, [r7, #8]
 80058a8:	f003 fcd4 	bl	8009254 <memcpy>
		pxQueue->pcWriteTo += pxQueue->uxItemSize; /*lint !e9016 Pointer arithmetic on char types ok, especially in this use case where it is the clearest way of conveying intent. */
 80058ac:	68fb      	ldr	r3, [r7, #12]
 80058ae:	685a      	ldr	r2, [r3, #4]
 80058b0:	68fb      	ldr	r3, [r7, #12]
 80058b2:	6c1b      	ldr	r3, [r3, #64]	@ 0x40
 80058b4:	441a      	add	r2, r3
 80058b6:	68fb      	ldr	r3, [r7, #12]
 80058b8:	605a      	str	r2, [r3, #4]
		if( pxQueue->pcWriteTo >= pxQueue->u.xQueue.pcTail ) /*lint !e946 MISRA exception justified as comparison of pointers is the cleanest solution. */
 80058ba:	68fb      	ldr	r3, [r7, #12]
 80058bc:	685a      	ldr	r2, [r3, #4]
 80058be:	68fb      	ldr	r3, [r7, #12]
 80058c0:	689b      	ldr	r3, [r3, #8]
 80058c2:	429a      	cmp	r2, r3
 80058c4:	d32b      	bcc.n	800591e <prvCopyDataToQueue+0xc2>
		{
			pxQueue->pcWriteTo = pxQueue->pcHead;
 80058c6:	68fb      	ldr	r3, [r7, #12]
 80058c8:	681a      	ldr	r2, [r3, #0]
 80058ca:	68fb      	ldr	r3, [r7, #12]
 80058cc:	605a      	str	r2, [r3, #4]
 80058ce:	e026      	b.n	800591e <prvCopyDataToQueue+0xc2>
			mtCOVERAGE_TEST_MARKER();
		}
	}
	else
	{
		( void ) memcpy( ( void * ) pxQueue->u.xQueue.pcReadFrom, pvItemToQueue, ( size_t ) pxQueue->uxItemSize ); /*lint !e961 !e9087 !e418 MISRA exception as the casts are only redundant for some ports.  Cast to void required by function signature and safe as no alignment requirement and copy length specified in bytes.  Assert checks null pointer only used when length is 0. */
 80058d0:	68fb      	ldr	r3, [r7, #12]
 80058d2:	68d8      	ldr	r0, [r3, #12]
 80058d4:	68fb      	ldr	r3, [r7, #12]
 80058d6:	6c1b      	ldr	r3, [r3, #64]	@ 0x40
 80058d8:	461a      	mov	r2, r3
 80058da:	68b9      	ldr	r1, [r7, #8]
 80058dc:	f003 fcba 	bl	8009254 <memcpy>
		pxQueue->u.xQueue.pcReadFrom -= pxQueue->uxItemSize;
 80058e0:	68fb      	ldr	r3, [r7, #12]
 80058e2:	68da      	ldr	r2, [r3, #12]
 80058e4:	68fb      	ldr	r3, [r7, #12]
 80058e6:	6c1b      	ldr	r3, [r3, #64]	@ 0x40
 80058e8:	425b      	negs	r3, r3
 80058ea:	441a      	add	r2, r3
 80058ec:	68fb      	ldr	r3, [r7, #12]
 80058ee:	60da      	str	r2, [r3, #12]
		if( pxQueue->u.xQueue.pcReadFrom < pxQueue->pcHead ) /*lint !e946 MISRA exception justified as comparison of pointers is the cleanest solution. */
 80058f0:	68fb      	ldr	r3, [r7, #12]
 80058f2:	68da      	ldr	r2, [r3, #12]
 80058f4:	68fb      	ldr	r3, [r7, #12]
 80058f6:	681b      	ldr	r3, [r3, #0]
 80058f8:	429a      	cmp	r2, r3
 80058fa:	d207      	bcs.n	800590c <prvCopyDataToQueue+0xb0>
		{
			pxQueue->u.xQueue.pcReadFrom = ( pxQueue->u.xQueue.pcTail - pxQueue->uxItemSize );
 80058fc:	68fb      	ldr	r3, [r7, #12]
 80058fe:	689a      	ldr	r2, [r3, #8]
 8005900:	68fb      	ldr	r3, [r7, #12]
 8005902:	6c1b      	ldr	r3, [r3, #64]	@ 0x40
 8005904:	425b      	negs	r3, r3
 8005906:	441a      	add	r2, r3
 8005908:	68fb      	ldr	r3, [r7, #12]
 800590a:	60da      	str	r2, [r3, #12]
		else
		{
			mtCOVERAGE_TEST_MARKER();
		}

		if( xPosition == queueOVERWRITE )
 800590c:	687b      	ldr	r3, [r7, #4]
 800590e:	2b02      	cmp	r3, #2
 8005910:	d105      	bne.n	800591e <prvCopyDataToQueue+0xc2>
		{
			if( uxMessagesWaiting > ( UBaseType_t ) 0 )
 8005912:	693b      	ldr	r3, [r7, #16]
 8005914:	2b00      	cmp	r3, #0
 8005916:	d002      	beq.n	800591e <prvCopyDataToQueue+0xc2>
			{
				/* An item is not being added but overwritten, so subtract
				one from the recorded number of items in the queue so when
				one is added again below the number of recorded items remains
				correct. */
				--uxMessagesWaiting;
 8005918:	693b      	ldr	r3, [r7, #16]
 800591a:	3b01      	subs	r3, #1
 800591c:	613b      	str	r3, [r7, #16]
		{
			mtCOVERAGE_TEST_MARKER();
		}
	}

	pxQueue->uxMessagesWaiting = uxMessagesWaiting + ( UBaseType_t ) 1;
 800591e:	693b      	ldr	r3, [r7, #16]
 8005920:	1c5a      	adds	r2, r3, #1
 8005922:	68fb      	ldr	r3, [r7, #12]
 8005924:	639a      	str	r2, [r3, #56]	@ 0x38

	return xReturn;
 8005926:	697b      	ldr	r3, [r7, #20]
}
 8005928:	4618      	mov	r0, r3
 800592a:	3718      	adds	r7, #24
 800592c:	46bd      	mov	sp, r7
 800592e:	bd80      	pop	{r7, pc}

08005930 <prvCopyDataFromQueue>:
/*-----------------------------------------------------------*/

static void prvCopyDataFromQueue( Queue_t * const pxQueue, void * const pvBuffer )
{
 8005930:	b580      	push	{r7, lr}
 8005932:	b082      	sub	sp, #8
 8005934:	af00      	add	r7, sp, #0
 8005936:	6078      	str	r0, [r7, #4]
 8005938:	6039      	str	r1, [r7, #0]
	if( pxQueue->uxItemSize != ( UBaseType_t ) 0 )
 800593a:	687b      	ldr	r3, [r7, #4]
 800593c:	6c1b      	ldr	r3, [r3, #64]	@ 0x40
 800593e:	2b00      	cmp	r3, #0
 8005940:	d018      	beq.n	8005974 <prvCopyDataFromQueue+0x44>
	{
		pxQueue->u.xQueue.pcReadFrom += pxQueue->uxItemSize; /*lint !e9016 Pointer arithmetic on char types ok, especially in this use case where it is the clearest way of conveying intent. */
 8005942:	687b      	ldr	r3, [r7, #4]
 8005944:	68da      	ldr	r2, [r3, #12]
 8005946:	687b      	ldr	r3, [r7, #4]
 8005948:	6c1b      	ldr	r3, [r3, #64]	@ 0x40
 800594a:	441a      	add	r2, r3
 800594c:	687b      	ldr	r3, [r7, #4]
 800594e:	60da      	str	r2, [r3, #12]
		if( pxQueue->u.xQueue.pcReadFrom >= pxQueue->u.xQueue.pcTail ) /*lint !e946 MISRA exception justified as use of the relational operator is the cleanest solutions. */
 8005950:	687b      	ldr	r3, [r7, #4]
 8005952:	68da      	ldr	r2, [r3, #12]
 8005954:	687b      	ldr	r3, [r7, #4]
 8005956:	689b      	ldr	r3, [r3, #8]
 8005958:	429a      	cmp	r2, r3
 800595a:	d303      	bcc.n	8005964 <prvCopyDataFromQueue+0x34>
		{
			pxQueue->u.xQueue.pcReadFrom = pxQueue->pcHead;
 800595c:	687b      	ldr	r3, [r7, #4]
 800595e:	681a      	ldr	r2, [r3, #0]
 8005960:	687b      	ldr	r3, [r7, #4]
 8005962:	60da      	str	r2, [r3, #12]
		}
		else
		{
			mtCOVERAGE_TEST_MARKER();
		}
		( void ) memcpy( ( void * ) pvBuffer, ( void * ) pxQueue->u.xQueue.pcReadFrom, ( size_t ) pxQueue->uxItemSize ); /*lint !e961 !e418 !e9087 MISRA exception as the casts are only redundant for some ports.  Also previous logic ensures a null pointer can only be passed to memcpy() when the count is 0.  Cast to void required by function signature and safe as no alignment requirement and copy length specified in bytes. */
 8005964:	687b      	ldr	r3, [r7, #4]
 8005966:	68d9      	ldr	r1, [r3, #12]
 8005968:	687b      	ldr	r3, [r7, #4]
 800596a:	6c1b      	ldr	r3, [r3, #64]	@ 0x40
 800596c:	461a      	mov	r2, r3
 800596e:	6838      	ldr	r0, [r7, #0]
 8005970:	f003 fc70 	bl	8009254 <memcpy>
	}
}
 8005974:	bf00      	nop
 8005976:	3708      	adds	r7, #8
 8005978:	46bd      	mov	sp, r7
 800597a:	bd80      	pop	{r7, pc}

0800597c <prvUnlockQueue>:
/*-----------------------------------------------------------*/

static void prvUnlockQueue( Queue_t * const pxQueue )
{
 800597c:	b580      	push	{r7, lr}
 800597e:	b084      	sub	sp, #16
 8005980:	af00      	add	r7, sp, #0
 8005982:	6078      	str	r0, [r7, #4]

	/* The lock counts contains the number of extra data items placed or
	removed from the queue while the queue was locked.  When a queue is
	locked items can be added or removed, but the event lists cannot be
	updated. */
	taskENTER_CRITICAL();
 8005984:	f001 fd70 	bl	8007468 <vPortEnterCritical>
	{
		int8_t cTxLock = pxQueue->cTxLock;
 8005988:	687b      	ldr	r3, [r7, #4]
 800598a:	f893 3045 	ldrb.w	r3, [r3, #69]	@ 0x45
 800598e:	73fb      	strb	r3, [r7, #15]

		/* See if data was added to the queue while it was locked. */
		while( cTxLock > queueLOCKED_UNMODIFIED )
 8005990:	e011      	b.n	80059b6 <prvUnlockQueue+0x3a>
			}
			#else /* configUSE_QUEUE_SETS */
			{
				/* Tasks that are removed from the event list will get added to
				the pending ready list as the scheduler is still suspended. */
				if( listLIST_IS_EMPTY( &( pxQueue->xTasksWaitingToReceive ) ) == pdFALSE )
 8005992:	687b      	ldr	r3, [r7, #4]
 8005994:	6a5b      	ldr	r3, [r3, #36]	@ 0x24
 8005996:	2b00      	cmp	r3, #0
 8005998:	d012      	beq.n	80059c0 <prvUnlockQueue+0x44>
				{
					if( xTaskRemoveFromEventList( &( pxQueue->xTasksWaitingToReceive ) ) != pdFALSE )
 800599a:	687b      	ldr	r3, [r7, #4]
 800599c:	3324      	adds	r3, #36	@ 0x24
 800599e:	4618      	mov	r0, r3
 80059a0:	f000 fd34 	bl	800640c <xTaskRemoveFromEventList>
 80059a4:	4603      	mov	r3, r0
 80059a6:	2b00      	cmp	r3, #0
 80059a8:	d001      	beq.n	80059ae <prvUnlockQueue+0x32>
					{
						/* The task waiting has a higher priority so record that
						a context switch is required. */
						vTaskMissedYield();
 80059aa:	f000 fe0d 	bl	80065c8 <vTaskMissedYield>
					break;
				}
			}
			#endif /* configUSE_QUEUE_SETS */

			--cTxLock;
 80059ae:	7bfb      	ldrb	r3, [r7, #15]
 80059b0:	3b01      	subs	r3, #1
 80059b2:	b2db      	uxtb	r3, r3
 80059b4:	73fb      	strb	r3, [r7, #15]
		while( cTxLock > queueLOCKED_UNMODIFIED )
 80059b6:	f997 300f 	ldrsb.w	r3, [r7, #15]
 80059ba:	2b00      	cmp	r3, #0
 80059bc:	dce9      	bgt.n	8005992 <prvUnlockQueue+0x16>
 80059be:	e000      	b.n	80059c2 <prvUnlockQueue+0x46>
					break;
 80059c0:	bf00      	nop
		}

		pxQueue->cTxLock = queueUNLOCKED;
 80059c2:	687b      	ldr	r3, [r7, #4]
 80059c4:	22ff      	movs	r2, #255	@ 0xff
 80059c6:	f883 2045 	strb.w	r2, [r3, #69]	@ 0x45
	}
	taskEXIT_CRITICAL();
 80059ca:	f001 fd7f 	bl	80074cc <vPortExitCritical>

	/* Do the same for the Rx lock. */
	taskENTER_CRITICAL();
 80059ce:	f001 fd4b 	bl	8007468 <vPortEnterCritical>
	{
		int8_t cRxLock = pxQueue->cRxLock;
 80059d2:	687b      	ldr	r3, [r7, #4]
 80059d4:	f893 3044 	ldrb.w	r3, [r3, #68]	@ 0x44
 80059d8:	73bb      	strb	r3, [r7, #14]

		while( cRxLock > queueLOCKED_UNMODIFIED )
 80059da:	e011      	b.n	8005a00 <prvUnlockQueue+0x84>
		{
			if( listLIST_IS_EMPTY( &( pxQueue->xTasksWaitingToSend ) ) == pdFALSE )
 80059dc:	687b      	ldr	r3, [r7, #4]
 80059de:	691b      	ldr	r3, [r3, #16]
 80059e0:	2b00      	cmp	r3, #0
 80059e2:	d012      	beq.n	8005a0a <prvUnlockQueue+0x8e>
			{
				if( xTaskRemoveFromEventList( &( pxQueue->xTasksWaitingToSend ) ) != pdFALSE )
 80059e4:	687b      	ldr	r3, [r7, #4]
 80059e6:	3310      	adds	r3, #16
 80059e8:	4618      	mov	r0, r3
 80059ea:	f000 fd0f 	bl	800640c <xTaskRemoveFromEventList>
 80059ee:	4603      	mov	r3, r0
 80059f0:	2b00      	cmp	r3, #0
 80059f2:	d001      	beq.n	80059f8 <prvUnlockQueue+0x7c>
				{
					vTaskMissedYield();
 80059f4:	f000 fde8 	bl	80065c8 <vTaskMissedYield>
				else
				{
					mtCOVERAGE_TEST_MARKER();
				}

				--cRxLock;
 80059f8:	7bbb      	ldrb	r3, [r7, #14]
 80059fa:	3b01      	subs	r3, #1
 80059fc:	b2db      	uxtb	r3, r3
 80059fe:	73bb      	strb	r3, [r7, #14]
		while( cRxLock > queueLOCKED_UNMODIFIED )
 8005a00:	f997 300e 	ldrsb.w	r3, [r7, #14]
 8005a04:	2b00      	cmp	r3, #0
 8005a06:	dce9      	bgt.n	80059dc <prvUnlockQueue+0x60>
 8005a08:	e000      	b.n	8005a0c <prvUnlockQueue+0x90>
			}
			else
			{
				break;
 8005a0a:	bf00      	nop
			}
		}

		pxQueue->cRxLock = queueUNLOCKED;
 8005a0c:	687b      	ldr	r3, [r7, #4]
 8005a0e:	22ff      	movs	r2, #255	@ 0xff
 8005a10:	f883 2044 	strb.w	r2, [r3, #68]	@ 0x44
	}
	taskEXIT_CRITICAL();
 8005a14:	f001 fd5a 	bl	80074cc <vPortExitCritical>
}
 8005a18:	bf00      	nop
 8005a1a:	3710      	adds	r7, #16
 8005a1c:	46bd      	mov	sp, r7
 8005a1e:	bd80      	pop	{r7, pc}

08005a20 <prvIsQueueEmpty>:
/*-----------------------------------------------------------*/

static BaseType_t prvIsQueueEmpty( const Queue_t *pxQueue )
{
 8005a20:	b580      	push	{r7, lr}
 8005a22:	b084      	sub	sp, #16
 8005a24:	af00      	add	r7, sp, #0
 8005a26:	6078      	str	r0, [r7, #4]
BaseType_t xReturn;

	taskENTER_CRITICAL();
 8005a28:	f001 fd1e 	bl	8007468 <vPortEnterCritical>
	{
		if( pxQueue->uxMessagesWaiting == ( UBaseType_t )  0 )
 8005a2c:	687b      	ldr	r3, [r7, #4]
 8005a2e:	6b9b      	ldr	r3, [r3, #56]	@ 0x38
 8005a30:	2b00      	cmp	r3, #0
 8005a32:	d102      	bne.n	8005a3a <prvIsQueueEmpty+0x1a>
		{
			xReturn = pdTRUE;
 8005a34:	2301      	movs	r3, #1
 8005a36:	60fb      	str	r3, [r7, #12]
 8005a38:	e001      	b.n	8005a3e <prvIsQueueEmpty+0x1e>
		}
		else
		{
			xReturn = pdFALSE;
 8005a3a:	2300      	movs	r3, #0
 8005a3c:	60fb      	str	r3, [r7, #12]
		}
	}
	taskEXIT_CRITICAL();
 8005a3e:	f001 fd45 	bl	80074cc <vPortExitCritical>

	return xReturn;
 8005a42:	68fb      	ldr	r3, [r7, #12]
}
 8005a44:	4618      	mov	r0, r3
 8005a46:	3710      	adds	r7, #16
 8005a48:	46bd      	mov	sp, r7
 8005a4a:	bd80      	pop	{r7, pc}

08005a4c <prvIsQueueFull>:
	return xReturn;
} /*lint !e818 xQueue could not be pointer to const because it is a typedef. */
/*-----------------------------------------------------------*/

static BaseType_t prvIsQueueFull( const Queue_t *pxQueue )
{
 8005a4c:	b580      	push	{r7, lr}
 8005a4e:	b084      	sub	sp, #16
 8005a50:	af00      	add	r7, sp, #0
 8005a52:	6078      	str	r0, [r7, #4]
BaseType_t xReturn;

	taskENTER_CRITICAL();
 8005a54:	f001 fd08 	bl	8007468 <vPortEnterCritical>
	{
		if( pxQueue->uxMessagesWaiting == pxQueue->uxLength )
 8005a58:	687b      	ldr	r3, [r7, #4]
 8005a5a:	6b9a      	ldr	r2, [r3, #56]	@ 0x38
 8005a5c:	687b      	ldr	r3, [r7, #4]
 8005a5e:	6bdb      	ldr	r3, [r3, #60]	@ 0x3c
 8005a60:	429a      	cmp	r2, r3
 8005a62:	d102      	bne.n	8005a6a <prvIsQueueFull+0x1e>
		{
			xReturn = pdTRUE;
 8005a64:	2301      	movs	r3, #1
 8005a66:	60fb      	str	r3, [r7, #12]
 8005a68:	e001      	b.n	8005a6e <prvIsQueueFull+0x22>
		}
		else
		{
			xReturn = pdFALSE;
 8005a6a:	2300      	movs	r3, #0
 8005a6c:	60fb      	str	r3, [r7, #12]
		}
	}
	taskEXIT_CRITICAL();
 8005a6e:	f001 fd2d 	bl	80074cc <vPortExitCritical>

	return xReturn;
 8005a72:	68fb      	ldr	r3, [r7, #12]
}
 8005a74:	4618      	mov	r0, r3
 8005a76:	3710      	adds	r7, #16
 8005a78:	46bd      	mov	sp, r7
 8005a7a:	bd80      	pop	{r7, pc}

08005a7c <vQueueAddToRegistry>:
/*-----------------------------------------------------------*/

#if ( configQUEUE_REGISTRY_SIZE > 0 )

	void vQueueAddToRegistry( QueueHandle_t xQueue, const char *pcQueueName ) /*lint !e971 Unqualified char types are allowed for strings and single characters only. */
	{
 8005a7c:	b480      	push	{r7}
 8005a7e:	b085      	sub	sp, #20
 8005a80:	af00      	add	r7, sp, #0
 8005a82:	6078      	str	r0, [r7, #4]
 8005a84:	6039      	str	r1, [r7, #0]
	UBaseType_t ux;

		/* See if there is an empty space in the registry.  A NULL name denotes
		a free slot. */
		for( ux = ( UBaseType_t ) 0U; ux < ( UBaseType_t ) configQUEUE_REGISTRY_SIZE; ux++ )
 8005a86:	2300      	movs	r3, #0
 8005a88:	60fb      	str	r3, [r7, #12]
 8005a8a:	e014      	b.n	8005ab6 <vQueueAddToRegistry+0x3a>
		{
			if( xQueueRegistry[ ux ].pcQueueName == NULL )
 8005a8c:	4a0f      	ldr	r2, [pc, #60]	@ (8005acc <vQueueAddToRegistry+0x50>)
 8005a8e:	68fb      	ldr	r3, [r7, #12]
 8005a90:	f852 3033 	ldr.w	r3, [r2, r3, lsl #3]
 8005a94:	2b00      	cmp	r3, #0
 8005a96:	d10b      	bne.n	8005ab0 <vQueueAddToRegistry+0x34>
			{
				/* Store the information on this queue. */
				xQueueRegistry[ ux ].pcQueueName = pcQueueName;
 8005a98:	490c      	ldr	r1, [pc, #48]	@ (8005acc <vQueueAddToRegistry+0x50>)
 8005a9a:	68fb      	ldr	r3, [r7, #12]
 8005a9c:	683a      	ldr	r2, [r7, #0]
 8005a9e:	f841 2033 	str.w	r2, [r1, r3, lsl #3]
				xQueueRegistry[ ux ].xHandle = xQueue;
 8005aa2:	4a0a      	ldr	r2, [pc, #40]	@ (8005acc <vQueueAddToRegistry+0x50>)
 8005aa4:	68fb      	ldr	r3, [r7, #12]
 8005aa6:	00db      	lsls	r3, r3, #3
 8005aa8:	4413      	add	r3, r2
 8005aaa:	687a      	ldr	r2, [r7, #4]
 8005aac:	605a      	str	r2, [r3, #4]

				traceQUEUE_REGISTRY_ADD( xQueue, pcQueueName );
				break;
 8005aae:	e006      	b.n	8005abe <vQueueAddToRegistry+0x42>
		for( ux = ( UBaseType_t ) 0U; ux < ( UBaseType_t ) configQUEUE_REGISTRY_SIZE; ux++ )
 8005ab0:	68fb      	ldr	r3, [r7, #12]
 8005ab2:	3301      	adds	r3, #1
 8005ab4:	60fb      	str	r3, [r7, #12]
 8005ab6:	68fb      	ldr	r3, [r7, #12]
 8005ab8:	2b07      	cmp	r3, #7
 8005aba:	d9e7      	bls.n	8005a8c <vQueueAddToRegistry+0x10>
			else
			{
				mtCOVERAGE_TEST_MARKER();
			}
		}
	}
 8005abc:	bf00      	nop
 8005abe:	bf00      	nop
 8005ac0:	3714      	adds	r7, #20
 8005ac2:	46bd      	mov	sp, r7
 8005ac4:	f85d 7b04 	ldr.w	r7, [sp], #4
 8005ac8:	4770      	bx	lr
 8005aca:	bf00      	nop
 8005acc:	20000f64 	.word	0x20000f64

08005ad0 <vQueueWaitForMessageRestricted>:
/*-----------------------------------------------------------*/

#if ( configUSE_TIMERS == 1 )

	void vQueueWaitForMessageRestricted( QueueHandle_t xQueue, TickType_t xTicksToWait, const BaseType_t xWaitIndefinitely )
	{
 8005ad0:	b580      	push	{r7, lr}
 8005ad2:	b086      	sub	sp, #24
 8005ad4:	af00      	add	r7, sp, #0
 8005ad6:	60f8      	str	r0, [r7, #12]
 8005ad8:	60b9      	str	r1, [r7, #8]
 8005ada:	607a      	str	r2, [r7, #4]
	Queue_t * const pxQueue = xQueue;
 8005adc:	68fb      	ldr	r3, [r7, #12]
 8005ade:	617b      	str	r3, [r7, #20]
		will not actually cause the task to block, just place it on a blocked
		list.  It will not block until the scheduler is unlocked - at which
		time a yield will be performed.  If an item is added to the queue while
		the queue is locked, and the calling task blocks on the queue, then the
		calling task will be immediately unblocked when the queue is unlocked. */
		prvLockQueue( pxQueue );
 8005ae0:	f001 fcc2 	bl	8007468 <vPortEnterCritical>
 8005ae4:	697b      	ldr	r3, [r7, #20]
 8005ae6:	f893 3044 	ldrb.w	r3, [r3, #68]	@ 0x44
 8005aea:	b25b      	sxtb	r3, r3
 8005aec:	f1b3 3fff 	cmp.w	r3, #4294967295	@ 0xffffffff
 8005af0:	d103      	bne.n	8005afa <vQueueWaitForMessageRestricted+0x2a>
 8005af2:	697b      	ldr	r3, [r7, #20]
 8005af4:	2200      	movs	r2, #0
 8005af6:	f883 2044 	strb.w	r2, [r3, #68]	@ 0x44
 8005afa:	697b      	ldr	r3, [r7, #20]
 8005afc:	f893 3045 	ldrb.w	r3, [r3, #69]	@ 0x45
 8005b00:	b25b      	sxtb	r3, r3
 8005b02:	f1b3 3fff 	cmp.w	r3, #4294967295	@ 0xffffffff
 8005b06:	d103      	bne.n	8005b10 <vQueueWaitForMessageRestricted+0x40>
 8005b08:	697b      	ldr	r3, [r7, #20]
 8005b0a:	2200      	movs	r2, #0
 8005b0c:	f883 2045 	strb.w	r2, [r3, #69]	@ 0x45
 8005b10:	f001 fcdc 	bl	80074cc <vPortExitCritical>
		if( pxQueue->uxMessagesWaiting == ( UBaseType_t ) 0U )
 8005b14:	697b      	ldr	r3, [r7, #20]
 8005b16:	6b9b      	ldr	r3, [r3, #56]	@ 0x38
 8005b18:	2b00      	cmp	r3, #0
 8005b1a:	d106      	bne.n	8005b2a <vQueueWaitForMessageRestricted+0x5a>
		{
			/* There is nothing in the queue, block for the specified period. */
			vTaskPlaceOnEventListRestricted( &( pxQueue->xTasksWaitingToReceive ), xTicksToWait, xWaitIndefinitely );
 8005b1c:	697b      	ldr	r3, [r7, #20]
 8005b1e:	3324      	adds	r3, #36	@ 0x24
 8005b20:	687a      	ldr	r2, [r7, #4]
 8005b22:	68b9      	ldr	r1, [r7, #8]
 8005b24:	4618      	mov	r0, r3
 8005b26:	f000 fc45 	bl	80063b4 <vTaskPlaceOnEventListRestricted>
		}
		else
		{
			mtCOVERAGE_TEST_MARKER();
		}
		prvUnlockQueue( pxQueue );
 8005b2a:	6978      	ldr	r0, [r7, #20]
 8005b2c:	f7ff ff26 	bl	800597c <prvUnlockQueue>
	}
 8005b30:	bf00      	nop
 8005b32:	3718      	adds	r7, #24
 8005b34:	46bd      	mov	sp, r7
 8005b36:	bd80      	pop	{r7, pc}

08005b38 <xTaskCreateStatic>:
									const uint32_t ulStackDepth,
									void * const pvParameters,
									UBaseType_t uxPriority,
									StackType_t * const puxStackBuffer,
									StaticTask_t * const pxTaskBuffer )
	{
 8005b38:	b580      	push	{r7, lr}
 8005b3a:	b08e      	sub	sp, #56	@ 0x38
 8005b3c:	af04      	add	r7, sp, #16
 8005b3e:	60f8      	str	r0, [r7, #12]
 8005b40:	60b9      	str	r1, [r7, #8]
 8005b42:	607a      	str	r2, [r7, #4]
 8005b44:	603b      	str	r3, [r7, #0]
	TCB_t *pxNewTCB;
	TaskHandle_t xReturn;

		configASSERT( puxStackBuffer != NULL );
 8005b46:	6b7b      	ldr	r3, [r7, #52]	@ 0x34
 8005b48:	2b00      	cmp	r3, #0
 8005b4a:	d10b      	bne.n	8005b64 <xTaskCreateStatic+0x2c>
	__asm volatile
 8005b4c:	f04f 0350 	mov.w	r3, #80	@ 0x50
 8005b50:	f383 8811 	msr	BASEPRI, r3
 8005b54:	f3bf 8f6f 	isb	sy
 8005b58:	f3bf 8f4f 	dsb	sy
 8005b5c:	623b      	str	r3, [r7, #32]
}
 8005b5e:	bf00      	nop
 8005b60:	bf00      	nop
 8005b62:	e7fd      	b.n	8005b60 <xTaskCreateStatic+0x28>
		configASSERT( pxTaskBuffer != NULL );
 8005b64:	6bbb      	ldr	r3, [r7, #56]	@ 0x38
 8005b66:	2b00      	cmp	r3, #0
 8005b68:	d10b      	bne.n	8005b82 <xTaskCreateStatic+0x4a>
	__asm volatile
 8005b6a:	f04f 0350 	mov.w	r3, #80	@ 0x50
 8005b6e:	f383 8811 	msr	BASEPRI, r3
 8005b72:	f3bf 8f6f 	isb	sy
 8005b76:	f3bf 8f4f 	dsb	sy
 8005b7a:	61fb      	str	r3, [r7, #28]
}
 8005b7c:	bf00      	nop
 8005b7e:	bf00      	nop
 8005b80:	e7fd      	b.n	8005b7e <xTaskCreateStatic+0x46>
		#if( configASSERT_DEFINED == 1 )
		{
			/* Sanity check that the size of the structure used to declare a
			variable of type StaticTask_t equals the size of the real task
			structure. */
			volatile size_t xSize = sizeof( StaticTask_t );
 8005b82:	235c      	movs	r3, #92	@ 0x5c
 8005b84:	613b      	str	r3, [r7, #16]
			configASSERT( xSize == sizeof( TCB_t ) );
 8005b86:	693b      	ldr	r3, [r7, #16]
 8005b88:	2b5c      	cmp	r3, #92	@ 0x5c
 8005b8a:	d00b      	beq.n	8005ba4 <xTaskCreateStatic+0x6c>
	__asm volatile
 8005b8c:	f04f 0350 	mov.w	r3, #80	@ 0x50
 8005b90:	f383 8811 	msr	BASEPRI, r3
 8005b94:	f3bf 8f6f 	isb	sy
 8005b98:	f3bf 8f4f 	dsb	sy
 8005b9c:	61bb      	str	r3, [r7, #24]
}
 8005b9e:	bf00      	nop
 8005ba0:	bf00      	nop
 8005ba2:	e7fd      	b.n	8005ba0 <xTaskCreateStatic+0x68>
			( void ) xSize; /* Prevent lint warning when configASSERT() is not used. */
 8005ba4:	693b      	ldr	r3, [r7, #16]
		}
		#endif /* configASSERT_DEFINED */


		if( ( pxTaskBuffer != NULL ) && ( puxStackBuffer != NULL ) )
 8005ba6:	6bbb      	ldr	r3, [r7, #56]	@ 0x38
 8005ba8:	2b00      	cmp	r3, #0
 8005baa:	d01e      	beq.n	8005bea <xTaskCreateStatic+0xb2>
 8005bac:	6b7b      	ldr	r3, [r7, #52]	@ 0x34
 8005bae:	2b00      	cmp	r3, #0
 8005bb0:	d01b      	beq.n	8005bea <xTaskCreateStatic+0xb2>
		{
			/* The memory used for the task's TCB and stack are passed into this
			function - use them. */
			pxNewTCB = ( TCB_t * ) pxTaskBuffer; /*lint !e740 !e9087 Unusual cast is ok as the structures are designed to have the same alignment, and the size is checked by an assert. */
 8005bb2:	6bbb      	ldr	r3, [r7, #56]	@ 0x38
 8005bb4:	627b      	str	r3, [r7, #36]	@ 0x24
			pxNewTCB->pxStack = ( StackType_t * ) puxStackBuffer;
 8005bb6:	6a7b      	ldr	r3, [r7, #36]	@ 0x24
 8005bb8:	6b7a      	ldr	r2, [r7, #52]	@ 0x34
 8005bba:	631a      	str	r2, [r3, #48]	@ 0x30

			#if( tskSTATIC_AND_DYNAMIC_ALLOCATION_POSSIBLE != 0 ) /*lint !e731 !e9029 Macro has been consolidated for readability reasons. */
			{
				/* Tasks can be created statically or dynamically, so note this
				task was created statically in case the task is later deleted. */
				pxNewTCB->ucStaticallyAllocated = tskSTATICALLY_ALLOCATED_STACK_AND_TCB;
 8005bbc:	6a7b      	ldr	r3, [r7, #36]	@ 0x24
 8005bbe:	2202      	movs	r2, #2
 8005bc0:	f883 2059 	strb.w	r2, [r3, #89]	@ 0x59
			}
			#endif /* tskSTATIC_AND_DYNAMIC_ALLOCATION_POSSIBLE */

			prvInitialiseNewTask( pxTaskCode, pcName, ulStackDepth, pvParameters, uxPriority, &xReturn, pxNewTCB, NULL );
 8005bc4:	2300      	movs	r3, #0
 8005bc6:	9303      	str	r3, [sp, #12]
 8005bc8:	6a7b      	ldr	r3, [r7, #36]	@ 0x24
 8005bca:	9302      	str	r3, [sp, #8]
 8005bcc:	f107 0314 	add.w	r3, r7, #20
 8005bd0:	9301      	str	r3, [sp, #4]
 8005bd2:	6b3b      	ldr	r3, [r7, #48]	@ 0x30
 8005bd4:	9300      	str	r3, [sp, #0]
 8005bd6:	683b      	ldr	r3, [r7, #0]
 8005bd8:	687a      	ldr	r2, [r7, #4]
 8005bda:	68b9      	ldr	r1, [r7, #8]
 8005bdc:	68f8      	ldr	r0, [r7, #12]
 8005bde:	f000 f850 	bl	8005c82 <prvInitialiseNewTask>
			prvAddNewTaskToReadyList( pxNewTCB );
 8005be2:	6a78      	ldr	r0, [r7, #36]	@ 0x24
 8005be4:	f000 f8de 	bl	8005da4 <prvAddNewTaskToReadyList>
 8005be8:	e001      	b.n	8005bee <xTaskCreateStatic+0xb6>
		}
		else
		{
			xReturn = NULL;
 8005bea:	2300      	movs	r3, #0
 8005bec:	617b      	str	r3, [r7, #20]
		}

		return xReturn;
 8005bee:	697b      	ldr	r3, [r7, #20]
	}
 8005bf0:	4618      	mov	r0, r3
 8005bf2:	3728      	adds	r7, #40	@ 0x28
 8005bf4:	46bd      	mov	sp, r7
 8005bf6:	bd80      	pop	{r7, pc}

08005bf8 <xTaskCreate>:
							const char * const pcName,		/*lint !e971 Unqualified char types are allowed for strings and single characters only. */
							const configSTACK_DEPTH_TYPE usStackDepth,
							void * const pvParameters,
							UBaseType_t uxPriority,
							TaskHandle_t * const pxCreatedTask )
	{
 8005bf8:	b580      	push	{r7, lr}
 8005bfa:	b08c      	sub	sp, #48	@ 0x30
 8005bfc:	af04      	add	r7, sp, #16
 8005bfe:	60f8      	str	r0, [r7, #12]
 8005c00:	60b9      	str	r1, [r7, #8]
 8005c02:	603b      	str	r3, [r7, #0]
 8005c04:	4613      	mov	r3, r2
 8005c06:	80fb      	strh	r3, [r7, #6]
		#else /* portSTACK_GROWTH */
		{
		StackType_t *pxStack;

			/* Allocate space for the stack used by the task being created. */
			pxStack = pvPortMalloc( ( ( ( size_t ) usStackDepth ) * sizeof( StackType_t ) ) ); /*lint !e9079 All values returned by pvPortMalloc() have at least the alignment required by the MCU's stack and this allocation is the stack. */
 8005c08:	88fb      	ldrh	r3, [r7, #6]
 8005c0a:	009b      	lsls	r3, r3, #2
 8005c0c:	4618      	mov	r0, r3
 8005c0e:	f001 fd4d 	bl	80076ac <pvPortMalloc>
 8005c12:	6178      	str	r0, [r7, #20]

			if( pxStack != NULL )
 8005c14:	697b      	ldr	r3, [r7, #20]
 8005c16:	2b00      	cmp	r3, #0
 8005c18:	d00e      	beq.n	8005c38 <xTaskCreate+0x40>
			{
				/* Allocate space for the TCB. */
				pxNewTCB = ( TCB_t * ) pvPortMalloc( sizeof( TCB_t ) ); /*lint !e9087 !e9079 All values returned by pvPortMalloc() have at least the alignment required by the MCU's stack, and the first member of TCB_t is always a pointer to the task's stack. */
 8005c1a:	205c      	movs	r0, #92	@ 0x5c
 8005c1c:	f001 fd46 	bl	80076ac <pvPortMalloc>
 8005c20:	61f8      	str	r0, [r7, #28]

				if( pxNewTCB != NULL )
 8005c22:	69fb      	ldr	r3, [r7, #28]
 8005c24:	2b00      	cmp	r3, #0
 8005c26:	d003      	beq.n	8005c30 <xTaskCreate+0x38>
				{
					/* Store the stack location in the TCB. */
					pxNewTCB->pxStack = pxStack;
 8005c28:	69fb      	ldr	r3, [r7, #28]
 8005c2a:	697a      	ldr	r2, [r7, #20]
 8005c2c:	631a      	str	r2, [r3, #48]	@ 0x30
 8005c2e:	e005      	b.n	8005c3c <xTaskCreate+0x44>
				}
				else
				{
					/* The stack cannot be used as the TCB was not created.  Free
					it again. */
					vPortFree( pxStack );
 8005c30:	6978      	ldr	r0, [r7, #20]
 8005c32:	f001 fe09 	bl	8007848 <vPortFree>
 8005c36:	e001      	b.n	8005c3c <xTaskCreate+0x44>
				}
			}
			else
			{
				pxNewTCB = NULL;
 8005c38:	2300      	movs	r3, #0
 8005c3a:	61fb      	str	r3, [r7, #28]
			}
		}
		#endif /* portSTACK_GROWTH */

		if( pxNewTCB != NULL )
 8005c3c:	69fb      	ldr	r3, [r7, #28]
 8005c3e:	2b00      	cmp	r3, #0
 8005c40:	d017      	beq.n	8005c72 <xTaskCreate+0x7a>
		{
			#if( tskSTATIC_AND_DYNAMIC_ALLOCATION_POSSIBLE != 0 ) /*lint !e9029 !e731 Macro has been consolidated for readability reasons. */
			{
				/* Tasks can be created statically or dynamically, so note this
				task was created dynamically in case it is later deleted. */
				pxNewTCB->ucStaticallyAllocated = tskDYNAMICALLY_ALLOCATED_STACK_AND_TCB;
 8005c42:	69fb      	ldr	r3, [r7, #28]
 8005c44:	2200      	movs	r2, #0
 8005c46:	f883 2059 	strb.w	r2, [r3, #89]	@ 0x59
			}
			#endif /* tskSTATIC_AND_DYNAMIC_ALLOCATION_POSSIBLE */

			prvInitialiseNewTask( pxTaskCode, pcName, ( uint32_t ) usStackDepth, pvParameters, uxPriority, pxCreatedTask, pxNewTCB, NULL );
 8005c4a:	88fa      	ldrh	r2, [r7, #6]
 8005c4c:	2300      	movs	r3, #0
 8005c4e:	9303      	str	r3, [sp, #12]
 8005c50:	69fb      	ldr	r3, [r7, #28]
 8005c52:	9302      	str	r3, [sp, #8]
 8005c54:	6afb      	ldr	r3, [r7, #44]	@ 0x2c
 8005c56:	9301      	str	r3, [sp, #4]
 8005c58:	6abb      	ldr	r3, [r7, #40]	@ 0x28
 8005c5a:	9300      	str	r3, [sp, #0]
 8005c5c:	683b      	ldr	r3, [r7, #0]
 8005c5e:	68b9      	ldr	r1, [r7, #8]
 8005c60:	68f8      	ldr	r0, [r7, #12]
 8005c62:	f000 f80e 	bl	8005c82 <prvInitialiseNewTask>
			prvAddNewTaskToReadyList( pxNewTCB );
 8005c66:	69f8      	ldr	r0, [r7, #28]
 8005c68:	f000 f89c 	bl	8005da4 <prvAddNewTaskToReadyList>
			xReturn = pdPASS;
 8005c6c:	2301      	movs	r3, #1
 8005c6e:	61bb      	str	r3, [r7, #24]
 8005c70:	e002      	b.n	8005c78 <xTaskCreate+0x80>
		}
		else
		{
			xReturn = errCOULD_NOT_ALLOCATE_REQUIRED_MEMORY;
 8005c72:	f04f 33ff 	mov.w	r3, #4294967295	@ 0xffffffff
 8005c76:	61bb      	str	r3, [r7, #24]
		}

		return xReturn;
 8005c78:	69bb      	ldr	r3, [r7, #24]
	}
 8005c7a:	4618      	mov	r0, r3
 8005c7c:	3720      	adds	r7, #32
 8005c7e:	46bd      	mov	sp, r7
 8005c80:	bd80      	pop	{r7, pc}

08005c82 <prvInitialiseNewTask>:
									void * const pvParameters,
									UBaseType_t uxPriority,
									TaskHandle_t * const pxCreatedTask,
									TCB_t *pxNewTCB,
									const MemoryRegion_t * const xRegions )
{
 8005c82:	b580      	push	{r7, lr}
 8005c84:	b088      	sub	sp, #32
 8005c86:	af00      	add	r7, sp, #0
 8005c88:	60f8      	str	r0, [r7, #12]
 8005c8a:	60b9      	str	r1, [r7, #8]
 8005c8c:	607a      	str	r2, [r7, #4]
 8005c8e:	603b      	str	r3, [r7, #0]

	/* Avoid dependency on memset() if it is not required. */
	#if( tskSET_NEW_STACKS_TO_KNOWN_VALUE == 1 )
	{
		/* Fill the stack with a known value to assist debugging. */
		( void ) memset( pxNewTCB->pxStack, ( int ) tskSTACK_FILL_BYTE, ( size_t ) ulStackDepth * sizeof( StackType_t ) );
 8005c90:	6b3b      	ldr	r3, [r7, #48]	@ 0x30
 8005c92:	6b18      	ldr	r0, [r3, #48]	@ 0x30
 8005c94:	687b      	ldr	r3, [r7, #4]
 8005c96:	009b      	lsls	r3, r3, #2
 8005c98:	461a      	mov	r2, r3
 8005c9a:	21a5      	movs	r1, #165	@ 0xa5
 8005c9c:	f003 fa8e 	bl	80091bc <memset>
	grows from high memory to low (as per the 80x86) or vice versa.
	portSTACK_GROWTH is used to make the result positive or negative as required
	by the port. */
	#if( portSTACK_GROWTH < 0 )
	{
		pxTopOfStack = &( pxNewTCB->pxStack[ ulStackDepth - ( uint32_t ) 1 ] );
 8005ca0:	6b3b      	ldr	r3, [r7, #48]	@ 0x30
 8005ca2:	6b1a      	ldr	r2, [r3, #48]	@ 0x30
 8005ca4:	687b      	ldr	r3, [r7, #4]
 8005ca6:	f103 4380 	add.w	r3, r3, #1073741824	@ 0x40000000
 8005caa:	3b01      	subs	r3, #1
 8005cac:	009b      	lsls	r3, r3, #2
 8005cae:	4413      	add	r3, r2
 8005cb0:	61bb      	str	r3, [r7, #24]
		pxTopOfStack = ( StackType_t * ) ( ( ( portPOINTER_SIZE_TYPE ) pxTopOfStack ) & ( ~( ( portPOINTER_SIZE_TYPE ) portBYTE_ALIGNMENT_MASK ) ) ); /*lint !e923 !e9033 !e9078 MISRA exception.  Avoiding casts between pointers and integers is not practical.  Size differences accounted for using portPOINTER_SIZE_TYPE type.  Checked by assert(). */
 8005cb2:	69bb      	ldr	r3, [r7, #24]
 8005cb4:	f023 0307 	bic.w	r3, r3, #7
 8005cb8:	61bb      	str	r3, [r7, #24]

		/* Check the alignment of the calculated top of stack is correct. */
		configASSERT( ( ( ( portPOINTER_SIZE_TYPE ) pxTopOfStack & ( portPOINTER_SIZE_TYPE ) portBYTE_ALIGNMENT_MASK ) == 0UL ) );
 8005cba:	69bb      	ldr	r3, [r7, #24]
 8005cbc:	f003 0307 	and.w	r3, r3, #7
 8005cc0:	2b00      	cmp	r3, #0
 8005cc2:	d00b      	beq.n	8005cdc <prvInitialiseNewTask+0x5a>
	__asm volatile
 8005cc4:	f04f 0350 	mov.w	r3, #80	@ 0x50
 8005cc8:	f383 8811 	msr	BASEPRI, r3
 8005ccc:	f3bf 8f6f 	isb	sy
 8005cd0:	f3bf 8f4f 	dsb	sy
 8005cd4:	617b      	str	r3, [r7, #20]
}
 8005cd6:	bf00      	nop
 8005cd8:	bf00      	nop
 8005cda:	e7fd      	b.n	8005cd8 <prvInitialiseNewTask+0x56>
		pxNewTCB->pxEndOfStack = pxNewTCB->pxStack + ( ulStackDepth - ( uint32_t ) 1 );
	}
	#endif /* portSTACK_GROWTH */

	/* Store the task name in the TCB. */
	if( pcName != NULL )
 8005cdc:	68bb      	ldr	r3, [r7, #8]
 8005cde:	2b00      	cmp	r3, #0
 8005ce0:	d01f      	beq.n	8005d22 <prvInitialiseNewTask+0xa0>
	{
		for( x = ( UBaseType_t ) 0; x < ( UBaseType_t ) configMAX_TASK_NAME_LEN; x++ )
 8005ce2:	2300      	movs	r3, #0
 8005ce4:	61fb      	str	r3, [r7, #28]
 8005ce6:	e012      	b.n	8005d0e <prvInitialiseNewTask+0x8c>
		{
			pxNewTCB->pcTaskName[ x ] = pcName[ x ];
 8005ce8:	68ba      	ldr	r2, [r7, #8]
 8005cea:	69fb      	ldr	r3, [r7, #28]
 8005cec:	4413      	add	r3, r2
 8005cee:	7819      	ldrb	r1, [r3, #0]
 8005cf0:	6b3a      	ldr	r2, [r7, #48]	@ 0x30
 8005cf2:	69fb      	ldr	r3, [r7, #28]
 8005cf4:	4413      	add	r3, r2
 8005cf6:	3334      	adds	r3, #52	@ 0x34
 8005cf8:	460a      	mov	r2, r1
 8005cfa:	701a      	strb	r2, [r3, #0]

			/* Don't copy all configMAX_TASK_NAME_LEN if the string is shorter than
			configMAX_TASK_NAME_LEN characters just in case the memory after the
			string is not accessible (extremely unlikely). */
			if( pcName[ x ] == ( char ) 0x00 )
 8005cfc:	68ba      	ldr	r2, [r7, #8]
 8005cfe:	69fb      	ldr	r3, [r7, #28]
 8005d00:	4413      	add	r3, r2
 8005d02:	781b      	ldrb	r3, [r3, #0]
 8005d04:	2b00      	cmp	r3, #0
 8005d06:	d006      	beq.n	8005d16 <prvInitialiseNewTask+0x94>
		for( x = ( UBaseType_t ) 0; x < ( UBaseType_t ) configMAX_TASK_NAME_LEN; x++ )
 8005d08:	69fb      	ldr	r3, [r7, #28]
 8005d0a:	3301      	adds	r3, #1
 8005d0c:	61fb      	str	r3, [r7, #28]
 8005d0e:	69fb      	ldr	r3, [r7, #28]
 8005d10:	2b0f      	cmp	r3, #15
 8005d12:	d9e9      	bls.n	8005ce8 <prvInitialiseNewTask+0x66>
 8005d14:	e000      	b.n	8005d18 <prvInitialiseNewTask+0x96>
			{
				break;
 8005d16:	bf00      	nop
			}
		}

		/* Ensure the name string is terminated in the case that the string length
		was greater or equal to configMAX_TASK_NAME_LEN. */
		pxNewTCB->pcTaskName[ configMAX_TASK_NAME_LEN - 1 ] = '\0';
 8005d18:	6b3b      	ldr	r3, [r7, #48]	@ 0x30
 8005d1a:	2200      	movs	r2, #0
 8005d1c:	f883 2043 	strb.w	r2, [r3, #67]	@ 0x43
 8005d20:	e003      	b.n	8005d2a <prvInitialiseNewTask+0xa8>
	}
	else
	{
		/* The task has not been given a name, so just ensure there is a NULL
		terminator when it is read out. */
		pxNewTCB->pcTaskName[ 0 ] = 0x00;
 8005d22:	6b3b      	ldr	r3, [r7, #48]	@ 0x30
 8005d24:	2200      	movs	r2, #0
 8005d26:	f883 2034 	strb.w	r2, [r3, #52]	@ 0x34
	}

	/* This is used as an array index so must ensure it's not too large.  First
	remove the privilege bit if one is present. */
	if( uxPriority >= ( UBaseType_t ) configMAX_PRIORITIES )
 8005d2a:	6abb      	ldr	r3, [r7, #40]	@ 0x28
 8005d2c:	2b37      	cmp	r3, #55	@ 0x37
 8005d2e:	d901      	bls.n	8005d34 <prvInitialiseNewTask+0xb2>
	{
		uxPriority = ( UBaseType_t ) configMAX_PRIORITIES - ( UBaseType_t ) 1U;
 8005d30:	2337      	movs	r3, #55	@ 0x37
 8005d32:	62bb      	str	r3, [r7, #40]	@ 0x28
	else
	{
		mtCOVERAGE_TEST_MARKER();
	}

	pxNewTCB->uxPriority = uxPriority;
 8005d34:	6b3b      	ldr	r3, [r7, #48]	@ 0x30
 8005d36:	6aba      	ldr	r2, [r7, #40]	@ 0x28
 8005d38:	62da      	str	r2, [r3, #44]	@ 0x2c
	#if ( configUSE_MUTEXES == 1 )
	{
		pxNewTCB->uxBasePriority = uxPriority;
 8005d3a:	6b3b      	ldr	r3, [r7, #48]	@ 0x30
 8005d3c:	6aba      	ldr	r2, [r7, #40]	@ 0x28
 8005d3e:	64da      	str	r2, [r3, #76]	@ 0x4c
		pxNewTCB->uxMutexesHeld = 0;
 8005d40:	6b3b      	ldr	r3, [r7, #48]	@ 0x30
 8005d42:	2200      	movs	r2, #0
 8005d44:	651a      	str	r2, [r3, #80]	@ 0x50
	}
	#endif /* configUSE_MUTEXES */

	vListInitialiseItem( &( pxNewTCB->xStateListItem ) );
 8005d46:	6b3b      	ldr	r3, [r7, #48]	@ 0x30
 8005d48:	3304      	adds	r3, #4
 8005d4a:	4618      	mov	r0, r3
 8005d4c:	f7fe ffd0 	bl	8004cf0 <vListInitialiseItem>
	vListInitialiseItem( &( pxNewTCB->xEventListItem ) );
 8005d50:	6b3b      	ldr	r3, [r7, #48]	@ 0x30
 8005d52:	3318      	adds	r3, #24
 8005d54:	4618      	mov	r0, r3
 8005d56:	f7fe ffcb 	bl	8004cf0 <vListInitialiseItem>

	/* Set the pxNewTCB as a link back from the ListItem_t.  This is so we can get
	back to	the containing TCB from a generic item in a list. */
	listSET_LIST_ITEM_OWNER( &( pxNewTCB->xStateListItem ), pxNewTCB );
 8005d5a:	6b3b      	ldr	r3, [r7, #48]	@ 0x30
 8005d5c:	6b3a      	ldr	r2, [r7, #48]	@ 0x30
 8005d5e:	611a      	str	r2, [r3, #16]

	/* Event lists are always in priority order. */
	listSET_LIST_ITEM_VALUE( &( pxNewTCB->xEventListItem ), ( TickType_t ) configMAX_PRIORITIES - ( TickType_t ) uxPriority ); /*lint !e961 MISRA exception as the casts are only redundant for some ports. */
 8005d60:	6abb      	ldr	r3, [r7, #40]	@ 0x28
 8005d62:	f1c3 0238 	rsb	r2, r3, #56	@ 0x38
 8005d66:	6b3b      	ldr	r3, [r7, #48]	@ 0x30
 8005d68:	619a      	str	r2, [r3, #24]
	listSET_LIST_ITEM_OWNER( &( pxNewTCB->xEventListItem ), pxNewTCB );
 8005d6a:	6b3b      	ldr	r3, [r7, #48]	@ 0x30
 8005d6c:	6b3a      	ldr	r2, [r7, #48]	@ 0x30
 8005d6e:	625a      	str	r2, [r3, #36]	@ 0x24
	}
	#endif

	#if ( configUSE_TASK_NOTIFICATIONS == 1 )
	{
		pxNewTCB->ulNotifiedValue = 0;
 8005d70:	6b3b      	ldr	r3, [r7, #48]	@ 0x30
 8005d72:	2200      	movs	r2, #0
 8005d74:	655a      	str	r2, [r3, #84]	@ 0x54
		pxNewTCB->ucNotifyState = taskNOT_WAITING_NOTIFICATION;
 8005d76:	6b3b      	ldr	r3, [r7, #48]	@ 0x30
 8005d78:	2200      	movs	r2, #0
 8005d7a:	f883 2058 	strb.w	r2, [r3, #88]	@ 0x58
			}
			#endif /* portSTACK_GROWTH */
		}
		#else /* portHAS_STACK_OVERFLOW_CHECKING */
		{
			pxNewTCB->pxTopOfStack = pxPortInitialiseStack( pxTopOfStack, pxTaskCode, pvParameters );
 8005d7e:	683a      	ldr	r2, [r7, #0]
 8005d80:	68f9      	ldr	r1, [r7, #12]
 8005d82:	69b8      	ldr	r0, [r7, #24]
 8005d84:	f001 fa3e 	bl	8007204 <pxPortInitialiseStack>
 8005d88:	4602      	mov	r2, r0
 8005d8a:	6b3b      	ldr	r3, [r7, #48]	@ 0x30
 8005d8c:	601a      	str	r2, [r3, #0]
		}
		#endif /* portHAS_STACK_OVERFLOW_CHECKING */
	}
	#endif /* portUSING_MPU_WRAPPERS */

	if( pxCreatedTask != NULL )
 8005d8e:	6afb      	ldr	r3, [r7, #44]	@ 0x2c
 8005d90:	2b00      	cmp	r3, #0
 8005d92:	d002      	beq.n	8005d9a <prvInitialiseNewTask+0x118>
	{
		/* Pass the handle out in an anonymous way.  The handle can be used to
		change the created task's priority, delete the created task, etc.*/
		*pxCreatedTask = ( TaskHandle_t ) pxNewTCB;
 8005d94:	6afb      	ldr	r3, [r7, #44]	@ 0x2c
 8005d96:	6b3a      	ldr	r2, [r7, #48]	@ 0x30
 8005d98:	601a      	str	r2, [r3, #0]
	}
	else
	{
		mtCOVERAGE_TEST_MARKER();
	}
}
 8005d9a:	bf00      	nop
 8005d9c:	3720      	adds	r7, #32
 8005d9e:	46bd      	mov	sp, r7
 8005da0:	bd80      	pop	{r7, pc}
	...

08005da4 <prvAddNewTaskToReadyList>:
/*-----------------------------------------------------------*/

static void prvAddNewTaskToReadyList( TCB_t *pxNewTCB )
{
 8005da4:	b580      	push	{r7, lr}
 8005da6:	b082      	sub	sp, #8
 8005da8:	af00      	add	r7, sp, #0
 8005daa:	6078      	str	r0, [r7, #4]
	/* Ensure interrupts don't access the task lists while the lists are being
	updated. */
	taskENTER_CRITICAL();
 8005dac:	f001 fb5c 	bl	8007468 <vPortEnterCritical>
	{
		uxCurrentNumberOfTasks++;
 8005db0:	4b2d      	ldr	r3, [pc, #180]	@ (8005e68 <prvAddNewTaskToReadyList+0xc4>)
 8005db2:	681b      	ldr	r3, [r3, #0]
 8005db4:	3301      	adds	r3, #1
 8005db6:	4a2c      	ldr	r2, [pc, #176]	@ (8005e68 <prvAddNewTaskToReadyList+0xc4>)
 8005db8:	6013      	str	r3, [r2, #0]
		if( pxCurrentTCB == NULL )
 8005dba:	4b2c      	ldr	r3, [pc, #176]	@ (8005e6c <prvAddNewTaskToReadyList+0xc8>)
 8005dbc:	681b      	ldr	r3, [r3, #0]
 8005dbe:	2b00      	cmp	r3, #0
 8005dc0:	d109      	bne.n	8005dd6 <prvAddNewTaskToReadyList+0x32>
		{
			/* There are no other tasks, or all the other tasks are in
			the suspended state - make this the current task. */
			pxCurrentTCB = pxNewTCB;
 8005dc2:	4a2a      	ldr	r2, [pc, #168]	@ (8005e6c <prvAddNewTaskToReadyList+0xc8>)
 8005dc4:	687b      	ldr	r3, [r7, #4]
 8005dc6:	6013      	str	r3, [r2, #0]

			if( uxCurrentNumberOfTasks == ( UBaseType_t ) 1 )
 8005dc8:	4b27      	ldr	r3, [pc, #156]	@ (8005e68 <prvAddNewTaskToReadyList+0xc4>)
 8005dca:	681b      	ldr	r3, [r3, #0]
 8005dcc:	2b01      	cmp	r3, #1
 8005dce:	d110      	bne.n	8005df2 <prvAddNewTaskToReadyList+0x4e>
			{
				/* This is the first task to be created so do the preliminary
				initialisation required.  We will not recover if this call
				fails, but we will report the failure. */
				prvInitialiseTaskLists();
 8005dd0:	f000 fc1e 	bl	8006610 <prvInitialiseTaskLists>
 8005dd4:	e00d      	b.n	8005df2 <prvAddNewTaskToReadyList+0x4e>
		else
		{
			/* If the scheduler is not already running, make this task the
			current task if it is the highest priority task to be created
			so far. */
			if( xSchedulerRunning == pdFALSE )
 8005dd6:	4b26      	ldr	r3, [pc, #152]	@ (8005e70 <prvAddNewTaskToReadyList+0xcc>)
 8005dd8:	681b      	ldr	r3, [r3, #0]
 8005dda:	2b00      	cmp	r3, #0
 8005ddc:	d109      	bne.n	8005df2 <prvAddNewTaskToReadyList+0x4e>
			{
				if( pxCurrentTCB->uxPriority <= pxNewTCB->uxPriority )
 8005dde:	4b23      	ldr	r3, [pc, #140]	@ (8005e6c <prvAddNewTaskToReadyList+0xc8>)
 8005de0:	681b      	ldr	r3, [r3, #0]
 8005de2:	6ada      	ldr	r2, [r3, #44]	@ 0x2c
 8005de4:	687b      	ldr	r3, [r7, #4]
 8005de6:	6adb      	ldr	r3, [r3, #44]	@ 0x2c
 8005de8:	429a      	cmp	r2, r3
 8005dea:	d802      	bhi.n	8005df2 <prvAddNewTaskToReadyList+0x4e>
				{
					pxCurrentTCB = pxNewTCB;
 8005dec:	4a1f      	ldr	r2, [pc, #124]	@ (8005e6c <prvAddNewTaskToReadyList+0xc8>)
 8005dee:	687b      	ldr	r3, [r7, #4]
 8005df0:	6013      	str	r3, [r2, #0]
			{
				mtCOVERAGE_TEST_MARKER();
			}
		}

		uxTaskNumber++;
 8005df2:	4b20      	ldr	r3, [pc, #128]	@ (8005e74 <prvAddNewTaskToReadyList+0xd0>)
 8005df4:	681b      	ldr	r3, [r3, #0]
 8005df6:	3301      	adds	r3, #1
 8005df8:	4a1e      	ldr	r2, [pc, #120]	@ (8005e74 <prvAddNewTaskToReadyList+0xd0>)
 8005dfa:	6013      	str	r3, [r2, #0]

		#if ( configUSE_TRACE_FACILITY == 1 )
		{
			/* Add a counter into the TCB for tracing only. */
			pxNewTCB->uxTCBNumber = uxTaskNumber;
 8005dfc:	4b1d      	ldr	r3, [pc, #116]	@ (8005e74 <prvAddNewTaskToReadyList+0xd0>)
 8005dfe:	681a      	ldr	r2, [r3, #0]
 8005e00:	687b      	ldr	r3, [r7, #4]
 8005e02:	645a      	str	r2, [r3, #68]	@ 0x44
		}
		#endif /* configUSE_TRACE_FACILITY */
		traceTASK_CREATE( pxNewTCB );

		prvAddTaskToReadyList( pxNewTCB );
 8005e04:	687b      	ldr	r3, [r7, #4]
 8005e06:	6ada      	ldr	r2, [r3, #44]	@ 0x2c
 8005e08:	4b1b      	ldr	r3, [pc, #108]	@ (8005e78 <prvAddNewTaskToReadyList+0xd4>)
 8005e0a:	681b      	ldr	r3, [r3, #0]
 8005e0c:	429a      	cmp	r2, r3
 8005e0e:	d903      	bls.n	8005e18 <prvAddNewTaskToReadyList+0x74>
 8005e10:	687b      	ldr	r3, [r7, #4]
 8005e12:	6adb      	ldr	r3, [r3, #44]	@ 0x2c
 8005e14:	4a18      	ldr	r2, [pc, #96]	@ (8005e78 <prvAddNewTaskToReadyList+0xd4>)
 8005e16:	6013      	str	r3, [r2, #0]
 8005e18:	687b      	ldr	r3, [r7, #4]
 8005e1a:	6ada      	ldr	r2, [r3, #44]	@ 0x2c
 8005e1c:	4613      	mov	r3, r2
 8005e1e:	009b      	lsls	r3, r3, #2
 8005e20:	4413      	add	r3, r2
 8005e22:	009b      	lsls	r3, r3, #2
 8005e24:	4a15      	ldr	r2, [pc, #84]	@ (8005e7c <prvAddNewTaskToReadyList+0xd8>)
 8005e26:	441a      	add	r2, r3
 8005e28:	687b      	ldr	r3, [r7, #4]
 8005e2a:	3304      	adds	r3, #4
 8005e2c:	4619      	mov	r1, r3
 8005e2e:	4610      	mov	r0, r2
 8005e30:	f7fe ff6b 	bl	8004d0a <vListInsertEnd>

		portSETUP_TCB( pxNewTCB );
	}
	taskEXIT_CRITICAL();
 8005e34:	f001 fb4a 	bl	80074cc <vPortExitCritical>

	if( xSchedulerRunning != pdFALSE )
 8005e38:	4b0d      	ldr	r3, [pc, #52]	@ (8005e70 <prvAddNewTaskToReadyList+0xcc>)
 8005e3a:	681b      	ldr	r3, [r3, #0]
 8005e3c:	2b00      	cmp	r3, #0
 8005e3e:	d00e      	beq.n	8005e5e <prvAddNewTaskToReadyList+0xba>
	{
		/* If the created task is of a higher priority than the current task
		then it should run now. */
		if( pxCurrentTCB->uxPriority < pxNewTCB->uxPriority )
 8005e40:	4b0a      	ldr	r3, [pc, #40]	@ (8005e6c <prvAddNewTaskToReadyList+0xc8>)
 8005e42:	681b      	ldr	r3, [r3, #0]
 8005e44:	6ada      	ldr	r2, [r3, #44]	@ 0x2c
 8005e46:	687b      	ldr	r3, [r7, #4]
 8005e48:	6adb      	ldr	r3, [r3, #44]	@ 0x2c
 8005e4a:	429a      	cmp	r2, r3
 8005e4c:	d207      	bcs.n	8005e5e <prvAddNewTaskToReadyList+0xba>
		{
			taskYIELD_IF_USING_PREEMPTION();
 8005e4e:	4b0c      	ldr	r3, [pc, #48]	@ (8005e80 <prvAddNewTaskToReadyList+0xdc>)
 8005e50:	f04f 5280 	mov.w	r2, #268435456	@ 0x10000000
 8005e54:	601a      	str	r2, [r3, #0]
 8005e56:	f3bf 8f4f 	dsb	sy
 8005e5a:	f3bf 8f6f 	isb	sy
	}
	else
	{
		mtCOVERAGE_TEST_MARKER();
	}
}
 8005e5e:	bf00      	nop
 8005e60:	3708      	adds	r7, #8
 8005e62:	46bd      	mov	sp, r7
 8005e64:	bd80      	pop	{r7, pc}
 8005e66:	bf00      	nop
 8005e68:	20001478 	.word	0x20001478
 8005e6c:	20000fa4 	.word	0x20000fa4
 8005e70:	20001484 	.word	0x20001484
 8005e74:	20001494 	.word	0x20001494
 8005e78:	20001480 	.word	0x20001480
 8005e7c:	20000fa8 	.word	0x20000fa8
 8005e80:	e000ed04 	.word	0xe000ed04

08005e84 <vTaskDelay>:
/*-----------------------------------------------------------*/

#if ( INCLUDE_vTaskDelay == 1 )

	void vTaskDelay( const TickType_t xTicksToDelay )
	{
 8005e84:	b580      	push	{r7, lr}
 8005e86:	b084      	sub	sp, #16
 8005e88:	af00      	add	r7, sp, #0
 8005e8a:	6078      	str	r0, [r7, #4]
	BaseType_t xAlreadyYielded = pdFALSE;
 8005e8c:	2300      	movs	r3, #0
 8005e8e:	60fb      	str	r3, [r7, #12]

		/* A delay time of zero just forces a reschedule. */
		if( xTicksToDelay > ( TickType_t ) 0U )
 8005e90:	687b      	ldr	r3, [r7, #4]
 8005e92:	2b00      	cmp	r3, #0
 8005e94:	d018      	beq.n	8005ec8 <vTaskDelay+0x44>
		{
			configASSERT( uxSchedulerSuspended == 0 );
 8005e96:	4b14      	ldr	r3, [pc, #80]	@ (8005ee8 <vTaskDelay+0x64>)
 8005e98:	681b      	ldr	r3, [r3, #0]
 8005e9a:	2b00      	cmp	r3, #0
 8005e9c:	d00b      	beq.n	8005eb6 <vTaskDelay+0x32>
	__asm volatile
 8005e9e:	f04f 0350 	mov.w	r3, #80	@ 0x50
 8005ea2:	f383 8811 	msr	BASEPRI, r3
 8005ea6:	f3bf 8f6f 	isb	sy
 8005eaa:	f3bf 8f4f 	dsb	sy
 8005eae:	60bb      	str	r3, [r7, #8]
}
 8005eb0:	bf00      	nop
 8005eb2:	bf00      	nop
 8005eb4:	e7fd      	b.n	8005eb2 <vTaskDelay+0x2e>
			vTaskSuspendAll();
 8005eb6:	f000 f883 	bl	8005fc0 <vTaskSuspendAll>
				list or removed from the blocked list until the scheduler
				is resumed.

				This task cannot be in an event list as it is the currently
				executing task. */
				prvAddCurrentTaskToDelayedList( xTicksToDelay, pdFALSE );
 8005eba:	2100      	movs	r1, #0
 8005ebc:	6878      	ldr	r0, [r7, #4]
 8005ebe:	f000 fdf3 	bl	8006aa8 <prvAddCurrentTaskToDelayedList>
			}
			xAlreadyYielded = xTaskResumeAll();
 8005ec2:	f000 f88b 	bl	8005fdc <xTaskResumeAll>
 8005ec6:	60f8      	str	r0, [r7, #12]
			mtCOVERAGE_TEST_MARKER();
		}

		/* Force a reschedule if xTaskResumeAll has not already done so, we may
		have put ourselves to sleep. */
		if( xAlreadyYielded == pdFALSE )
 8005ec8:	68fb      	ldr	r3, [r7, #12]
 8005eca:	2b00      	cmp	r3, #0
 8005ecc:	d107      	bne.n	8005ede <vTaskDelay+0x5a>
		{
			portYIELD_WITHIN_API();
 8005ece:	4b07      	ldr	r3, [pc, #28]	@ (8005eec <vTaskDelay+0x68>)
 8005ed0:	f04f 5280 	mov.w	r2, #268435456	@ 0x10000000
 8005ed4:	601a      	str	r2, [r3, #0]
 8005ed6:	f3bf 8f4f 	dsb	sy
 8005eda:	f3bf 8f6f 	isb	sy
		}
		else
		{
			mtCOVERAGE_TEST_MARKER();
		}
	}
 8005ede:	bf00      	nop
 8005ee0:	3710      	adds	r7, #16
 8005ee2:	46bd      	mov	sp, r7
 8005ee4:	bd80      	pop	{r7, pc}
 8005ee6:	bf00      	nop
 8005ee8:	200014a0 	.word	0x200014a0
 8005eec:	e000ed04 	.word	0xe000ed04

08005ef0 <vTaskStartScheduler>:

#endif /* ( ( INCLUDE_xTaskResumeFromISR == 1 ) && ( INCLUDE_vTaskSuspend == 1 ) ) */
/*-----------------------------------------------------------*/

void vTaskStartScheduler( void )
{
 8005ef0:	b580      	push	{r7, lr}
 8005ef2:	b08a      	sub	sp, #40	@ 0x28
 8005ef4:	af04      	add	r7, sp, #16
BaseType_t xReturn;

	/* Add the idle task at the lowest priority. */
	#if( configSUPPORT_STATIC_ALLOCATION == 1 )
	{
		StaticTask_t *pxIdleTaskTCBBuffer = NULL;
 8005ef6:	2300      	movs	r3, #0
 8005ef8:	60bb      	str	r3, [r7, #8]
		StackType_t *pxIdleTaskStackBuffer = NULL;
 8005efa:	2300      	movs	r3, #0
 8005efc:	607b      	str	r3, [r7, #4]
		uint32_t ulIdleTaskStackSize;

		/* The Idle task is created using user provided RAM - obtain the
		address of the RAM then create the idle task. */
		vApplicationGetIdleTaskMemory( &pxIdleTaskTCBBuffer, &pxIdleTaskStackBuffer, &ulIdleTaskStackSize );
 8005efe:	463a      	mov	r2, r7
 8005f00:	1d39      	adds	r1, r7, #4
 8005f02:	f107 0308 	add.w	r3, r7, #8
 8005f06:	4618      	mov	r0, r3
 8005f08:	f7fe fe9e 	bl	8004c48 <vApplicationGetIdleTaskMemory>
		xIdleTaskHandle = xTaskCreateStatic(	prvIdleTask,
 8005f0c:	6839      	ldr	r1, [r7, #0]
 8005f0e:	687b      	ldr	r3, [r7, #4]
 8005f10:	68ba      	ldr	r2, [r7, #8]
 8005f12:	9202      	str	r2, [sp, #8]
 8005f14:	9301      	str	r3, [sp, #4]
 8005f16:	2300      	movs	r3, #0
 8005f18:	9300      	str	r3, [sp, #0]
 8005f1a:	2300      	movs	r3, #0
 8005f1c:	460a      	mov	r2, r1
 8005f1e:	4922      	ldr	r1, [pc, #136]	@ (8005fa8 <vTaskStartScheduler+0xb8>)
 8005f20:	4822      	ldr	r0, [pc, #136]	@ (8005fac <vTaskStartScheduler+0xbc>)
 8005f22:	f7ff fe09 	bl	8005b38 <xTaskCreateStatic>
 8005f26:	4603      	mov	r3, r0
 8005f28:	4a21      	ldr	r2, [pc, #132]	@ (8005fb0 <vTaskStartScheduler+0xc0>)
 8005f2a:	6013      	str	r3, [r2, #0]
												( void * ) NULL, /*lint !e961.  The cast is not redundant for all compilers. */
												portPRIVILEGE_BIT, /* In effect ( tskIDLE_PRIORITY | portPRIVILEGE_BIT ), but tskIDLE_PRIORITY is zero. */
												pxIdleTaskStackBuffer,
												pxIdleTaskTCBBuffer ); /*lint !e961 MISRA exception, justified as it is not a redundant explicit cast to all supported compilers. */

		if( xIdleTaskHandle != NULL )
 8005f2c:	4b20      	ldr	r3, [pc, #128]	@ (8005fb0 <vTaskStartScheduler+0xc0>)
 8005f2e:	681b      	ldr	r3, [r3, #0]
 8005f30:	2b00      	cmp	r3, #0
 8005f32:	d002      	beq.n	8005f3a <vTaskStartScheduler+0x4a>
		{
			xReturn = pdPASS;
 8005f34:	2301      	movs	r3, #1
 8005f36:	617b      	str	r3, [r7, #20]
 8005f38:	e001      	b.n	8005f3e <vTaskStartScheduler+0x4e>
		}
		else
		{
			xReturn = pdFAIL;
 8005f3a:	2300      	movs	r3, #0
 8005f3c:	617b      	str	r3, [r7, #20]
	}
	#endif /* configSUPPORT_STATIC_ALLOCATION */

	#if ( configUSE_TIMERS == 1 )
	{
		if( xReturn == pdPASS )
 8005f3e:	697b      	ldr	r3, [r7, #20]
 8005f40:	2b01      	cmp	r3, #1
 8005f42:	d102      	bne.n	8005f4a <vTaskStartScheduler+0x5a>
		{
			xReturn = xTimerCreateTimerTask();
 8005f44:	f000 fe04 	bl	8006b50 <xTimerCreateTimerTask>
 8005f48:	6178      	str	r0, [r7, #20]
			mtCOVERAGE_TEST_MARKER();
		}
	}
	#endif /* configUSE_TIMERS */

	if( xReturn == pdPASS )
 8005f4a:	697b      	ldr	r3, [r7, #20]
 8005f4c:	2b01      	cmp	r3, #1
 8005f4e:	d116      	bne.n	8005f7e <vTaskStartScheduler+0x8e>
	__asm volatile
 8005f50:	f04f 0350 	mov.w	r3, #80	@ 0x50
 8005f54:	f383 8811 	msr	BASEPRI, r3
 8005f58:	f3bf 8f6f 	isb	sy
 8005f5c:	f3bf 8f4f 	dsb	sy
 8005f60:	613b      	str	r3, [r7, #16]
}
 8005f62:	bf00      	nop
			for additional information. */
			_impure_ptr = &( pxCurrentTCB->xNewLib_reent );
		}
		#endif /* configUSE_NEWLIB_REENTRANT */

		xNextTaskUnblockTime = portMAX_DELAY;
 8005f64:	4b13      	ldr	r3, [pc, #76]	@ (8005fb4 <vTaskStartScheduler+0xc4>)
 8005f66:	f04f 32ff 	mov.w	r2, #4294967295	@ 0xffffffff
 8005f6a:	601a      	str	r2, [r3, #0]
		xSchedulerRunning = pdTRUE;
 8005f6c:	4b12      	ldr	r3, [pc, #72]	@ (8005fb8 <vTaskStartScheduler+0xc8>)
 8005f6e:	2201      	movs	r2, #1
 8005f70:	601a      	str	r2, [r3, #0]
		xTickCount = ( TickType_t ) configINITIAL_TICK_COUNT;
 8005f72:	4b12      	ldr	r3, [pc, #72]	@ (8005fbc <vTaskStartScheduler+0xcc>)
 8005f74:	2200      	movs	r2, #0
 8005f76:	601a      	str	r2, [r3, #0]

		traceTASK_SWITCHED_IN();

		/* Setting up the timer tick is hardware specific and thus in the
		portable interface. */
		if( xPortStartScheduler() != pdFALSE )
 8005f78:	f001 f9d2 	bl	8007320 <xPortStartScheduler>
	}

	/* Prevent compiler warnings if INCLUDE_xTaskGetIdleTaskHandle is set to 0,
	meaning xIdleTaskHandle is not used anywhere else. */
	( void ) xIdleTaskHandle;
}
 8005f7c:	e00f      	b.n	8005f9e <vTaskStartScheduler+0xae>
		configASSERT( xReturn != errCOULD_NOT_ALLOCATE_REQUIRED_MEMORY );
 8005f7e:	697b      	ldr	r3, [r7, #20]
 8005f80:	f1b3 3fff 	cmp.w	r3, #4294967295	@ 0xffffffff
 8005f84:	d10b      	bne.n	8005f9e <vTaskStartScheduler+0xae>
	__asm volatile
 8005f86:	f04f 0350 	mov.w	r3, #80	@ 0x50
 8005f8a:	f383 8811 	msr	BASEPRI, r3
 8005f8e:	f3bf 8f6f 	isb	sy
 8005f92:	f3bf 8f4f 	dsb	sy
 8005f96:	60fb      	str	r3, [r7, #12]
}
 8005f98:	bf00      	nop
 8005f9a:	bf00      	nop
 8005f9c:	e7fd      	b.n	8005f9a <vTaskStartScheduler+0xaa>
}
 8005f9e:	bf00      	nop
 8005fa0:	3718      	adds	r7, #24
 8005fa2:	46bd      	mov	sp, r7
 8005fa4:	bd80      	pop	{r7, pc}
 8005fa6:	bf00      	nop
 8005fa8:	0800ba10 	.word	0x0800ba10
 8005fac:	080065e1 	.word	0x080065e1
 8005fb0:	2000149c 	.word	0x2000149c
 8005fb4:	20001498 	.word	0x20001498
 8005fb8:	20001484 	.word	0x20001484
 8005fbc:	2000147c 	.word	0x2000147c

08005fc0 <vTaskSuspendAll>:
	vPortEndScheduler();
}
/*----------------------------------------------------------*/

void vTaskSuspendAll( void )
{
 8005fc0:	b480      	push	{r7}
 8005fc2:	af00      	add	r7, sp, #0
	do not otherwise exhibit real time behaviour. */
	portSOFTWARE_BARRIER();

	/* The scheduler is suspended if uxSchedulerSuspended is non-zero.  An increment
	is used to allow calls to vTaskSuspendAll() to nest. */
	++uxSchedulerSuspended;
 8005fc4:	4b04      	ldr	r3, [pc, #16]	@ (8005fd8 <vTaskSuspendAll+0x18>)
 8005fc6:	681b      	ldr	r3, [r3, #0]
 8005fc8:	3301      	adds	r3, #1
 8005fca:	4a03      	ldr	r2, [pc, #12]	@ (8005fd8 <vTaskSuspendAll+0x18>)
 8005fcc:	6013      	str	r3, [r2, #0]

	/* Enforces ordering for ports and optimised compilers that may otherwise place
	the above increment elsewhere. */
	portMEMORY_BARRIER();
}
 8005fce:	bf00      	nop
 8005fd0:	46bd      	mov	sp, r7
 8005fd2:	f85d 7b04 	ldr.w	r7, [sp], #4
 8005fd6:	4770      	bx	lr
 8005fd8:	200014a0 	.word	0x200014a0

08005fdc <xTaskResumeAll>:

#endif /* configUSE_TICKLESS_IDLE */
/*----------------------------------------------------------*/

BaseType_t xTaskResumeAll( void )
{
 8005fdc:	b580      	push	{r7, lr}
 8005fde:	b084      	sub	sp, #16
 8005fe0:	af00      	add	r7, sp, #0
TCB_t *pxTCB = NULL;
 8005fe2:	2300      	movs	r3, #0
 8005fe4:	60fb      	str	r3, [r7, #12]
BaseType_t xAlreadyYielded = pdFALSE;
 8005fe6:	2300      	movs	r3, #0
 8005fe8:	60bb      	str	r3, [r7, #8]

	/* If uxSchedulerSuspended is zero then this function does not match a
	previous call to vTaskSuspendAll(). */
	configASSERT( uxSchedulerSuspended );
 8005fea:	4b42      	ldr	r3, [pc, #264]	@ (80060f4 <xTaskResumeAll+0x118>)
 8005fec:	681b      	ldr	r3, [r3, #0]
 8005fee:	2b00      	cmp	r3, #0
 8005ff0:	d10b      	bne.n	800600a <xTaskResumeAll+0x2e>
	__asm volatile
 8005ff2:	f04f 0350 	mov.w	r3, #80	@ 0x50
 8005ff6:	f383 8811 	msr	BASEPRI, r3
 8005ffa:	f3bf 8f6f 	isb	sy
 8005ffe:	f3bf 8f4f 	dsb	sy
 8006002:	603b      	str	r3, [r7, #0]
}
 8006004:	bf00      	nop
 8006006:	bf00      	nop
 8006008:	e7fd      	b.n	8006006 <xTaskResumeAll+0x2a>
	/* It is possible that an ISR caused a task to be removed from an event
	list while the scheduler was suspended.  If this was the case then the
	removed task will have been added to the xPendingReadyList.  Once the
	scheduler has been resumed it is safe to move all the pending ready
	tasks from this list into their appropriate ready list. */
	taskENTER_CRITICAL();
 800600a:	f001 fa2d 	bl	8007468 <vPortEnterCritical>
	{
		--uxSchedulerSuspended;
 800600e:	4b39      	ldr	r3, [pc, #228]	@ (80060f4 <xTaskResumeAll+0x118>)
 8006010:	681b      	ldr	r3, [r3, #0]
 8006012:	3b01      	subs	r3, #1
 8006014:	4a37      	ldr	r2, [pc, #220]	@ (80060f4 <xTaskResumeAll+0x118>)
 8006016:	6013      	str	r3, [r2, #0]

		if( uxSchedulerSuspended == ( UBaseType_t ) pdFALSE )
 8006018:	4b36      	ldr	r3, [pc, #216]	@ (80060f4 <xTaskResumeAll+0x118>)
 800601a:	681b      	ldr	r3, [r3, #0]
 800601c:	2b00      	cmp	r3, #0
 800601e:	d162      	bne.n	80060e6 <xTaskResumeAll+0x10a>
		{
			if( uxCurrentNumberOfTasks > ( UBaseType_t ) 0U )
 8006020:	4b35      	ldr	r3, [pc, #212]	@ (80060f8 <xTaskResumeAll+0x11c>)
 8006022:	681b      	ldr	r3, [r3, #0]
 8006024:	2b00      	cmp	r3, #0
 8006026:	d05e      	beq.n	80060e6 <xTaskResumeAll+0x10a>
			{
				/* Move any readied tasks from the pending list into the
				appropriate ready list. */
				while( listLIST_IS_EMPTY( &xPendingReadyList ) == pdFALSE )
 8006028:	e02f      	b.n	800608a <xTaskResumeAll+0xae>
				{
					pxTCB = listGET_OWNER_OF_HEAD_ENTRY( ( &xPendingReadyList ) ); /*lint !e9079 void * is used as this macro is used with timers and co-routines too.  Alignment is known to be fine as the type of the pointer stored and retrieved is the same. */
 800602a:	4b34      	ldr	r3, [pc, #208]	@ (80060fc <xTaskResumeAll+0x120>)
 800602c:	68db      	ldr	r3, [r3, #12]
 800602e:	68db      	ldr	r3, [r3, #12]
 8006030:	60fb      	str	r3, [r7, #12]
					( void ) uxListRemove( &( pxTCB->xEventListItem ) );
 8006032:	68fb      	ldr	r3, [r7, #12]
 8006034:	3318      	adds	r3, #24
 8006036:	4618      	mov	r0, r3
 8006038:	f7fe fec4 	bl	8004dc4 <uxListRemove>
					( void ) uxListRemove( &( pxTCB->xStateListItem ) );
 800603c:	68fb      	ldr	r3, [r7, #12]
 800603e:	3304      	adds	r3, #4
 8006040:	4618      	mov	r0, r3
 8006042:	f7fe febf 	bl	8004dc4 <uxListRemove>
					prvAddTaskToReadyList( pxTCB );
 8006046:	68fb      	ldr	r3, [r7, #12]
 8006048:	6ada      	ldr	r2, [r3, #44]	@ 0x2c
 800604a:	4b2d      	ldr	r3, [pc, #180]	@ (8006100 <xTaskResumeAll+0x124>)
 800604c:	681b      	ldr	r3, [r3, #0]
 800604e:	429a      	cmp	r2, r3
 8006050:	d903      	bls.n	800605a <xTaskResumeAll+0x7e>
 8006052:	68fb      	ldr	r3, [r7, #12]
 8006054:	6adb      	ldr	r3, [r3, #44]	@ 0x2c
 8006056:	4a2a      	ldr	r2, [pc, #168]	@ (8006100 <xTaskResumeAll+0x124>)
 8006058:	6013      	str	r3, [r2, #0]
 800605a:	68fb      	ldr	r3, [r7, #12]
 800605c:	6ada      	ldr	r2, [r3, #44]	@ 0x2c
 800605e:	4613      	mov	r3, r2
 8006060:	009b      	lsls	r3, r3, #2
 8006062:	4413      	add	r3, r2
 8006064:	009b      	lsls	r3, r3, #2
 8006066:	4a27      	ldr	r2, [pc, #156]	@ (8006104 <xTaskResumeAll+0x128>)
 8006068:	441a      	add	r2, r3
 800606a:	68fb      	ldr	r3, [r7, #12]
 800606c:	3304      	adds	r3, #4
 800606e:	4619      	mov	r1, r3
 8006070:	4610      	mov	r0, r2
 8006072:	f7fe fe4a 	bl	8004d0a <vListInsertEnd>

					/* If the moved task has a priority higher than the current
					task then a yield must be performed. */
					if( pxTCB->uxPriority >= pxCurrentTCB->uxPriority )
 8006076:	68fb      	ldr	r3, [r7, #12]
 8006078:	6ada      	ldr	r2, [r3, #44]	@ 0x2c
 800607a:	4b23      	ldr	r3, [pc, #140]	@ (8006108 <xTaskResumeAll+0x12c>)
 800607c:	681b      	ldr	r3, [r3, #0]
 800607e:	6adb      	ldr	r3, [r3, #44]	@ 0x2c
 8006080:	429a      	cmp	r2, r3
 8006082:	d302      	bcc.n	800608a <xTaskResumeAll+0xae>
					{
						xYieldPending = pdTRUE;
 8006084:	4b21      	ldr	r3, [pc, #132]	@ (800610c <xTaskResumeAll+0x130>)
 8006086:	2201      	movs	r2, #1
 8006088:	601a      	str	r2, [r3, #0]
				while( listLIST_IS_EMPTY( &xPendingReadyList ) == pdFALSE )
 800608a:	4b1c      	ldr	r3, [pc, #112]	@ (80060fc <xTaskResumeAll+0x120>)
 800608c:	681b      	ldr	r3, [r3, #0]
 800608e:	2b00      	cmp	r3, #0
 8006090:	d1cb      	bne.n	800602a <xTaskResumeAll+0x4e>
					{
						mtCOVERAGE_TEST_MARKER();
					}
				}

				if( pxTCB != NULL )
 8006092:	68fb      	ldr	r3, [r7, #12]
 8006094:	2b00      	cmp	r3, #0
 8006096:	d001      	beq.n	800609c <xTaskResumeAll+0xc0>
					which may have prevented the next unblock time from being
					re-calculated, in which case re-calculate it now.  Mainly
					important for low power tickless implementations, where
					this can prevent an unnecessary exit from low power
					state. */
					prvResetNextTaskUnblockTime();
 8006098:	f000 fb58 	bl	800674c <prvResetNextTaskUnblockTime>
				/* If any ticks occurred while the scheduler was suspended then
				they should be processed now.  This ensures the tick count does
				not	slip, and that any delayed tasks are resumed at the correct
				time. */
				{
					TickType_t xPendedCounts = xPendedTicks; /* Non-volatile copy. */
 800609c:	4b1c      	ldr	r3, [pc, #112]	@ (8006110 <xTaskResumeAll+0x134>)
 800609e:	681b      	ldr	r3, [r3, #0]
 80060a0:	607b      	str	r3, [r7, #4]

					if( xPendedCounts > ( TickType_t ) 0U )
 80060a2:	687b      	ldr	r3, [r7, #4]
 80060a4:	2b00      	cmp	r3, #0
 80060a6:	d010      	beq.n	80060ca <xTaskResumeAll+0xee>
					{
						do
						{
							if( xTaskIncrementTick() != pdFALSE )
 80060a8:	f000 f846 	bl	8006138 <xTaskIncrementTick>
 80060ac:	4603      	mov	r3, r0
 80060ae:	2b00      	cmp	r3, #0
 80060b0:	d002      	beq.n	80060b8 <xTaskResumeAll+0xdc>
							{
								xYieldPending = pdTRUE;
 80060b2:	4b16      	ldr	r3, [pc, #88]	@ (800610c <xTaskResumeAll+0x130>)
 80060b4:	2201      	movs	r2, #1
 80060b6:	601a      	str	r2, [r3, #0]
							}
							else
							{
								mtCOVERAGE_TEST_MARKER();
							}
							--xPendedCounts;
 80060b8:	687b      	ldr	r3, [r7, #4]
 80060ba:	3b01      	subs	r3, #1
 80060bc:	607b      	str	r3, [r7, #4]
						} while( xPendedCounts > ( TickType_t ) 0U );
 80060be:	687b      	ldr	r3, [r7, #4]
 80060c0:	2b00      	cmp	r3, #0
 80060c2:	d1f1      	bne.n	80060a8 <xTaskResumeAll+0xcc>

						xPendedTicks = 0;
 80060c4:	4b12      	ldr	r3, [pc, #72]	@ (8006110 <xTaskResumeAll+0x134>)
 80060c6:	2200      	movs	r2, #0
 80060c8:	601a      	str	r2, [r3, #0]
					{
						mtCOVERAGE_TEST_MARKER();
					}
				}

				if( xYieldPending != pdFALSE )
 80060ca:	4b10      	ldr	r3, [pc, #64]	@ (800610c <xTaskResumeAll+0x130>)
 80060cc:	681b      	ldr	r3, [r3, #0]
 80060ce:	2b00      	cmp	r3, #0
 80060d0:	d009      	beq.n	80060e6 <xTaskResumeAll+0x10a>
				{
					#if( configUSE_PREEMPTION != 0 )
					{
						xAlreadyYielded = pdTRUE;
 80060d2:	2301      	movs	r3, #1
 80060d4:	60bb      	str	r3, [r7, #8]
					}
					#endif
					taskYIELD_IF_USING_PREEMPTION();
 80060d6:	4b0f      	ldr	r3, [pc, #60]	@ (8006114 <xTaskResumeAll+0x138>)
 80060d8:	f04f 5280 	mov.w	r2, #268435456	@ 0x10000000
 80060dc:	601a      	str	r2, [r3, #0]
 80060de:	f3bf 8f4f 	dsb	sy
 80060e2:	f3bf 8f6f 	isb	sy
		else
		{
			mtCOVERAGE_TEST_MARKER();
		}
	}
	taskEXIT_CRITICAL();
 80060e6:	f001 f9f1 	bl	80074cc <vPortExitCritical>

	return xAlreadyYielded;
 80060ea:	68bb      	ldr	r3, [r7, #8]
}
 80060ec:	4618      	mov	r0, r3
 80060ee:	3710      	adds	r7, #16
 80060f0:	46bd      	mov	sp, r7
 80060f2:	bd80      	pop	{r7, pc}
 80060f4:	200014a0 	.word	0x200014a0
 80060f8:	20001478 	.word	0x20001478
 80060fc:	20001438 	.word	0x20001438
 8006100:	20001480 	.word	0x20001480
 8006104:	20000fa8 	.word	0x20000fa8
 8006108:	20000fa4 	.word	0x20000fa4
 800610c:	2000148c 	.word	0x2000148c
 8006110:	20001488 	.word	0x20001488
 8006114:	e000ed04 	.word	0xe000ed04

08006118 <xTaskGetTickCount>:
/*-----------------------------------------------------------*/

TickType_t xTaskGetTickCount( void )
{
 8006118:	b480      	push	{r7}
 800611a:	b083      	sub	sp, #12
 800611c:	af00      	add	r7, sp, #0
TickType_t xTicks;

	/* Critical section required if running on a 16 bit processor. */
	portTICK_TYPE_ENTER_CRITICAL();
	{
		xTicks = xTickCount;
 800611e:	4b05      	ldr	r3, [pc, #20]	@ (8006134 <xTaskGetTickCount+0x1c>)
 8006120:	681b      	ldr	r3, [r3, #0]
 8006122:	607b      	str	r3, [r7, #4]
	}
	portTICK_TYPE_EXIT_CRITICAL();

	return xTicks;
 8006124:	687b      	ldr	r3, [r7, #4]
}
 8006126:	4618      	mov	r0, r3
 8006128:	370c      	adds	r7, #12
 800612a:	46bd      	mov	sp, r7
 800612c:	f85d 7b04 	ldr.w	r7, [sp], #4
 8006130:	4770      	bx	lr
 8006132:	bf00      	nop
 8006134:	2000147c 	.word	0x2000147c

08006138 <xTaskIncrementTick>:

#endif /* INCLUDE_xTaskAbortDelay */
/*----------------------------------------------------------*/

BaseType_t xTaskIncrementTick( void )
{
 8006138:	b580      	push	{r7, lr}
 800613a:	b086      	sub	sp, #24
 800613c:	af00      	add	r7, sp, #0
TCB_t * pxTCB;
TickType_t xItemValue;
BaseType_t xSwitchRequired = pdFALSE;
 800613e:	2300      	movs	r3, #0
 8006140:	617b      	str	r3, [r7, #20]

	/* Called by the portable layer each time a tick interrupt occurs.
	Increments the tick then checks to see if the new tick value will cause any
	tasks to be unblocked. */
	traceTASK_INCREMENT_TICK( xTickCount );
	if( uxSchedulerSuspended == ( UBaseType_t ) pdFALSE )
 8006142:	4b4f      	ldr	r3, [pc, #316]	@ (8006280 <xTaskIncrementTick+0x148>)
 8006144:	681b      	ldr	r3, [r3, #0]
 8006146:	2b00      	cmp	r3, #0
 8006148:	f040 8090 	bne.w	800626c <xTaskIncrementTick+0x134>
	{
		/* Minor optimisation.  The tick count cannot change in this
		block. */
		const TickType_t xConstTickCount = xTickCount + ( TickType_t ) 1;
 800614c:	4b4d      	ldr	r3, [pc, #308]	@ (8006284 <xTaskIncrementTick+0x14c>)
 800614e:	681b      	ldr	r3, [r3, #0]
 8006150:	3301      	adds	r3, #1
 8006152:	613b      	str	r3, [r7, #16]

		/* Increment the RTOS tick, switching the delayed and overflowed
		delayed lists if it wraps to 0. */
		xTickCount = xConstTickCount;
 8006154:	4a4b      	ldr	r2, [pc, #300]	@ (8006284 <xTaskIncrementTick+0x14c>)
 8006156:	693b      	ldr	r3, [r7, #16]
 8006158:	6013      	str	r3, [r2, #0]

		if( xConstTickCount == ( TickType_t ) 0U ) /*lint !e774 'if' does not always evaluate to false as it is looking for an overflow. */
 800615a:	693b      	ldr	r3, [r7, #16]
 800615c:	2b00      	cmp	r3, #0
 800615e:	d121      	bne.n	80061a4 <xTaskIncrementTick+0x6c>
		{
			taskSWITCH_DELAYED_LISTS();
 8006160:	4b49      	ldr	r3, [pc, #292]	@ (8006288 <xTaskIncrementTick+0x150>)
 8006162:	681b      	ldr	r3, [r3, #0]
 8006164:	681b      	ldr	r3, [r3, #0]
 8006166:	2b00      	cmp	r3, #0
 8006168:	d00b      	beq.n	8006182 <xTaskIncrementTick+0x4a>
	__asm volatile
 800616a:	f04f 0350 	mov.w	r3, #80	@ 0x50
 800616e:	f383 8811 	msr	BASEPRI, r3
 8006172:	f3bf 8f6f 	isb	sy
 8006176:	f3bf 8f4f 	dsb	sy
 800617a:	603b      	str	r3, [r7, #0]
}
 800617c:	bf00      	nop
 800617e:	bf00      	nop
 8006180:	e7fd      	b.n	800617e <xTaskIncrementTick+0x46>
 8006182:	4b41      	ldr	r3, [pc, #260]	@ (8006288 <xTaskIncrementTick+0x150>)
 8006184:	681b      	ldr	r3, [r3, #0]
 8006186:	60fb      	str	r3, [r7, #12]
 8006188:	4b40      	ldr	r3, [pc, #256]	@ (800628c <xTaskIncrementTick+0x154>)
 800618a:	681b      	ldr	r3, [r3, #0]
 800618c:	4a3e      	ldr	r2, [pc, #248]	@ (8006288 <xTaskIncrementTick+0x150>)
 800618e:	6013      	str	r3, [r2, #0]
 8006190:	4a3e      	ldr	r2, [pc, #248]	@ (800628c <xTaskIncrementTick+0x154>)
 8006192:	68fb      	ldr	r3, [r7, #12]
 8006194:	6013      	str	r3, [r2, #0]
 8006196:	4b3e      	ldr	r3, [pc, #248]	@ (8006290 <xTaskIncrementTick+0x158>)
 8006198:	681b      	ldr	r3, [r3, #0]
 800619a:	3301      	adds	r3, #1
 800619c:	4a3c      	ldr	r2, [pc, #240]	@ (8006290 <xTaskIncrementTick+0x158>)
 800619e:	6013      	str	r3, [r2, #0]
 80061a0:	f000 fad4 	bl	800674c <prvResetNextTaskUnblockTime>

		/* See if this tick has made a timeout expire.  Tasks are stored in
		the	queue in the order of their wake time - meaning once one task
		has been found whose block time has not expired there is no need to
		look any further down the list. */
		if( xConstTickCount >= xNextTaskUnblockTime )
 80061a4:	4b3b      	ldr	r3, [pc, #236]	@ (8006294 <xTaskIncrementTick+0x15c>)
 80061a6:	681b      	ldr	r3, [r3, #0]
 80061a8:	693a      	ldr	r2, [r7, #16]
 80061aa:	429a      	cmp	r2, r3
 80061ac:	d349      	bcc.n	8006242 <xTaskIncrementTick+0x10a>
		{
			for( ;; )
			{
				if( listLIST_IS_EMPTY( pxDelayedTaskList ) != pdFALSE )
 80061ae:	4b36      	ldr	r3, [pc, #216]	@ (8006288 <xTaskIncrementTick+0x150>)
 80061b0:	681b      	ldr	r3, [r3, #0]
 80061b2:	681b      	ldr	r3, [r3, #0]
 80061b4:	2b00      	cmp	r3, #0
 80061b6:	d104      	bne.n	80061c2 <xTaskIncrementTick+0x8a>
					/* The delayed list is empty.  Set xNextTaskUnblockTime
					to the maximum possible value so it is extremely
					unlikely that the
					if( xTickCount >= xNextTaskUnblockTime ) test will pass
					next time through. */
					xNextTaskUnblockTime = portMAX_DELAY; /*lint !e961 MISRA exception as the casts are only redundant for some ports. */
 80061b8:	4b36      	ldr	r3, [pc, #216]	@ (8006294 <xTaskIncrementTick+0x15c>)
 80061ba:	f04f 32ff 	mov.w	r2, #4294967295	@ 0xffffffff
 80061be:	601a      	str	r2, [r3, #0]
					break;
 80061c0:	e03f      	b.n	8006242 <xTaskIncrementTick+0x10a>
				{
					/* The delayed list is not empty, get the value of the
					item at the head of the delayed list.  This is the time
					at which the task at the head of the delayed list must
					be removed from the Blocked state. */
					pxTCB = listGET_OWNER_OF_HEAD_ENTRY( pxDelayedTaskList ); /*lint !e9079 void * is used as this macro is used with timers and co-routines too.  Alignment is known to be fine as the type of the pointer stored and retrieved is the same. */
 80061c2:	4b31      	ldr	r3, [pc, #196]	@ (8006288 <xTaskIncrementTick+0x150>)
 80061c4:	681b      	ldr	r3, [r3, #0]
 80061c6:	68db      	ldr	r3, [r3, #12]
 80061c8:	68db      	ldr	r3, [r3, #12]
 80061ca:	60bb      	str	r3, [r7, #8]
					xItemValue = listGET_LIST_ITEM_VALUE( &( pxTCB->xStateListItem ) );
 80061cc:	68bb      	ldr	r3, [r7, #8]
 80061ce:	685b      	ldr	r3, [r3, #4]
 80061d0:	607b      	str	r3, [r7, #4]

					if( xConstTickCount < xItemValue )
 80061d2:	693a      	ldr	r2, [r7, #16]
 80061d4:	687b      	ldr	r3, [r7, #4]
 80061d6:	429a      	cmp	r2, r3
 80061d8:	d203      	bcs.n	80061e2 <xTaskIncrementTick+0xaa>
						/* It is not time to unblock this item yet, but the
						item value is the time at which the task at the head
						of the blocked list must be removed from the Blocked
						state -	so record the item value in
						xNextTaskUnblockTime. */
						xNextTaskUnblockTime = xItemValue;
 80061da:	4a2e      	ldr	r2, [pc, #184]	@ (8006294 <xTaskIncrementTick+0x15c>)
 80061dc:	687b      	ldr	r3, [r7, #4]
 80061de:	6013      	str	r3, [r2, #0]
						break; /*lint !e9011 Code structure here is deedmed easier to understand with multiple breaks. */
 80061e0:	e02f      	b.n	8006242 <xTaskIncrementTick+0x10a>
					{
						mtCOVERAGE_TEST_MARKER();
					}

					/* It is time to remove the item from the Blocked state. */
					( void ) uxListRemove( &( pxTCB->xStateListItem ) );
 80061e2:	68bb      	ldr	r3, [r7, #8]
 80061e4:	3304      	adds	r3, #4
 80061e6:	4618      	mov	r0, r3
 80061e8:	f7fe fdec 	bl	8004dc4 <uxListRemove>

					/* Is the task waiting on an event also?  If so remove
					it from the event list. */
					if( listLIST_ITEM_CONTAINER( &( pxTCB->xEventListItem ) ) != NULL )
 80061ec:	68bb      	ldr	r3, [r7, #8]
 80061ee:	6a9b      	ldr	r3, [r3, #40]	@ 0x28
 80061f0:	2b00      	cmp	r3, #0
 80061f2:	d004      	beq.n	80061fe <xTaskIncrementTick+0xc6>
					{
						( void ) uxListRemove( &( pxTCB->xEventListItem ) );
 80061f4:	68bb      	ldr	r3, [r7, #8]
 80061f6:	3318      	adds	r3, #24
 80061f8:	4618      	mov	r0, r3
 80061fa:	f7fe fde3 	bl	8004dc4 <uxListRemove>
						mtCOVERAGE_TEST_MARKER();
					}

					/* Place the unblocked task into the appropriate ready
					list. */
					prvAddTaskToReadyList( pxTCB );
 80061fe:	68bb      	ldr	r3, [r7, #8]
 8006200:	6ada      	ldr	r2, [r3, #44]	@ 0x2c
 8006202:	4b25      	ldr	r3, [pc, #148]	@ (8006298 <xTaskIncrementTick+0x160>)
 8006204:	681b      	ldr	r3, [r3, #0]
 8006206:	429a      	cmp	r2, r3
 8006208:	d903      	bls.n	8006212 <xTaskIncrementTick+0xda>
 800620a:	68bb      	ldr	r3, [r7, #8]
 800620c:	6adb      	ldr	r3, [r3, #44]	@ 0x2c
 800620e:	4a22      	ldr	r2, [pc, #136]	@ (8006298 <xTaskIncrementTick+0x160>)
 8006210:	6013      	str	r3, [r2, #0]
 8006212:	68bb      	ldr	r3, [r7, #8]
 8006214:	6ada      	ldr	r2, [r3, #44]	@ 0x2c
 8006216:	4613      	mov	r3, r2
 8006218:	009b      	lsls	r3, r3, #2
 800621a:	4413      	add	r3, r2
 800621c:	009b      	lsls	r3, r3, #2
 800621e:	4a1f      	ldr	r2, [pc, #124]	@ (800629c <xTaskIncrementTick+0x164>)
 8006220:	441a      	add	r2, r3
 8006222:	68bb      	ldr	r3, [r7, #8]
 8006224:	3304      	adds	r3, #4
 8006226:	4619      	mov	r1, r3
 8006228:	4610      	mov	r0, r2
 800622a:	f7fe fd6e 	bl	8004d0a <vListInsertEnd>
					{
						/* Preemption is on, but a context switch should
						only be performed if the unblocked task has a
						priority that is equal to or higher than the
						currently executing task. */
						if( pxTCB->uxPriority >= pxCurrentTCB->uxPriority )
 800622e:	68bb      	ldr	r3, [r7, #8]
 8006230:	6ada      	ldr	r2, [r3, #44]	@ 0x2c
 8006232:	4b1b      	ldr	r3, [pc, #108]	@ (80062a0 <xTaskIncrementTick+0x168>)
 8006234:	681b      	ldr	r3, [r3, #0]
 8006236:	6adb      	ldr	r3, [r3, #44]	@ 0x2c
 8006238:	429a      	cmp	r2, r3
 800623a:	d3b8      	bcc.n	80061ae <xTaskIncrementTick+0x76>
						{
							xSwitchRequired = pdTRUE;
 800623c:	2301      	movs	r3, #1
 800623e:	617b      	str	r3, [r7, #20]
				if( listLIST_IS_EMPTY( pxDelayedTaskList ) != pdFALSE )
 8006240:	e7b5      	b.n	80061ae <xTaskIncrementTick+0x76>
		/* Tasks of equal priority to the currently running task will share
		processing time (time slice) if preemption is on, and the application
		writer has not explicitly turned time slicing off. */
		#if ( ( configUSE_PREEMPTION == 1 ) && ( configUSE_TIME_SLICING == 1 ) )
		{
			if( listCURRENT_LIST_LENGTH( &( pxReadyTasksLists[ pxCurrentTCB->uxPriority ] ) ) > ( UBaseType_t ) 1 )
 8006242:	4b17      	ldr	r3, [pc, #92]	@ (80062a0 <xTaskIncrementTick+0x168>)
 8006244:	681b      	ldr	r3, [r3, #0]
 8006246:	6ada      	ldr	r2, [r3, #44]	@ 0x2c
 8006248:	4914      	ldr	r1, [pc, #80]	@ (800629c <xTaskIncrementTick+0x164>)
 800624a:	4613      	mov	r3, r2
 800624c:	009b      	lsls	r3, r3, #2
 800624e:	4413      	add	r3, r2
 8006250:	009b      	lsls	r3, r3, #2
 8006252:	440b      	add	r3, r1
 8006254:	681b      	ldr	r3, [r3, #0]
 8006256:	2b01      	cmp	r3, #1
 8006258:	d901      	bls.n	800625e <xTaskIncrementTick+0x126>
			{
				xSwitchRequired = pdTRUE;
 800625a:	2301      	movs	r3, #1
 800625c:	617b      	str	r3, [r7, #20]
		}
		#endif /* configUSE_TICK_HOOK */

		#if ( configUSE_PREEMPTION == 1 )
		{
			if( xYieldPending != pdFALSE )
 800625e:	4b11      	ldr	r3, [pc, #68]	@ (80062a4 <xTaskIncrementTick+0x16c>)
 8006260:	681b      	ldr	r3, [r3, #0]
 8006262:	2b00      	cmp	r3, #0
 8006264:	d007      	beq.n	8006276 <xTaskIncrementTick+0x13e>
			{
				xSwitchRequired = pdTRUE;
 8006266:	2301      	movs	r3, #1
 8006268:	617b      	str	r3, [r7, #20]
 800626a:	e004      	b.n	8006276 <xTaskIncrementTick+0x13e>
		}
		#endif /* configUSE_PREEMPTION */
	}
	else
	{
		++xPendedTicks;
 800626c:	4b0e      	ldr	r3, [pc, #56]	@ (80062a8 <xTaskIncrementTick+0x170>)
 800626e:	681b      	ldr	r3, [r3, #0]
 8006270:	3301      	adds	r3, #1
 8006272:	4a0d      	ldr	r2, [pc, #52]	@ (80062a8 <xTaskIncrementTick+0x170>)
 8006274:	6013      	str	r3, [r2, #0]
			vApplicationTickHook();
		}
		#endif
	}

	return xSwitchRequired;
 8006276:	697b      	ldr	r3, [r7, #20]
}
 8006278:	4618      	mov	r0, r3
 800627a:	3718      	adds	r7, #24
 800627c:	46bd      	mov	sp, r7
 800627e:	bd80      	pop	{r7, pc}
 8006280:	200014a0 	.word	0x200014a0
 8006284:	2000147c 	.word	0x2000147c
 8006288:	20001430 	.word	0x20001430
 800628c:	20001434 	.word	0x20001434
 8006290:	20001490 	.word	0x20001490
 8006294:	20001498 	.word	0x20001498
 8006298:	20001480 	.word	0x20001480
 800629c:	20000fa8 	.word	0x20000fa8
 80062a0:	20000fa4 	.word	0x20000fa4
 80062a4:	2000148c 	.word	0x2000148c
 80062a8:	20001488 	.word	0x20001488

080062ac <vTaskSwitchContext>:

#endif /* configUSE_APPLICATION_TASK_TAG */
/*-----------------------------------------------------------*/

void vTaskSwitchContext( void )
{
 80062ac:	b480      	push	{r7}
 80062ae:	b085      	sub	sp, #20
 80062b0:	af00      	add	r7, sp, #0
	if( uxSchedulerSuspended != ( UBaseType_t ) pdFALSE )
 80062b2:	4b28      	ldr	r3, [pc, #160]	@ (8006354 <vTaskSwitchContext+0xa8>)
 80062b4:	681b      	ldr	r3, [r3, #0]
 80062b6:	2b00      	cmp	r3, #0
 80062b8:	d003      	beq.n	80062c2 <vTaskSwitchContext+0x16>
	{
		/* The scheduler is currently suspended - do not allow a context
		switch. */
		xYieldPending = pdTRUE;
 80062ba:	4b27      	ldr	r3, [pc, #156]	@ (8006358 <vTaskSwitchContext+0xac>)
 80062bc:	2201      	movs	r2, #1
 80062be:	601a      	str	r2, [r3, #0]
			for additional information. */
			_impure_ptr = &( pxCurrentTCB->xNewLib_reent );
		}
		#endif /* configUSE_NEWLIB_REENTRANT */
	}
}
 80062c0:	e042      	b.n	8006348 <vTaskSwitchContext+0x9c>
		xYieldPending = pdFALSE;
 80062c2:	4b25      	ldr	r3, [pc, #148]	@ (8006358 <vTaskSwitchContext+0xac>)
 80062c4:	2200      	movs	r2, #0
 80062c6:	601a      	str	r2, [r3, #0]
		taskSELECT_HIGHEST_PRIORITY_TASK(); /*lint !e9079 void * is used as this macro is used with timers and co-routines too.  Alignment is known to be fine as the type of the pointer stored and retrieved is the same. */
 80062c8:	4b24      	ldr	r3, [pc, #144]	@ (800635c <vTaskSwitchContext+0xb0>)
 80062ca:	681b      	ldr	r3, [r3, #0]
 80062cc:	60fb      	str	r3, [r7, #12]
 80062ce:	e011      	b.n	80062f4 <vTaskSwitchContext+0x48>
 80062d0:	68fb      	ldr	r3, [r7, #12]
 80062d2:	2b00      	cmp	r3, #0
 80062d4:	d10b      	bne.n	80062ee <vTaskSwitchContext+0x42>
	__asm volatile
 80062d6:	f04f 0350 	mov.w	r3, #80	@ 0x50
 80062da:	f383 8811 	msr	BASEPRI, r3
 80062de:	f3bf 8f6f 	isb	sy
 80062e2:	f3bf 8f4f 	dsb	sy
 80062e6:	607b      	str	r3, [r7, #4]
}
 80062e8:	bf00      	nop
 80062ea:	bf00      	nop
 80062ec:	e7fd      	b.n	80062ea <vTaskSwitchContext+0x3e>
 80062ee:	68fb      	ldr	r3, [r7, #12]
 80062f0:	3b01      	subs	r3, #1
 80062f2:	60fb      	str	r3, [r7, #12]
 80062f4:	491a      	ldr	r1, [pc, #104]	@ (8006360 <vTaskSwitchContext+0xb4>)
 80062f6:	68fa      	ldr	r2, [r7, #12]
 80062f8:	4613      	mov	r3, r2
 80062fa:	009b      	lsls	r3, r3, #2
 80062fc:	4413      	add	r3, r2
 80062fe:	009b      	lsls	r3, r3, #2
 8006300:	440b      	add	r3, r1
 8006302:	681b      	ldr	r3, [r3, #0]
 8006304:	2b00      	cmp	r3, #0
 8006306:	d0e3      	beq.n	80062d0 <vTaskSwitchContext+0x24>
 8006308:	68fa      	ldr	r2, [r7, #12]
 800630a:	4613      	mov	r3, r2
 800630c:	009b      	lsls	r3, r3, #2
 800630e:	4413      	add	r3, r2
 8006310:	009b      	lsls	r3, r3, #2
 8006312:	4a13      	ldr	r2, [pc, #76]	@ (8006360 <vTaskSwitchContext+0xb4>)
 8006314:	4413      	add	r3, r2
 8006316:	60bb      	str	r3, [r7, #8]
 8006318:	68bb      	ldr	r3, [r7, #8]
 800631a:	685b      	ldr	r3, [r3, #4]
 800631c:	685a      	ldr	r2, [r3, #4]
 800631e:	68bb      	ldr	r3, [r7, #8]
 8006320:	605a      	str	r2, [r3, #4]
 8006322:	68bb      	ldr	r3, [r7, #8]
 8006324:	685a      	ldr	r2, [r3, #4]
 8006326:	68bb      	ldr	r3, [r7, #8]
 8006328:	3308      	adds	r3, #8
 800632a:	429a      	cmp	r2, r3
 800632c:	d104      	bne.n	8006338 <vTaskSwitchContext+0x8c>
 800632e:	68bb      	ldr	r3, [r7, #8]
 8006330:	685b      	ldr	r3, [r3, #4]
 8006332:	685a      	ldr	r2, [r3, #4]
 8006334:	68bb      	ldr	r3, [r7, #8]
 8006336:	605a      	str	r2, [r3, #4]
 8006338:	68bb      	ldr	r3, [r7, #8]
 800633a:	685b      	ldr	r3, [r3, #4]
 800633c:	68db      	ldr	r3, [r3, #12]
 800633e:	4a09      	ldr	r2, [pc, #36]	@ (8006364 <vTaskSwitchContext+0xb8>)
 8006340:	6013      	str	r3, [r2, #0]
 8006342:	4a06      	ldr	r2, [pc, #24]	@ (800635c <vTaskSwitchContext+0xb0>)
 8006344:	68fb      	ldr	r3, [r7, #12]
 8006346:	6013      	str	r3, [r2, #0]
}
 8006348:	bf00      	nop
 800634a:	3714      	adds	r7, #20
 800634c:	46bd      	mov	sp, r7
 800634e:	f85d 7b04 	ldr.w	r7, [sp], #4
 8006352:	4770      	bx	lr
 8006354:	200014a0 	.word	0x200014a0
 8006358:	2000148c 	.word	0x2000148c
 800635c:	20001480 	.word	0x20001480
 8006360:	20000fa8 	.word	0x20000fa8
 8006364:	20000fa4 	.word	0x20000fa4

08006368 <vTaskPlaceOnEventList>:
/*-----------------------------------------------------------*/

void vTaskPlaceOnEventList( List_t * const pxEventList, const TickType_t xTicksToWait )
{
 8006368:	b580      	push	{r7, lr}
 800636a:	b084      	sub	sp, #16
 800636c:	af00      	add	r7, sp, #0
 800636e:	6078      	str	r0, [r7, #4]
 8006370:	6039      	str	r1, [r7, #0]
	configASSERT( pxEventList );
 8006372:	687b      	ldr	r3, [r7, #4]
 8006374:	2b00      	cmp	r3, #0
 8006376:	d10b      	bne.n	8006390 <vTaskPlaceOnEventList+0x28>
	__asm volatile
 8006378:	f04f 0350 	mov.w	r3, #80	@ 0x50
 800637c:	f383 8811 	msr	BASEPRI, r3
 8006380:	f3bf 8f6f 	isb	sy
 8006384:	f3bf 8f4f 	dsb	sy
 8006388:	60fb      	str	r3, [r7, #12]
}
 800638a:	bf00      	nop
 800638c:	bf00      	nop
 800638e:	e7fd      	b.n	800638c <vTaskPlaceOnEventList+0x24>

	/* Place the event list item of the TCB in the appropriate event list.
	This is placed in the list in priority order so the highest priority task
	is the first to be woken by the event.  The queue that contains the event
	list is locked, preventing simultaneous access from interrupts. */
	vListInsert( pxEventList, &( pxCurrentTCB->xEventListItem ) );
 8006390:	4b07      	ldr	r3, [pc, #28]	@ (80063b0 <vTaskPlaceOnEventList+0x48>)
 8006392:	681b      	ldr	r3, [r3, #0]
 8006394:	3318      	adds	r3, #24
 8006396:	4619      	mov	r1, r3
 8006398:	6878      	ldr	r0, [r7, #4]
 800639a:	f7fe fcda 	bl	8004d52 <vListInsert>

	prvAddCurrentTaskToDelayedList( xTicksToWait, pdTRUE );
 800639e:	2101      	movs	r1, #1
 80063a0:	6838      	ldr	r0, [r7, #0]
 80063a2:	f000 fb81 	bl	8006aa8 <prvAddCurrentTaskToDelayedList>
}
 80063a6:	bf00      	nop
 80063a8:	3710      	adds	r7, #16
 80063aa:	46bd      	mov	sp, r7
 80063ac:	bd80      	pop	{r7, pc}
 80063ae:	bf00      	nop
 80063b0:	20000fa4 	.word	0x20000fa4

080063b4 <vTaskPlaceOnEventListRestricted>:
/*-----------------------------------------------------------*/

#if( configUSE_TIMERS == 1 )

	void vTaskPlaceOnEventListRestricted( List_t * const pxEventList, TickType_t xTicksToWait, const BaseType_t xWaitIndefinitely )
	{
 80063b4:	b580      	push	{r7, lr}
 80063b6:	b086      	sub	sp, #24
 80063b8:	af00      	add	r7, sp, #0
 80063ba:	60f8      	str	r0, [r7, #12]
 80063bc:	60b9      	str	r1, [r7, #8]
 80063be:	607a      	str	r2, [r7, #4]
		configASSERT( pxEventList );
 80063c0:	68fb      	ldr	r3, [r7, #12]
 80063c2:	2b00      	cmp	r3, #0
 80063c4:	d10b      	bne.n	80063de <vTaskPlaceOnEventListRestricted+0x2a>
	__asm volatile
 80063c6:	f04f 0350 	mov.w	r3, #80	@ 0x50
 80063ca:	f383 8811 	msr	BASEPRI, r3
 80063ce:	f3bf 8f6f 	isb	sy
 80063d2:	f3bf 8f4f 	dsb	sy
 80063d6:	617b      	str	r3, [r7, #20]
}
 80063d8:	bf00      	nop
 80063da:	bf00      	nop
 80063dc:	e7fd      	b.n	80063da <vTaskPlaceOnEventListRestricted+0x26>

		/* Place the event list item of the TCB in the appropriate event list.
		In this case it is assume that this is the only task that is going to
		be waiting on this event list, so the faster vListInsertEnd() function
		can be used in place of vListInsert. */
		vListInsertEnd( pxEventList, &( pxCurrentTCB->xEventListItem ) );
 80063de:	4b0a      	ldr	r3, [pc, #40]	@ (8006408 <vTaskPlaceOnEventListRestricted+0x54>)
 80063e0:	681b      	ldr	r3, [r3, #0]
 80063e2:	3318      	adds	r3, #24
 80063e4:	4619      	mov	r1, r3
 80063e6:	68f8      	ldr	r0, [r7, #12]
 80063e8:	f7fe fc8f 	bl	8004d0a <vListInsertEnd>

		/* If the task should block indefinitely then set the block time to a
		value that will be recognised as an indefinite delay inside the
		prvAddCurrentTaskToDelayedList() function. */
		if( xWaitIndefinitely != pdFALSE )
 80063ec:	687b      	ldr	r3, [r7, #4]
 80063ee:	2b00      	cmp	r3, #0
 80063f0:	d002      	beq.n	80063f8 <vTaskPlaceOnEventListRestricted+0x44>
		{
			xTicksToWait = portMAX_DELAY;
 80063f2:	f04f 33ff 	mov.w	r3, #4294967295	@ 0xffffffff
 80063f6:	60bb      	str	r3, [r7, #8]
		}

		traceTASK_DELAY_UNTIL( ( xTickCount + xTicksToWait ) );
		prvAddCurrentTaskToDelayedList( xTicksToWait, xWaitIndefinitely );
 80063f8:	6879      	ldr	r1, [r7, #4]
 80063fa:	68b8      	ldr	r0, [r7, #8]
 80063fc:	f000 fb54 	bl	8006aa8 <prvAddCurrentTaskToDelayedList>
	}
 8006400:	bf00      	nop
 8006402:	3718      	adds	r7, #24
 8006404:	46bd      	mov	sp, r7
 8006406:	bd80      	pop	{r7, pc}
 8006408:	20000fa4 	.word	0x20000fa4

0800640c <xTaskRemoveFromEventList>:

#endif /* configUSE_TIMERS */
/*-----------------------------------------------------------*/

BaseType_t xTaskRemoveFromEventList( const List_t * const pxEventList )
{
 800640c:	b580      	push	{r7, lr}
 800640e:	b086      	sub	sp, #24
 8006410:	af00      	add	r7, sp, #0
 8006412:	6078      	str	r0, [r7, #4]
	get called - the lock count on the queue will get modified instead.  This
	means exclusive access to the event list is guaranteed here.

	This function assumes that a check has already been made to ensure that
	pxEventList is not empty. */
	pxUnblockedTCB = listGET_OWNER_OF_HEAD_ENTRY( pxEventList ); /*lint !e9079 void * is used as this macro is used with timers and co-routines too.  Alignment is known to be fine as the type of the pointer stored and retrieved is the same. */
 8006414:	687b      	ldr	r3, [r7, #4]
 8006416:	68db      	ldr	r3, [r3, #12]
 8006418:	68db      	ldr	r3, [r3, #12]
 800641a:	613b      	str	r3, [r7, #16]
	configASSERT( pxUnblockedTCB );
 800641c:	693b      	ldr	r3, [r7, #16]
 800641e:	2b00      	cmp	r3, #0
 8006420:	d10b      	bne.n	800643a <xTaskRemoveFromEventList+0x2e>
	__asm volatile
 8006422:	f04f 0350 	mov.w	r3, #80	@ 0x50
 8006426:	f383 8811 	msr	BASEPRI, r3
 800642a:	f3bf 8f6f 	isb	sy
 800642e:	f3bf 8f4f 	dsb	sy
 8006432:	60fb      	str	r3, [r7, #12]
}
 8006434:	bf00      	nop
 8006436:	bf00      	nop
 8006438:	e7fd      	b.n	8006436 <xTaskRemoveFromEventList+0x2a>
	( void ) uxListRemove( &( pxUnblockedTCB->xEventListItem ) );
 800643a:	693b      	ldr	r3, [r7, #16]
 800643c:	3318      	adds	r3, #24
 800643e:	4618      	mov	r0, r3
 8006440:	f7fe fcc0 	bl	8004dc4 <uxListRemove>

	if( uxSchedulerSuspended == ( UBaseType_t ) pdFALSE )
 8006444:	4b1d      	ldr	r3, [pc, #116]	@ (80064bc <xTaskRemoveFromEventList+0xb0>)
 8006446:	681b      	ldr	r3, [r3, #0]
 8006448:	2b00      	cmp	r3, #0
 800644a:	d11d      	bne.n	8006488 <xTaskRemoveFromEventList+0x7c>
	{
		( void ) uxListRemove( &( pxUnblockedTCB->xStateListItem ) );
 800644c:	693b      	ldr	r3, [r7, #16]
 800644e:	3304      	adds	r3, #4
 8006450:	4618      	mov	r0, r3
 8006452:	f7fe fcb7 	bl	8004dc4 <uxListRemove>
		prvAddTaskToReadyList( pxUnblockedTCB );
 8006456:	693b      	ldr	r3, [r7, #16]
 8006458:	6ada      	ldr	r2, [r3, #44]	@ 0x2c
 800645a:	4b19      	ldr	r3, [pc, #100]	@ (80064c0 <xTaskRemoveFromEventList+0xb4>)
 800645c:	681b      	ldr	r3, [r3, #0]
 800645e:	429a      	cmp	r2, r3
 8006460:	d903      	bls.n	800646a <xTaskRemoveFromEventList+0x5e>
 8006462:	693b      	ldr	r3, [r7, #16]
 8006464:	6adb      	ldr	r3, [r3, #44]	@ 0x2c
 8006466:	4a16      	ldr	r2, [pc, #88]	@ (80064c0 <xTaskRemoveFromEventList+0xb4>)
 8006468:	6013      	str	r3, [r2, #0]
 800646a:	693b      	ldr	r3, [r7, #16]
 800646c:	6ada      	ldr	r2, [r3, #44]	@ 0x2c
 800646e:	4613      	mov	r3, r2
 8006470:	009b      	lsls	r3, r3, #2
 8006472:	4413      	add	r3, r2
 8006474:	009b      	lsls	r3, r3, #2
 8006476:	4a13      	ldr	r2, [pc, #76]	@ (80064c4 <xTaskRemoveFromEventList+0xb8>)
 8006478:	441a      	add	r2, r3
 800647a:	693b      	ldr	r3, [r7, #16]
 800647c:	3304      	adds	r3, #4
 800647e:	4619      	mov	r1, r3
 8006480:	4610      	mov	r0, r2
 8006482:	f7fe fc42 	bl	8004d0a <vListInsertEnd>
 8006486:	e005      	b.n	8006494 <xTaskRemoveFromEventList+0x88>
	}
	else
	{
		/* The delayed and ready lists cannot be accessed, so hold this task
		pending until the scheduler is resumed. */
		vListInsertEnd( &( xPendingReadyList ), &( pxUnblockedTCB->xEventListItem ) );
 8006488:	693b      	ldr	r3, [r7, #16]
 800648a:	3318      	adds	r3, #24
 800648c:	4619      	mov	r1, r3
 800648e:	480e      	ldr	r0, [pc, #56]	@ (80064c8 <xTaskRemoveFromEventList+0xbc>)
 8006490:	f7fe fc3b 	bl	8004d0a <vListInsertEnd>
	}

	if( pxUnblockedTCB->uxPriority > pxCurrentTCB->uxPriority )
 8006494:	693b      	ldr	r3, [r7, #16]
 8006496:	6ada      	ldr	r2, [r3, #44]	@ 0x2c
 8006498:	4b0c      	ldr	r3, [pc, #48]	@ (80064cc <xTaskRemoveFromEventList+0xc0>)
 800649a:	681b      	ldr	r3, [r3, #0]
 800649c:	6adb      	ldr	r3, [r3, #44]	@ 0x2c
 800649e:	429a      	cmp	r2, r3
 80064a0:	d905      	bls.n	80064ae <xTaskRemoveFromEventList+0xa2>
	{
		/* Return true if the task removed from the event list has a higher
		priority than the calling task.  This allows the calling task to know if
		it should force a context switch now. */
		xReturn = pdTRUE;
 80064a2:	2301      	movs	r3, #1
 80064a4:	617b      	str	r3, [r7, #20]

		/* Mark that a yield is pending in case the user is not using the
		"xHigherPriorityTaskWoken" parameter to an ISR safe FreeRTOS function. */
		xYieldPending = pdTRUE;
 80064a6:	4b0a      	ldr	r3, [pc, #40]	@ (80064d0 <xTaskRemoveFromEventList+0xc4>)
 80064a8:	2201      	movs	r2, #1
 80064aa:	601a      	str	r2, [r3, #0]
 80064ac:	e001      	b.n	80064b2 <xTaskRemoveFromEventList+0xa6>
	}
	else
	{
		xReturn = pdFALSE;
 80064ae:	2300      	movs	r3, #0
 80064b0:	617b      	str	r3, [r7, #20]
	}

	return xReturn;
 80064b2:	697b      	ldr	r3, [r7, #20]
}
 80064b4:	4618      	mov	r0, r3
 80064b6:	3718      	adds	r7, #24
 80064b8:	46bd      	mov	sp, r7
 80064ba:	bd80      	pop	{r7, pc}
 80064bc:	200014a0 	.word	0x200014a0
 80064c0:	20001480 	.word	0x20001480
 80064c4:	20000fa8 	.word	0x20000fa8
 80064c8:	20001438 	.word	0x20001438
 80064cc:	20000fa4 	.word	0x20000fa4
 80064d0:	2000148c 	.word	0x2000148c

080064d4 <vTaskInternalSetTimeOutState>:
	taskEXIT_CRITICAL();
}
/*-----------------------------------------------------------*/

void vTaskInternalSetTimeOutState( TimeOut_t * const pxTimeOut )
{
 80064d4:	b480      	push	{r7}
 80064d6:	b083      	sub	sp, #12
 80064d8:	af00      	add	r7, sp, #0
 80064da:	6078      	str	r0, [r7, #4]
	/* For internal use only as it does not use a critical section. */
	pxTimeOut->xOverflowCount = xNumOfOverflows;
 80064dc:	4b06      	ldr	r3, [pc, #24]	@ (80064f8 <vTaskInternalSetTimeOutState+0x24>)
 80064de:	681a      	ldr	r2, [r3, #0]
 80064e0:	687b      	ldr	r3, [r7, #4]
 80064e2:	601a      	str	r2, [r3, #0]
	pxTimeOut->xTimeOnEntering = xTickCount;
 80064e4:	4b05      	ldr	r3, [pc, #20]	@ (80064fc <vTaskInternalSetTimeOutState+0x28>)
 80064e6:	681a      	ldr	r2, [r3, #0]
 80064e8:	687b      	ldr	r3, [r7, #4]
 80064ea:	605a      	str	r2, [r3, #4]
}
 80064ec:	bf00      	nop
 80064ee:	370c      	adds	r7, #12
 80064f0:	46bd      	mov	sp, r7
 80064f2:	f85d 7b04 	ldr.w	r7, [sp], #4
 80064f6:	4770      	bx	lr
 80064f8:	20001490 	.word	0x20001490
 80064fc:	2000147c 	.word	0x2000147c

08006500 <xTaskCheckForTimeOut>:
/*-----------------------------------------------------------*/

BaseType_t xTaskCheckForTimeOut( TimeOut_t * const pxTimeOut, TickType_t * const pxTicksToWait )
{
 8006500:	b580      	push	{r7, lr}
 8006502:	b088      	sub	sp, #32
 8006504:	af00      	add	r7, sp, #0
 8006506:	6078      	str	r0, [r7, #4]
 8006508:	6039      	str	r1, [r7, #0]
BaseType_t xReturn;

	configASSERT( pxTimeOut );
 800650a:	687b      	ldr	r3, [r7, #4]
 800650c:	2b00      	cmp	r3, #0
 800650e:	d10b      	bne.n	8006528 <xTaskCheckForTimeOut+0x28>
	__asm volatile
 8006510:	f04f 0350 	mov.w	r3, #80	@ 0x50
 8006514:	f383 8811 	msr	BASEPRI, r3
 8006518:	f3bf 8f6f 	isb	sy
 800651c:	f3bf 8f4f 	dsb	sy
 8006520:	613b      	str	r3, [r7, #16]
}
 8006522:	bf00      	nop
 8006524:	bf00      	nop
 8006526:	e7fd      	b.n	8006524 <xTaskCheckForTimeOut+0x24>
	configASSERT( pxTicksToWait );
 8006528:	683b      	ldr	r3, [r7, #0]
 800652a:	2b00      	cmp	r3, #0
 800652c:	d10b      	bne.n	8006546 <xTaskCheckForTimeOut+0x46>
	__asm volatile
 800652e:	f04f 0350 	mov.w	r3, #80	@ 0x50
 8006532:	f383 8811 	msr	BASEPRI, r3
 8006536:	f3bf 8f6f 	isb	sy
 800653a:	f3bf 8f4f 	dsb	sy
 800653e:	60fb      	str	r3, [r7, #12]
}
 8006540:	bf00      	nop
 8006542:	bf00      	nop
 8006544:	e7fd      	b.n	8006542 <xTaskCheckForTimeOut+0x42>

	taskENTER_CRITICAL();
 8006546:	f000 ff8f 	bl	8007468 <vPortEnterCritical>
	{
		/* Minor optimisation.  The tick count cannot change in this block. */
		const TickType_t xConstTickCount = xTickCount;
 800654a:	4b1d      	ldr	r3, [pc, #116]	@ (80065c0 <xTaskCheckForTimeOut+0xc0>)
 800654c:	681b      	ldr	r3, [r3, #0]
 800654e:	61bb      	str	r3, [r7, #24]
		const TickType_t xElapsedTime = xConstTickCount - pxTimeOut->xTimeOnEntering;
 8006550:	687b      	ldr	r3, [r7, #4]
 8006552:	685b      	ldr	r3, [r3, #4]
 8006554:	69ba      	ldr	r2, [r7, #24]
 8006556:	1ad3      	subs	r3, r2, r3
 8006558:	617b      	str	r3, [r7, #20]
			}
			else
		#endif

		#if ( INCLUDE_vTaskSuspend == 1 )
			if( *pxTicksToWait == portMAX_DELAY )
 800655a:	683b      	ldr	r3, [r7, #0]
 800655c:	681b      	ldr	r3, [r3, #0]
 800655e:	f1b3 3fff 	cmp.w	r3, #4294967295	@ 0xffffffff
 8006562:	d102      	bne.n	800656a <xTaskCheckForTimeOut+0x6a>
			{
				/* If INCLUDE_vTaskSuspend is set to 1 and the block time
				specified is the maximum block time then the task should block
				indefinitely, and therefore never time out. */
				xReturn = pdFALSE;
 8006564:	2300      	movs	r3, #0
 8006566:	61fb      	str	r3, [r7, #28]
 8006568:	e023      	b.n	80065b2 <xTaskCheckForTimeOut+0xb2>
			}
			else
		#endif

		if( ( xNumOfOverflows != pxTimeOut->xOverflowCount ) && ( xConstTickCount >= pxTimeOut->xTimeOnEntering ) ) /*lint !e525 Indentation preferred as is to make code within pre-processor directives clearer. */
 800656a:	687b      	ldr	r3, [r7, #4]
 800656c:	681a      	ldr	r2, [r3, #0]
 800656e:	4b15      	ldr	r3, [pc, #84]	@ (80065c4 <xTaskCheckForTimeOut+0xc4>)
 8006570:	681b      	ldr	r3, [r3, #0]
 8006572:	429a      	cmp	r2, r3
 8006574:	d007      	beq.n	8006586 <xTaskCheckForTimeOut+0x86>
 8006576:	687b      	ldr	r3, [r7, #4]
 8006578:	685b      	ldr	r3, [r3, #4]
 800657a:	69ba      	ldr	r2, [r7, #24]
 800657c:	429a      	cmp	r2, r3
 800657e:	d302      	bcc.n	8006586 <xTaskCheckForTimeOut+0x86>
			/* The tick count is greater than the time at which
			vTaskSetTimeout() was called, but has also overflowed since
			vTaskSetTimeOut() was called.  It must have wrapped all the way
			around and gone past again. This passed since vTaskSetTimeout()
			was called. */
			xReturn = pdTRUE;
 8006580:	2301      	movs	r3, #1
 8006582:	61fb      	str	r3, [r7, #28]
 8006584:	e015      	b.n	80065b2 <xTaskCheckForTimeOut+0xb2>
		}
		else if( xElapsedTime < *pxTicksToWait ) /*lint !e961 Explicit casting is only redundant with some compilers, whereas others require it to prevent integer conversion errors. */
 8006586:	683b      	ldr	r3, [r7, #0]
 8006588:	681b      	ldr	r3, [r3, #0]
 800658a:	697a      	ldr	r2, [r7, #20]
 800658c:	429a      	cmp	r2, r3
 800658e:	d20b      	bcs.n	80065a8 <xTaskCheckForTimeOut+0xa8>
		{
			/* Not a genuine timeout. Adjust parameters for time remaining. */
			*pxTicksToWait -= xElapsedTime;
 8006590:	683b      	ldr	r3, [r7, #0]
 8006592:	681a      	ldr	r2, [r3, #0]
 8006594:	697b      	ldr	r3, [r7, #20]
 8006596:	1ad2      	subs	r2, r2, r3
 8006598:	683b      	ldr	r3, [r7, #0]
 800659a:	601a      	str	r2, [r3, #0]
			vTaskInternalSetTimeOutState( pxTimeOut );
 800659c:	6878      	ldr	r0, [r7, #4]
 800659e:	f7ff ff99 	bl	80064d4 <vTaskInternalSetTimeOutState>
			xReturn = pdFALSE;
 80065a2:	2300      	movs	r3, #0
 80065a4:	61fb      	str	r3, [r7, #28]
 80065a6:	e004      	b.n	80065b2 <xTaskCheckForTimeOut+0xb2>
		}
		else
		{
			*pxTicksToWait = 0;
 80065a8:	683b      	ldr	r3, [r7, #0]
 80065aa:	2200      	movs	r2, #0
 80065ac:	601a      	str	r2, [r3, #0]
			xReturn = pdTRUE;
 80065ae:	2301      	movs	r3, #1
 80065b0:	61fb      	str	r3, [r7, #28]
		}
	}
	taskEXIT_CRITICAL();
 80065b2:	f000 ff8b 	bl	80074cc <vPortExitCritical>

	return xReturn;
 80065b6:	69fb      	ldr	r3, [r7, #28]
}
 80065b8:	4618      	mov	r0, r3
 80065ba:	3720      	adds	r7, #32
 80065bc:	46bd      	mov	sp, r7
 80065be:	bd80      	pop	{r7, pc}
 80065c0:	2000147c 	.word	0x2000147c
 80065c4:	20001490 	.word	0x20001490

080065c8 <vTaskMissedYield>:
/*-----------------------------------------------------------*/

void vTaskMissedYield( void )
{
 80065c8:	b480      	push	{r7}
 80065ca:	af00      	add	r7, sp, #0
	xYieldPending = pdTRUE;
 80065cc:	4b03      	ldr	r3, [pc, #12]	@ (80065dc <vTaskMissedYield+0x14>)
 80065ce:	2201      	movs	r2, #1
 80065d0:	601a      	str	r2, [r3, #0]
}
 80065d2:	bf00      	nop
 80065d4:	46bd      	mov	sp, r7
 80065d6:	f85d 7b04 	ldr.w	r7, [sp], #4
 80065da:	4770      	bx	lr
 80065dc:	2000148c 	.word	0x2000148c

080065e0 <prvIdleTask>:
 *
 * void prvIdleTask( void *pvParameters );
 *
 */
static portTASK_FUNCTION( prvIdleTask, pvParameters )
{
 80065e0:	b580      	push	{r7, lr}
 80065e2:	b082      	sub	sp, #8
 80065e4:	af00      	add	r7, sp, #0
 80065e6:	6078      	str	r0, [r7, #4]

	for( ;; )
	{
		/* See if any tasks have deleted themselves - if so then the idle task
		is responsible for freeing the deleted task's TCB and stack. */
		prvCheckTasksWaitingTermination();
 80065e8:	f000 f852 	bl	8006690 <prvCheckTasksWaitingTermination>

			A critical region is not required here as we are just reading from
			the list, and an occasional incorrect value will not matter.  If
			the ready list at the idle priority contains more than one task
			then a task other than the idle task is ready to execute. */
			if( listCURRENT_LIST_LENGTH( &( pxReadyTasksLists[ tskIDLE_PRIORITY ] ) ) > ( UBaseType_t ) 1 )
 80065ec:	4b06      	ldr	r3, [pc, #24]	@ (8006608 <prvIdleTask+0x28>)
 80065ee:	681b      	ldr	r3, [r3, #0]
 80065f0:	2b01      	cmp	r3, #1
 80065f2:	d9f9      	bls.n	80065e8 <prvIdleTask+0x8>
			{
				taskYIELD();
 80065f4:	4b05      	ldr	r3, [pc, #20]	@ (800660c <prvIdleTask+0x2c>)
 80065f6:	f04f 5280 	mov.w	r2, #268435456	@ 0x10000000
 80065fa:	601a      	str	r2, [r3, #0]
 80065fc:	f3bf 8f4f 	dsb	sy
 8006600:	f3bf 8f6f 	isb	sy
		prvCheckTasksWaitingTermination();
 8006604:	e7f0      	b.n	80065e8 <prvIdleTask+0x8>
 8006606:	bf00      	nop
 8006608:	20000fa8 	.word	0x20000fa8
 800660c:	e000ed04 	.word	0xe000ed04

08006610 <prvInitialiseTaskLists>:

#endif /* portUSING_MPU_WRAPPERS */
/*-----------------------------------------------------------*/

static void prvInitialiseTaskLists( void )
{
 8006610:	b580      	push	{r7, lr}
 8006612:	b082      	sub	sp, #8
 8006614:	af00      	add	r7, sp, #0
UBaseType_t uxPriority;

	for( uxPriority = ( UBaseType_t ) 0U; uxPriority < ( UBaseType_t ) configMAX_PRIORITIES; uxPriority++ )
 8006616:	2300      	movs	r3, #0
 8006618:	607b      	str	r3, [r7, #4]
 800661a:	e00c      	b.n	8006636 <prvInitialiseTaskLists+0x26>
	{
		vListInitialise( &( pxReadyTasksLists[ uxPriority ] ) );
 800661c:	687a      	ldr	r2, [r7, #4]
 800661e:	4613      	mov	r3, r2
 8006620:	009b      	lsls	r3, r3, #2
 8006622:	4413      	add	r3, r2
 8006624:	009b      	lsls	r3, r3, #2
 8006626:	4a12      	ldr	r2, [pc, #72]	@ (8006670 <prvInitialiseTaskLists+0x60>)
 8006628:	4413      	add	r3, r2
 800662a:	4618      	mov	r0, r3
 800662c:	f7fe fb40 	bl	8004cb0 <vListInitialise>
	for( uxPriority = ( UBaseType_t ) 0U; uxPriority < ( UBaseType_t ) configMAX_PRIORITIES; uxPriority++ )
 8006630:	687b      	ldr	r3, [r7, #4]
 8006632:	3301      	adds	r3, #1
 8006634:	607b      	str	r3, [r7, #4]
 8006636:	687b      	ldr	r3, [r7, #4]
 8006638:	2b37      	cmp	r3, #55	@ 0x37
 800663a:	d9ef      	bls.n	800661c <prvInitialiseTaskLists+0xc>
	}

	vListInitialise( &xDelayedTaskList1 );
 800663c:	480d      	ldr	r0, [pc, #52]	@ (8006674 <prvInitialiseTaskLists+0x64>)
 800663e:	f7fe fb37 	bl	8004cb0 <vListInitialise>
	vListInitialise( &xDelayedTaskList2 );
 8006642:	480d      	ldr	r0, [pc, #52]	@ (8006678 <prvInitialiseTaskLists+0x68>)
 8006644:	f7fe fb34 	bl	8004cb0 <vListInitialise>
	vListInitialise( &xPendingReadyList );
 8006648:	480c      	ldr	r0, [pc, #48]	@ (800667c <prvInitialiseTaskLists+0x6c>)
 800664a:	f7fe fb31 	bl	8004cb0 <vListInitialise>

	#if ( INCLUDE_vTaskDelete == 1 )
	{
		vListInitialise( &xTasksWaitingTermination );
 800664e:	480c      	ldr	r0, [pc, #48]	@ (8006680 <prvInitialiseTaskLists+0x70>)
 8006650:	f7fe fb2e 	bl	8004cb0 <vListInitialise>
	}
	#endif /* INCLUDE_vTaskDelete */

	#if ( INCLUDE_vTaskSuspend == 1 )
	{
		vListInitialise( &xSuspendedTaskList );
 8006654:	480b      	ldr	r0, [pc, #44]	@ (8006684 <prvInitialiseTaskLists+0x74>)
 8006656:	f7fe fb2b 	bl	8004cb0 <vListInitialise>
	}
	#endif /* INCLUDE_vTaskSuspend */

	/* Start with pxDelayedTaskList using list1 and the pxOverflowDelayedTaskList
	using list2. */
	pxDelayedTaskList = &xDelayedTaskList1;
 800665a:	4b0b      	ldr	r3, [pc, #44]	@ (8006688 <prvInitialiseTaskLists+0x78>)
 800665c:	4a05      	ldr	r2, [pc, #20]	@ (8006674 <prvInitialiseTaskLists+0x64>)
 800665e:	601a      	str	r2, [r3, #0]
	pxOverflowDelayedTaskList = &xDelayedTaskList2;
 8006660:	4b0a      	ldr	r3, [pc, #40]	@ (800668c <prvInitialiseTaskLists+0x7c>)
 8006662:	4a05      	ldr	r2, [pc, #20]	@ (8006678 <prvInitialiseTaskLists+0x68>)
 8006664:	601a      	str	r2, [r3, #0]
}
 8006666:	bf00      	nop
 8006668:	3708      	adds	r7, #8
 800666a:	46bd      	mov	sp, r7
 800666c:	bd80      	pop	{r7, pc}
 800666e:	bf00      	nop
 8006670:	20000fa8 	.word	0x20000fa8
 8006674:	20001408 	.word	0x20001408
 8006678:	2000141c 	.word	0x2000141c
 800667c:	20001438 	.word	0x20001438
 8006680:	2000144c 	.word	0x2000144c
 8006684:	20001464 	.word	0x20001464
 8006688:	20001430 	.word	0x20001430
 800668c:	20001434 	.word	0x20001434

08006690 <prvCheckTasksWaitingTermination>:
/*-----------------------------------------------------------*/

static void prvCheckTasksWaitingTermination( void )
{
 8006690:	b580      	push	{r7, lr}
 8006692:	b082      	sub	sp, #8
 8006694:	af00      	add	r7, sp, #0
	{
		TCB_t *pxTCB;

		/* uxDeletedTasksWaitingCleanUp is used to prevent taskENTER_CRITICAL()
		being called too often in the idle task. */
		while( uxDeletedTasksWaitingCleanUp > ( UBaseType_t ) 0U )
 8006696:	e019      	b.n	80066cc <prvCheckTasksWaitingTermination+0x3c>
		{
			taskENTER_CRITICAL();
 8006698:	f000 fee6 	bl	8007468 <vPortEnterCritical>
			{
				pxTCB = listGET_OWNER_OF_HEAD_ENTRY( ( &xTasksWaitingTermination ) ); /*lint !e9079 void * is used as this macro is used with timers and co-routines too.  Alignment is known to be fine as the type of the pointer stored and retrieved is the same. */
 800669c:	4b10      	ldr	r3, [pc, #64]	@ (80066e0 <prvCheckTasksWaitingTermination+0x50>)
 800669e:	68db      	ldr	r3, [r3, #12]
 80066a0:	68db      	ldr	r3, [r3, #12]
 80066a2:	607b      	str	r3, [r7, #4]
				( void ) uxListRemove( &( pxTCB->xStateListItem ) );
 80066a4:	687b      	ldr	r3, [r7, #4]
 80066a6:	3304      	adds	r3, #4
 80066a8:	4618      	mov	r0, r3
 80066aa:	f7fe fb8b 	bl	8004dc4 <uxListRemove>
				--uxCurrentNumberOfTasks;
 80066ae:	4b0d      	ldr	r3, [pc, #52]	@ (80066e4 <prvCheckTasksWaitingTermination+0x54>)
 80066b0:	681b      	ldr	r3, [r3, #0]
 80066b2:	3b01      	subs	r3, #1
 80066b4:	4a0b      	ldr	r2, [pc, #44]	@ (80066e4 <prvCheckTasksWaitingTermination+0x54>)
 80066b6:	6013      	str	r3, [r2, #0]
				--uxDeletedTasksWaitingCleanUp;
 80066b8:	4b0b      	ldr	r3, [pc, #44]	@ (80066e8 <prvCheckTasksWaitingTermination+0x58>)
 80066ba:	681b      	ldr	r3, [r3, #0]
 80066bc:	3b01      	subs	r3, #1
 80066be:	4a0a      	ldr	r2, [pc, #40]	@ (80066e8 <prvCheckTasksWaitingTermination+0x58>)
 80066c0:	6013      	str	r3, [r2, #0]
			}
			taskEXIT_CRITICAL();
 80066c2:	f000 ff03 	bl	80074cc <vPortExitCritical>

			prvDeleteTCB( pxTCB );
 80066c6:	6878      	ldr	r0, [r7, #4]
 80066c8:	f000 f810 	bl	80066ec <prvDeleteTCB>
		while( uxDeletedTasksWaitingCleanUp > ( UBaseType_t ) 0U )
 80066cc:	4b06      	ldr	r3, [pc, #24]	@ (80066e8 <prvCheckTasksWaitingTermination+0x58>)
 80066ce:	681b      	ldr	r3, [r3, #0]
 80066d0:	2b00      	cmp	r3, #0
 80066d2:	d1e1      	bne.n	8006698 <prvCheckTasksWaitingTermination+0x8>
		}
	}
	#endif /* INCLUDE_vTaskDelete */
}
 80066d4:	bf00      	nop
 80066d6:	bf00      	nop
 80066d8:	3708      	adds	r7, #8
 80066da:	46bd      	mov	sp, r7
 80066dc:	bd80      	pop	{r7, pc}
 80066de:	bf00      	nop
 80066e0:	2000144c 	.word	0x2000144c
 80066e4:	20001478 	.word	0x20001478
 80066e8:	20001460 	.word	0x20001460

080066ec <prvDeleteTCB>:
/*-----------------------------------------------------------*/

#if ( INCLUDE_vTaskDelete == 1 )

	static void prvDeleteTCB( TCB_t *pxTCB )
	{
 80066ec:	b580      	push	{r7, lr}
 80066ee:	b084      	sub	sp, #16
 80066f0:	af00      	add	r7, sp, #0
 80066f2:	6078      	str	r0, [r7, #4]
		#elif( tskSTATIC_AND_DYNAMIC_ALLOCATION_POSSIBLE != 0 ) /*lint !e731 !e9029 Macro has been consolidated for readability reasons. */
		{
			/* The task could have been allocated statically or dynamically, so
			check what was statically allocated before trying to free the
			memory. */
			if( pxTCB->ucStaticallyAllocated == tskDYNAMICALLY_ALLOCATED_STACK_AND_TCB )
 80066f4:	687b      	ldr	r3, [r7, #4]
 80066f6:	f893 3059 	ldrb.w	r3, [r3, #89]	@ 0x59
 80066fa:	2b00      	cmp	r3, #0
 80066fc:	d108      	bne.n	8006710 <prvDeleteTCB+0x24>
			{
				/* Both the stack and TCB were allocated dynamically, so both
				must be freed. */
				vPortFree( pxTCB->pxStack );
 80066fe:	687b      	ldr	r3, [r7, #4]
 8006700:	6b1b      	ldr	r3, [r3, #48]	@ 0x30
 8006702:	4618      	mov	r0, r3
 8006704:	f001 f8a0 	bl	8007848 <vPortFree>
				vPortFree( pxTCB );
 8006708:	6878      	ldr	r0, [r7, #4]
 800670a:	f001 f89d 	bl	8007848 <vPortFree>
				configASSERT( pxTCB->ucStaticallyAllocated == tskSTATICALLY_ALLOCATED_STACK_AND_TCB	);
				mtCOVERAGE_TEST_MARKER();
			}
		}
		#endif /* configSUPPORT_DYNAMIC_ALLOCATION */
	}
 800670e:	e019      	b.n	8006744 <prvDeleteTCB+0x58>
			else if( pxTCB->ucStaticallyAllocated == tskSTATICALLY_ALLOCATED_STACK_ONLY )
 8006710:	687b      	ldr	r3, [r7, #4]
 8006712:	f893 3059 	ldrb.w	r3, [r3, #89]	@ 0x59
 8006716:	2b01      	cmp	r3, #1
 8006718:	d103      	bne.n	8006722 <prvDeleteTCB+0x36>
				vPortFree( pxTCB );
 800671a:	6878      	ldr	r0, [r7, #4]
 800671c:	f001 f894 	bl	8007848 <vPortFree>
	}
 8006720:	e010      	b.n	8006744 <prvDeleteTCB+0x58>
				configASSERT( pxTCB->ucStaticallyAllocated == tskSTATICALLY_ALLOCATED_STACK_AND_TCB	);
 8006722:	687b      	ldr	r3, [r7, #4]
 8006724:	f893 3059 	ldrb.w	r3, [r3, #89]	@ 0x59
 8006728:	2b02      	cmp	r3, #2
 800672a:	d00b      	beq.n	8006744 <prvDeleteTCB+0x58>
	__asm volatile
 800672c:	f04f 0350 	mov.w	r3, #80	@ 0x50
 8006730:	f383 8811 	msr	BASEPRI, r3
 8006734:	f3bf 8f6f 	isb	sy
 8006738:	f3bf 8f4f 	dsb	sy
 800673c:	60fb      	str	r3, [r7, #12]
}
 800673e:	bf00      	nop
 8006740:	bf00      	nop
 8006742:	e7fd      	b.n	8006740 <prvDeleteTCB+0x54>
	}
 8006744:	bf00      	nop
 8006746:	3710      	adds	r7, #16
 8006748:	46bd      	mov	sp, r7
 800674a:	bd80      	pop	{r7, pc}

0800674c <prvResetNextTaskUnblockTime>:

#endif /* INCLUDE_vTaskDelete */
/*-----------------------------------------------------------*/

static void prvResetNextTaskUnblockTime( void )
{
 800674c:	b480      	push	{r7}
 800674e:	b083      	sub	sp, #12
 8006750:	af00      	add	r7, sp, #0
TCB_t *pxTCB;

	if( listLIST_IS_EMPTY( pxDelayedTaskList ) != pdFALSE )
 8006752:	4b0c      	ldr	r3, [pc, #48]	@ (8006784 <prvResetNextTaskUnblockTime+0x38>)
 8006754:	681b      	ldr	r3, [r3, #0]
 8006756:	681b      	ldr	r3, [r3, #0]
 8006758:	2b00      	cmp	r3, #0
 800675a:	d104      	bne.n	8006766 <prvResetNextTaskUnblockTime+0x1a>
	{
		/* The new current delayed list is empty.  Set xNextTaskUnblockTime to
		the maximum possible value so it is	extremely unlikely that the
		if( xTickCount >= xNextTaskUnblockTime ) test will pass until
		there is an item in the delayed list. */
		xNextTaskUnblockTime = portMAX_DELAY;
 800675c:	4b0a      	ldr	r3, [pc, #40]	@ (8006788 <prvResetNextTaskUnblockTime+0x3c>)
 800675e:	f04f 32ff 	mov.w	r2, #4294967295	@ 0xffffffff
 8006762:	601a      	str	r2, [r3, #0]
		which the task at the head of the delayed list should be removed
		from the Blocked state. */
		( pxTCB ) = listGET_OWNER_OF_HEAD_ENTRY( pxDelayedTaskList ); /*lint !e9079 void * is used as this macro is used with timers and co-routines too.  Alignment is known to be fine as the type of the pointer stored and retrieved is the same. */
		xNextTaskUnblockTime = listGET_LIST_ITEM_VALUE( &( ( pxTCB )->xStateListItem ) );
	}
}
 8006764:	e008      	b.n	8006778 <prvResetNextTaskUnblockTime+0x2c>
		( pxTCB ) = listGET_OWNER_OF_HEAD_ENTRY( pxDelayedTaskList ); /*lint !e9079 void * is used as this macro is used with timers and co-routines too.  Alignment is known to be fine as the type of the pointer stored and retrieved is the same. */
 8006766:	4b07      	ldr	r3, [pc, #28]	@ (8006784 <prvResetNextTaskUnblockTime+0x38>)
 8006768:	681b      	ldr	r3, [r3, #0]
 800676a:	68db      	ldr	r3, [r3, #12]
 800676c:	68db      	ldr	r3, [r3, #12]
 800676e:	607b      	str	r3, [r7, #4]
		xNextTaskUnblockTime = listGET_LIST_ITEM_VALUE( &( ( pxTCB )->xStateListItem ) );
 8006770:	687b      	ldr	r3, [r7, #4]
 8006772:	685b      	ldr	r3, [r3, #4]
 8006774:	4a04      	ldr	r2, [pc, #16]	@ (8006788 <prvResetNextTaskUnblockTime+0x3c>)
 8006776:	6013      	str	r3, [r2, #0]
}
 8006778:	bf00      	nop
 800677a:	370c      	adds	r7, #12
 800677c:	46bd      	mov	sp, r7
 800677e:	f85d 7b04 	ldr.w	r7, [sp], #4
 8006782:	4770      	bx	lr
 8006784:	20001430 	.word	0x20001430
 8006788:	20001498 	.word	0x20001498

0800678c <xTaskGetSchedulerState>:
/*-----------------------------------------------------------*/

#if ( ( INCLUDE_xTaskGetSchedulerState == 1 ) || ( configUSE_TIMERS == 1 ) )

	BaseType_t xTaskGetSchedulerState( void )
	{
 800678c:	b480      	push	{r7}
 800678e:	b083      	sub	sp, #12
 8006790:	af00      	add	r7, sp, #0
	BaseType_t xReturn;

		if( xSchedulerRunning == pdFALSE )
 8006792:	4b0b      	ldr	r3, [pc, #44]	@ (80067c0 <xTaskGetSchedulerState+0x34>)
 8006794:	681b      	ldr	r3, [r3, #0]
 8006796:	2b00      	cmp	r3, #0
 8006798:	d102      	bne.n	80067a0 <xTaskGetSchedulerState+0x14>
		{
			xReturn = taskSCHEDULER_NOT_STARTED;
 800679a:	2301      	movs	r3, #1
 800679c:	607b      	str	r3, [r7, #4]
 800679e:	e008      	b.n	80067b2 <xTaskGetSchedulerState+0x26>
		}
		else
		{
			if( uxSchedulerSuspended == ( UBaseType_t ) pdFALSE )
 80067a0:	4b08      	ldr	r3, [pc, #32]	@ (80067c4 <xTaskGetSchedulerState+0x38>)
 80067a2:	681b      	ldr	r3, [r3, #0]
 80067a4:	2b00      	cmp	r3, #0
 80067a6:	d102      	bne.n	80067ae <xTaskGetSchedulerState+0x22>
			{
				xReturn = taskSCHEDULER_RUNNING;
 80067a8:	2302      	movs	r3, #2
 80067aa:	607b      	str	r3, [r7, #4]
 80067ac:	e001      	b.n	80067b2 <xTaskGetSchedulerState+0x26>
			}
			else
			{
				xReturn = taskSCHEDULER_SUSPENDED;
 80067ae:	2300      	movs	r3, #0
 80067b0:	607b      	str	r3, [r7, #4]
			}
		}

		return xReturn;
 80067b2:	687b      	ldr	r3, [r7, #4]
	}
 80067b4:	4618      	mov	r0, r3
 80067b6:	370c      	adds	r7, #12
 80067b8:	46bd      	mov	sp, r7
 80067ba:	f85d 7b04 	ldr.w	r7, [sp], #4
 80067be:	4770      	bx	lr
 80067c0:	20001484 	.word	0x20001484
 80067c4:	200014a0 	.word	0x200014a0

080067c8 <xTaskPriorityInherit>:
/*-----------------------------------------------------------*/

#if ( configUSE_MUTEXES == 1 )

	BaseType_t xTaskPriorityInherit( TaskHandle_t const pxMutexHolder )
	{
 80067c8:	b580      	push	{r7, lr}
 80067ca:	b084      	sub	sp, #16
 80067cc:	af00      	add	r7, sp, #0
 80067ce:	6078      	str	r0, [r7, #4]
	TCB_t * const pxMutexHolderTCB = pxMutexHolder;
 80067d0:	687b      	ldr	r3, [r7, #4]
 80067d2:	60bb      	str	r3, [r7, #8]
	BaseType_t xReturn = pdFALSE;
 80067d4:	2300      	movs	r3, #0
 80067d6:	60fb      	str	r3, [r7, #12]

		/* If the mutex was given back by an interrupt while the queue was
		locked then the mutex holder might now be NULL.  _RB_ Is this still
		needed as interrupts can no longer use mutexes? */
		if( pxMutexHolder != NULL )
 80067d8:	687b      	ldr	r3, [r7, #4]
 80067da:	2b00      	cmp	r3, #0
 80067dc:	d051      	beq.n	8006882 <xTaskPriorityInherit+0xba>
		{
			/* If the holder of the mutex has a priority below the priority of
			the task attempting to obtain the mutex then it will temporarily
			inherit the priority of the task attempting to obtain the mutex. */
			if( pxMutexHolderTCB->uxPriority < pxCurrentTCB->uxPriority )
 80067de:	68bb      	ldr	r3, [r7, #8]
 80067e0:	6ada      	ldr	r2, [r3, #44]	@ 0x2c
 80067e2:	4b2a      	ldr	r3, [pc, #168]	@ (800688c <xTaskPriorityInherit+0xc4>)
 80067e4:	681b      	ldr	r3, [r3, #0]
 80067e6:	6adb      	ldr	r3, [r3, #44]	@ 0x2c
 80067e8:	429a      	cmp	r2, r3
 80067ea:	d241      	bcs.n	8006870 <xTaskPriorityInherit+0xa8>
			{
				/* Adjust the mutex holder state to account for its new
				priority.  Only reset the event list item value if the value is
				not being used for anything else. */
				if( ( listGET_LIST_ITEM_VALUE( &( pxMutexHolderTCB->xEventListItem ) ) & taskEVENT_LIST_ITEM_VALUE_IN_USE ) == 0UL )
 80067ec:	68bb      	ldr	r3, [r7, #8]
 80067ee:	699b      	ldr	r3, [r3, #24]
 80067f0:	2b00      	cmp	r3, #0
 80067f2:	db06      	blt.n	8006802 <xTaskPriorityInherit+0x3a>
				{
					listSET_LIST_ITEM_VALUE( &( pxMutexHolderTCB->xEventListItem ), ( TickType_t ) configMAX_PRIORITIES - ( TickType_t ) pxCurrentTCB->uxPriority ); /*lint !e961 MISRA exception as the casts are only redundant for some ports. */
 80067f4:	4b25      	ldr	r3, [pc, #148]	@ (800688c <xTaskPriorityInherit+0xc4>)
 80067f6:	681b      	ldr	r3, [r3, #0]
 80067f8:	6adb      	ldr	r3, [r3, #44]	@ 0x2c
 80067fa:	f1c3 0238 	rsb	r2, r3, #56	@ 0x38
 80067fe:	68bb      	ldr	r3, [r7, #8]
 8006800:	619a      	str	r2, [r3, #24]
					mtCOVERAGE_TEST_MARKER();
				}

				/* If the task being modified is in the ready state it will need
				to be moved into a new list. */
				if( listIS_CONTAINED_WITHIN( &( pxReadyTasksLists[ pxMutexHolderTCB->uxPriority ] ), &( pxMutexHolderTCB->xStateListItem ) ) != pdFALSE )
 8006802:	68bb      	ldr	r3, [r7, #8]
 8006804:	6959      	ldr	r1, [r3, #20]
 8006806:	68bb      	ldr	r3, [r7, #8]
 8006808:	6ada      	ldr	r2, [r3, #44]	@ 0x2c
 800680a:	4613      	mov	r3, r2
 800680c:	009b      	lsls	r3, r3, #2
 800680e:	4413      	add	r3, r2
 8006810:	009b      	lsls	r3, r3, #2
 8006812:	4a1f      	ldr	r2, [pc, #124]	@ (8006890 <xTaskPriorityInherit+0xc8>)
 8006814:	4413      	add	r3, r2
 8006816:	4299      	cmp	r1, r3
 8006818:	d122      	bne.n	8006860 <xTaskPriorityInherit+0x98>
				{
					if( uxListRemove( &( pxMutexHolderTCB->xStateListItem ) ) == ( UBaseType_t ) 0 )
 800681a:	68bb      	ldr	r3, [r7, #8]
 800681c:	3304      	adds	r3, #4
 800681e:	4618      	mov	r0, r3
 8006820:	f7fe fad0 	bl	8004dc4 <uxListRemove>
					{
						mtCOVERAGE_TEST_MARKER();
					}

					/* Inherit the priority before being moved into the new list. */
					pxMutexHolderTCB->uxPriority = pxCurrentTCB->uxPriority;
 8006824:	4b19      	ldr	r3, [pc, #100]	@ (800688c <xTaskPriorityInherit+0xc4>)
 8006826:	681b      	ldr	r3, [r3, #0]
 8006828:	6ada      	ldr	r2, [r3, #44]	@ 0x2c
 800682a:	68bb      	ldr	r3, [r7, #8]
 800682c:	62da      	str	r2, [r3, #44]	@ 0x2c
					prvAddTaskToReadyList( pxMutexHolderTCB );
 800682e:	68bb      	ldr	r3, [r7, #8]
 8006830:	6ada      	ldr	r2, [r3, #44]	@ 0x2c
 8006832:	4b18      	ldr	r3, [pc, #96]	@ (8006894 <xTaskPriorityInherit+0xcc>)
 8006834:	681b      	ldr	r3, [r3, #0]
 8006836:	429a      	cmp	r2, r3
 8006838:	d903      	bls.n	8006842 <xTaskPriorityInherit+0x7a>
 800683a:	68bb      	ldr	r3, [r7, #8]
 800683c:	6adb      	ldr	r3, [r3, #44]	@ 0x2c
 800683e:	4a15      	ldr	r2, [pc, #84]	@ (8006894 <xTaskPriorityInherit+0xcc>)
 8006840:	6013      	str	r3, [r2, #0]
 8006842:	68bb      	ldr	r3, [r7, #8]
 8006844:	6ada      	ldr	r2, [r3, #44]	@ 0x2c
 8006846:	4613      	mov	r3, r2
 8006848:	009b      	lsls	r3, r3, #2
 800684a:	4413      	add	r3, r2
 800684c:	009b      	lsls	r3, r3, #2
 800684e:	4a10      	ldr	r2, [pc, #64]	@ (8006890 <xTaskPriorityInherit+0xc8>)
 8006850:	441a      	add	r2, r3
 8006852:	68bb      	ldr	r3, [r7, #8]
 8006854:	3304      	adds	r3, #4
 8006856:	4619      	mov	r1, r3
 8006858:	4610      	mov	r0, r2
 800685a:	f7fe fa56 	bl	8004d0a <vListInsertEnd>
 800685e:	e004      	b.n	800686a <xTaskPriorityInherit+0xa2>
				}
				else
				{
					/* Just inherit the priority. */
					pxMutexHolderTCB->uxPriority = pxCurrentTCB->uxPriority;
 8006860:	4b0a      	ldr	r3, [pc, #40]	@ (800688c <xTaskPriorityInherit+0xc4>)
 8006862:	681b      	ldr	r3, [r3, #0]
 8006864:	6ada      	ldr	r2, [r3, #44]	@ 0x2c
 8006866:	68bb      	ldr	r3, [r7, #8]
 8006868:	62da      	str	r2, [r3, #44]	@ 0x2c
				}

				traceTASK_PRIORITY_INHERIT( pxMutexHolderTCB, pxCurrentTCB->uxPriority );

				/* Inheritance occurred. */
				xReturn = pdTRUE;
 800686a:	2301      	movs	r3, #1
 800686c:	60fb      	str	r3, [r7, #12]
 800686e:	e008      	b.n	8006882 <xTaskPriorityInherit+0xba>
			}
			else
			{
				if( pxMutexHolderTCB->uxBasePriority < pxCurrentTCB->uxPriority )
 8006870:	68bb      	ldr	r3, [r7, #8]
 8006872:	6cda      	ldr	r2, [r3, #76]	@ 0x4c
 8006874:	4b05      	ldr	r3, [pc, #20]	@ (800688c <xTaskPriorityInherit+0xc4>)
 8006876:	681b      	ldr	r3, [r3, #0]
 8006878:	6adb      	ldr	r3, [r3, #44]	@ 0x2c
 800687a:	429a      	cmp	r2, r3
 800687c:	d201      	bcs.n	8006882 <xTaskPriorityInherit+0xba>
					current priority of the mutex holder is not lower than the
					priority of the task attempting to take the mutex.
					Therefore the mutex holder must have already inherited a
					priority, but inheritance would have occurred if that had
					not been the case. */
					xReturn = pdTRUE;
 800687e:	2301      	movs	r3, #1
 8006880:	60fb      	str	r3, [r7, #12]
		else
		{
			mtCOVERAGE_TEST_MARKER();
		}

		return xReturn;
 8006882:	68fb      	ldr	r3, [r7, #12]
	}
 8006884:	4618      	mov	r0, r3
 8006886:	3710      	adds	r7, #16
 8006888:	46bd      	mov	sp, r7
 800688a:	bd80      	pop	{r7, pc}
 800688c:	20000fa4 	.word	0x20000fa4
 8006890:	20000fa8 	.word	0x20000fa8
 8006894:	20001480 	.word	0x20001480

08006898 <xTaskPriorityDisinherit>:
/*-----------------------------------------------------------*/

#if ( configUSE_MUTEXES == 1 )

	BaseType_t xTaskPriorityDisinherit( TaskHandle_t const pxMutexHolder )
	{
 8006898:	b580      	push	{r7, lr}
 800689a:	b086      	sub	sp, #24
 800689c:	af00      	add	r7, sp, #0
 800689e:	6078      	str	r0, [r7, #4]
	TCB_t * const pxTCB = pxMutexHolder;
 80068a0:	687b      	ldr	r3, [r7, #4]
 80068a2:	613b      	str	r3, [r7, #16]
	BaseType_t xReturn = pdFALSE;
 80068a4:	2300      	movs	r3, #0
 80068a6:	617b      	str	r3, [r7, #20]

		if( pxMutexHolder != NULL )
 80068a8:	687b      	ldr	r3, [r7, #4]
 80068aa:	2b00      	cmp	r3, #0
 80068ac:	d058      	beq.n	8006960 <xTaskPriorityDisinherit+0xc8>
		{
			/* A task can only have an inherited priority if it holds the mutex.
			If the mutex is held by a task then it cannot be given from an
			interrupt, and if a mutex is given by the holding task then it must
			be the running state task. */
			configASSERT( pxTCB == pxCurrentTCB );
 80068ae:	4b2f      	ldr	r3, [pc, #188]	@ (800696c <xTaskPriorityDisinherit+0xd4>)
 80068b0:	681b      	ldr	r3, [r3, #0]
 80068b2:	693a      	ldr	r2, [r7, #16]
 80068b4:	429a      	cmp	r2, r3
 80068b6:	d00b      	beq.n	80068d0 <xTaskPriorityDisinherit+0x38>
	__asm volatile
 80068b8:	f04f 0350 	mov.w	r3, #80	@ 0x50
 80068bc:	f383 8811 	msr	BASEPRI, r3
 80068c0:	f3bf 8f6f 	isb	sy
 80068c4:	f3bf 8f4f 	dsb	sy
 80068c8:	60fb      	str	r3, [r7, #12]
}
 80068ca:	bf00      	nop
 80068cc:	bf00      	nop
 80068ce:	e7fd      	b.n	80068cc <xTaskPriorityDisinherit+0x34>
			configASSERT( pxTCB->uxMutexesHeld );
 80068d0:	693b      	ldr	r3, [r7, #16]
 80068d2:	6d1b      	ldr	r3, [r3, #80]	@ 0x50
 80068d4:	2b00      	cmp	r3, #0
 80068d6:	d10b      	bne.n	80068f0 <xTaskPriorityDisinherit+0x58>
	__asm volatile
 80068d8:	f04f 0350 	mov.w	r3, #80	@ 0x50
 80068dc:	f383 8811 	msr	BASEPRI, r3
 80068e0:	f3bf 8f6f 	isb	sy
 80068e4:	f3bf 8f4f 	dsb	sy
 80068e8:	60bb      	str	r3, [r7, #8]
}
 80068ea:	bf00      	nop
 80068ec:	bf00      	nop
 80068ee:	e7fd      	b.n	80068ec <xTaskPriorityDisinherit+0x54>
			( pxTCB->uxMutexesHeld )--;
 80068f0:	693b      	ldr	r3, [r7, #16]
 80068f2:	6d1b      	ldr	r3, [r3, #80]	@ 0x50
 80068f4:	1e5a      	subs	r2, r3, #1
 80068f6:	693b      	ldr	r3, [r7, #16]
 80068f8:	651a      	str	r2, [r3, #80]	@ 0x50

			/* Has the holder of the mutex inherited the priority of another
			task? */
			if( pxTCB->uxPriority != pxTCB->uxBasePriority )
 80068fa:	693b      	ldr	r3, [r7, #16]
 80068fc:	6ada      	ldr	r2, [r3, #44]	@ 0x2c
 80068fe:	693b      	ldr	r3, [r7, #16]
 8006900:	6cdb      	ldr	r3, [r3, #76]	@ 0x4c
 8006902:	429a      	cmp	r2, r3
 8006904:	d02c      	beq.n	8006960 <xTaskPriorityDisinherit+0xc8>
			{
				/* Only disinherit if no other mutexes are held. */
				if( pxTCB->uxMutexesHeld == ( UBaseType_t ) 0 )
 8006906:	693b      	ldr	r3, [r7, #16]
 8006908:	6d1b      	ldr	r3, [r3, #80]	@ 0x50
 800690a:	2b00      	cmp	r3, #0
 800690c:	d128      	bne.n	8006960 <xTaskPriorityDisinherit+0xc8>
					/* A task can only have an inherited priority if it holds
					the mutex.  If the mutex is held by a task then it cannot be
					given from an interrupt, and if a mutex is given by the
					holding task then it must be the running state task.  Remove
					the holding task from the ready/delayed list. */
					if( uxListRemove( &( pxTCB->xStateListItem ) ) == ( UBaseType_t ) 0 )
 800690e:	693b      	ldr	r3, [r7, #16]
 8006910:	3304      	adds	r3, #4
 8006912:	4618      	mov	r0, r3
 8006914:	f7fe fa56 	bl	8004dc4 <uxListRemove>
					}

					/* Disinherit the priority before adding the task into the
					new	ready list. */
					traceTASK_PRIORITY_DISINHERIT( pxTCB, pxTCB->uxBasePriority );
					pxTCB->uxPriority = pxTCB->uxBasePriority;
 8006918:	693b      	ldr	r3, [r7, #16]
 800691a:	6cda      	ldr	r2, [r3, #76]	@ 0x4c
 800691c:	693b      	ldr	r3, [r7, #16]
 800691e:	62da      	str	r2, [r3, #44]	@ 0x2c

					/* Reset the event list item value.  It cannot be in use for
					any other purpose if this task is running, and it must be
					running to give back the mutex. */
					listSET_LIST_ITEM_VALUE( &( pxTCB->xEventListItem ), ( TickType_t ) configMAX_PRIORITIES - ( TickType_t ) pxTCB->uxPriority ); /*lint !e961 MISRA exception as the casts are only redundant for some ports. */
 8006920:	693b      	ldr	r3, [r7, #16]
 8006922:	6adb      	ldr	r3, [r3, #44]	@ 0x2c
 8006924:	f1c3 0238 	rsb	r2, r3, #56	@ 0x38
 8006928:	693b      	ldr	r3, [r7, #16]
 800692a:	619a      	str	r2, [r3, #24]
					prvAddTaskToReadyList( pxTCB );
 800692c:	693b      	ldr	r3, [r7, #16]
 800692e:	6ada      	ldr	r2, [r3, #44]	@ 0x2c
 8006930:	4b0f      	ldr	r3, [pc, #60]	@ (8006970 <xTaskPriorityDisinherit+0xd8>)
 8006932:	681b      	ldr	r3, [r3, #0]
 8006934:	429a      	cmp	r2, r3
 8006936:	d903      	bls.n	8006940 <xTaskPriorityDisinherit+0xa8>
 8006938:	693b      	ldr	r3, [r7, #16]
 800693a:	6adb      	ldr	r3, [r3, #44]	@ 0x2c
 800693c:	4a0c      	ldr	r2, [pc, #48]	@ (8006970 <xTaskPriorityDisinherit+0xd8>)
 800693e:	6013      	str	r3, [r2, #0]
 8006940:	693b      	ldr	r3, [r7, #16]
 8006942:	6ada      	ldr	r2, [r3, #44]	@ 0x2c
 8006944:	4613      	mov	r3, r2
 8006946:	009b      	lsls	r3, r3, #2
 8006948:	4413      	add	r3, r2
 800694a:	009b      	lsls	r3, r3, #2
 800694c:	4a09      	ldr	r2, [pc, #36]	@ (8006974 <xTaskPriorityDisinherit+0xdc>)
 800694e:	441a      	add	r2, r3
 8006950:	693b      	ldr	r3, [r7, #16]
 8006952:	3304      	adds	r3, #4
 8006954:	4619      	mov	r1, r3
 8006956:	4610      	mov	r0, r2
 8006958:	f7fe f9d7 	bl	8004d0a <vListInsertEnd>
					in an order different to that in which they were taken.
					If a context switch did not occur when the first mutex was
					returned, even if a task was waiting on it, then a context
					switch should occur when the last mutex is returned whether
					a task is waiting on it or not. */
					xReturn = pdTRUE;
 800695c:	2301      	movs	r3, #1
 800695e:	617b      	str	r3, [r7, #20]
		else
		{
			mtCOVERAGE_TEST_MARKER();
		}

		return xReturn;
 8006960:	697b      	ldr	r3, [r7, #20]
	}
 8006962:	4618      	mov	r0, r3
 8006964:	3718      	adds	r7, #24
 8006966:	46bd      	mov	sp, r7
 8006968:	bd80      	pop	{r7, pc}
 800696a:	bf00      	nop
 800696c:	20000fa4 	.word	0x20000fa4
 8006970:	20001480 	.word	0x20001480
 8006974:	20000fa8 	.word	0x20000fa8

08006978 <vTaskPriorityDisinheritAfterTimeout>:
/*-----------------------------------------------------------*/

#if ( configUSE_MUTEXES == 1 )

	void vTaskPriorityDisinheritAfterTimeout( TaskHandle_t const pxMutexHolder, UBaseType_t uxHighestPriorityWaitingTask )
	{
 8006978:	b580      	push	{r7, lr}
 800697a:	b088      	sub	sp, #32
 800697c:	af00      	add	r7, sp, #0
 800697e:	6078      	str	r0, [r7, #4]
 8006980:	6039      	str	r1, [r7, #0]
	TCB_t * const pxTCB = pxMutexHolder;
 8006982:	687b      	ldr	r3, [r7, #4]
 8006984:	61bb      	str	r3, [r7, #24]
	UBaseType_t uxPriorityUsedOnEntry, uxPriorityToUse;
	const UBaseType_t uxOnlyOneMutexHeld = ( UBaseType_t ) 1;
 8006986:	2301      	movs	r3, #1
 8006988:	617b      	str	r3, [r7, #20]

		if( pxMutexHolder != NULL )
 800698a:	687b      	ldr	r3, [r7, #4]
 800698c:	2b00      	cmp	r3, #0
 800698e:	d06c      	beq.n	8006a6a <vTaskPriorityDisinheritAfterTimeout+0xf2>
		{
			/* If pxMutexHolder is not NULL then the holder must hold at least
			one mutex. */
			configASSERT( pxTCB->uxMutexesHeld );
 8006990:	69bb      	ldr	r3, [r7, #24]
 8006992:	6d1b      	ldr	r3, [r3, #80]	@ 0x50
 8006994:	2b00      	cmp	r3, #0
 8006996:	d10b      	bne.n	80069b0 <vTaskPriorityDisinheritAfterTimeout+0x38>
	__asm volatile
 8006998:	f04f 0350 	mov.w	r3, #80	@ 0x50
 800699c:	f383 8811 	msr	BASEPRI, r3
 80069a0:	f3bf 8f6f 	isb	sy
 80069a4:	f3bf 8f4f 	dsb	sy
 80069a8:	60fb      	str	r3, [r7, #12]
}
 80069aa:	bf00      	nop
 80069ac:	bf00      	nop
 80069ae:	e7fd      	b.n	80069ac <vTaskPriorityDisinheritAfterTimeout+0x34>

			/* Determine the priority to which the priority of the task that
			holds the mutex should be set.  This will be the greater of the
			holding task's base priority and the priority of the highest
			priority task that is waiting to obtain the mutex. */
			if( pxTCB->uxBasePriority < uxHighestPriorityWaitingTask )
 80069b0:	69bb      	ldr	r3, [r7, #24]
 80069b2:	6cdb      	ldr	r3, [r3, #76]	@ 0x4c
 80069b4:	683a      	ldr	r2, [r7, #0]
 80069b6:	429a      	cmp	r2, r3
 80069b8:	d902      	bls.n	80069c0 <vTaskPriorityDisinheritAfterTimeout+0x48>
			{
				uxPriorityToUse = uxHighestPriorityWaitingTask;
 80069ba:	683b      	ldr	r3, [r7, #0]
 80069bc:	61fb      	str	r3, [r7, #28]
 80069be:	e002      	b.n	80069c6 <vTaskPriorityDisinheritAfterTimeout+0x4e>
			}
			else
			{
				uxPriorityToUse = pxTCB->uxBasePriority;
 80069c0:	69bb      	ldr	r3, [r7, #24]
 80069c2:	6cdb      	ldr	r3, [r3, #76]	@ 0x4c
 80069c4:	61fb      	str	r3, [r7, #28]
			}

			/* Does the priority need to change? */
			if( pxTCB->uxPriority != uxPriorityToUse )
 80069c6:	69bb      	ldr	r3, [r7, #24]
 80069c8:	6adb      	ldr	r3, [r3, #44]	@ 0x2c
 80069ca:	69fa      	ldr	r2, [r7, #28]
 80069cc:	429a      	cmp	r2, r3
 80069ce:	d04c      	beq.n	8006a6a <vTaskPriorityDisinheritAfterTimeout+0xf2>
			{
				/* Only disinherit if no other mutexes are held.  This is a
				simplification in the priority inheritance implementation.  If
				the task that holds the mutex is also holding other mutexes then
				the other mutexes may have caused the priority inheritance. */
				if( pxTCB->uxMutexesHeld == uxOnlyOneMutexHeld )
 80069d0:	69bb      	ldr	r3, [r7, #24]
 80069d2:	6d1b      	ldr	r3, [r3, #80]	@ 0x50
 80069d4:	697a      	ldr	r2, [r7, #20]
 80069d6:	429a      	cmp	r2, r3
 80069d8:	d147      	bne.n	8006a6a <vTaskPriorityDisinheritAfterTimeout+0xf2>
				{
					/* If a task has timed out because it already holds the
					mutex it was trying to obtain then it cannot of inherited
					its own priority. */
					configASSERT( pxTCB != pxCurrentTCB );
 80069da:	4b26      	ldr	r3, [pc, #152]	@ (8006a74 <vTaskPriorityDisinheritAfterTimeout+0xfc>)
 80069dc:	681b      	ldr	r3, [r3, #0]
 80069de:	69ba      	ldr	r2, [r7, #24]
 80069e0:	429a      	cmp	r2, r3
 80069e2:	d10b      	bne.n	80069fc <vTaskPriorityDisinheritAfterTimeout+0x84>
	__asm volatile
 80069e4:	f04f 0350 	mov.w	r3, #80	@ 0x50
 80069e8:	f383 8811 	msr	BASEPRI, r3
 80069ec:	f3bf 8f6f 	isb	sy
 80069f0:	f3bf 8f4f 	dsb	sy
 80069f4:	60bb      	str	r3, [r7, #8]
}
 80069f6:	bf00      	nop
 80069f8:	bf00      	nop
 80069fa:	e7fd      	b.n	80069f8 <vTaskPriorityDisinheritAfterTimeout+0x80>

					/* Disinherit the priority, remembering the previous
					priority to facilitate determining the subject task's
					state. */
					traceTASK_PRIORITY_DISINHERIT( pxTCB, pxTCB->uxBasePriority );
					uxPriorityUsedOnEntry = pxTCB->uxPriority;
 80069fc:	69bb      	ldr	r3, [r7, #24]
 80069fe:	6adb      	ldr	r3, [r3, #44]	@ 0x2c
 8006a00:	613b      	str	r3, [r7, #16]
					pxTCB->uxPriority = uxPriorityToUse;
 8006a02:	69bb      	ldr	r3, [r7, #24]
 8006a04:	69fa      	ldr	r2, [r7, #28]
 8006a06:	62da      	str	r2, [r3, #44]	@ 0x2c

					/* Only reset the event list item value if the value is not
					being used for anything else. */
					if( ( listGET_LIST_ITEM_VALUE( &( pxTCB->xEventListItem ) ) & taskEVENT_LIST_ITEM_VALUE_IN_USE ) == 0UL )
 8006a08:	69bb      	ldr	r3, [r7, #24]
 8006a0a:	699b      	ldr	r3, [r3, #24]
 8006a0c:	2b00      	cmp	r3, #0
 8006a0e:	db04      	blt.n	8006a1a <vTaskPriorityDisinheritAfterTimeout+0xa2>
					{
						listSET_LIST_ITEM_VALUE( &( pxTCB->xEventListItem ), ( TickType_t ) configMAX_PRIORITIES - ( TickType_t ) uxPriorityToUse ); /*lint !e961 MISRA exception as the casts are only redundant for some ports. */
 8006a10:	69fb      	ldr	r3, [r7, #28]
 8006a12:	f1c3 0238 	rsb	r2, r3, #56	@ 0x38
 8006a16:	69bb      	ldr	r3, [r7, #24]
 8006a18:	619a      	str	r2, [r3, #24]
					then the task that holds the mutex could be in either the
					Ready, Blocked or Suspended states.  Only remove the task
					from its current state list if it is in the Ready state as
					the task's priority is going to change and there is one
					Ready list per priority. */
					if( listIS_CONTAINED_WITHIN( &( pxReadyTasksLists[ uxPriorityUsedOnEntry ] ), &( pxTCB->xStateListItem ) ) != pdFALSE )
 8006a1a:	69bb      	ldr	r3, [r7, #24]
 8006a1c:	6959      	ldr	r1, [r3, #20]
 8006a1e:	693a      	ldr	r2, [r7, #16]
 8006a20:	4613      	mov	r3, r2
 8006a22:	009b      	lsls	r3, r3, #2
 8006a24:	4413      	add	r3, r2
 8006a26:	009b      	lsls	r3, r3, #2
 8006a28:	4a13      	ldr	r2, [pc, #76]	@ (8006a78 <vTaskPriorityDisinheritAfterTimeout+0x100>)
 8006a2a:	4413      	add	r3, r2
 8006a2c:	4299      	cmp	r1, r3
 8006a2e:	d11c      	bne.n	8006a6a <vTaskPriorityDisinheritAfterTimeout+0xf2>
					{
						if( uxListRemove( &( pxTCB->xStateListItem ) ) == ( UBaseType_t ) 0 )
 8006a30:	69bb      	ldr	r3, [r7, #24]
 8006a32:	3304      	adds	r3, #4
 8006a34:	4618      	mov	r0, r3
 8006a36:	f7fe f9c5 	bl	8004dc4 <uxListRemove>
						else
						{
							mtCOVERAGE_TEST_MARKER();
						}

						prvAddTaskToReadyList( pxTCB );
 8006a3a:	69bb      	ldr	r3, [r7, #24]
 8006a3c:	6ada      	ldr	r2, [r3, #44]	@ 0x2c
 8006a3e:	4b0f      	ldr	r3, [pc, #60]	@ (8006a7c <vTaskPriorityDisinheritAfterTimeout+0x104>)
 8006a40:	681b      	ldr	r3, [r3, #0]
 8006a42:	429a      	cmp	r2, r3
 8006a44:	d903      	bls.n	8006a4e <vTaskPriorityDisinheritAfterTimeout+0xd6>
 8006a46:	69bb      	ldr	r3, [r7, #24]
 8006a48:	6adb      	ldr	r3, [r3, #44]	@ 0x2c
 8006a4a:	4a0c      	ldr	r2, [pc, #48]	@ (8006a7c <vTaskPriorityDisinheritAfterTimeout+0x104>)
 8006a4c:	6013      	str	r3, [r2, #0]
 8006a4e:	69bb      	ldr	r3, [r7, #24]
 8006a50:	6ada      	ldr	r2, [r3, #44]	@ 0x2c
 8006a52:	4613      	mov	r3, r2
 8006a54:	009b      	lsls	r3, r3, #2
 8006a56:	4413      	add	r3, r2
 8006a58:	009b      	lsls	r3, r3, #2
 8006a5a:	4a07      	ldr	r2, [pc, #28]	@ (8006a78 <vTaskPriorityDisinheritAfterTimeout+0x100>)
 8006a5c:	441a      	add	r2, r3
 8006a5e:	69bb      	ldr	r3, [r7, #24]
 8006a60:	3304      	adds	r3, #4
 8006a62:	4619      	mov	r1, r3
 8006a64:	4610      	mov	r0, r2
 8006a66:	f7fe f950 	bl	8004d0a <vListInsertEnd>
		}
		else
		{
			mtCOVERAGE_TEST_MARKER();
		}
	}
 8006a6a:	bf00      	nop
 8006a6c:	3720      	adds	r7, #32
 8006a6e:	46bd      	mov	sp, r7
 8006a70:	bd80      	pop	{r7, pc}
 8006a72:	bf00      	nop
 8006a74:	20000fa4 	.word	0x20000fa4
 8006a78:	20000fa8 	.word	0x20000fa8
 8006a7c:	20001480 	.word	0x20001480

08006a80 <pvTaskIncrementMutexHeldCount>:
/*-----------------------------------------------------------*/

#if ( configUSE_MUTEXES == 1 )

	TaskHandle_t pvTaskIncrementMutexHeldCount( void )
	{
 8006a80:	b480      	push	{r7}
 8006a82:	af00      	add	r7, sp, #0
		/* If xSemaphoreCreateMutex() is called before any tasks have been created
		then pxCurrentTCB will be NULL. */
		if( pxCurrentTCB != NULL )
 8006a84:	4b07      	ldr	r3, [pc, #28]	@ (8006aa4 <pvTaskIncrementMutexHeldCount+0x24>)
 8006a86:	681b      	ldr	r3, [r3, #0]
 8006a88:	2b00      	cmp	r3, #0
 8006a8a:	d004      	beq.n	8006a96 <pvTaskIncrementMutexHeldCount+0x16>
		{
			( pxCurrentTCB->uxMutexesHeld )++;
 8006a8c:	4b05      	ldr	r3, [pc, #20]	@ (8006aa4 <pvTaskIncrementMutexHeldCount+0x24>)
 8006a8e:	681b      	ldr	r3, [r3, #0]
 8006a90:	6d1a      	ldr	r2, [r3, #80]	@ 0x50
 8006a92:	3201      	adds	r2, #1
 8006a94:	651a      	str	r2, [r3, #80]	@ 0x50
		}

		return pxCurrentTCB;
 8006a96:	4b03      	ldr	r3, [pc, #12]	@ (8006aa4 <pvTaskIncrementMutexHeldCount+0x24>)
 8006a98:	681b      	ldr	r3, [r3, #0]
	}
 8006a9a:	4618      	mov	r0, r3
 8006a9c:	46bd      	mov	sp, r7
 8006a9e:	f85d 7b04 	ldr.w	r7, [sp], #4
 8006aa2:	4770      	bx	lr
 8006aa4:	20000fa4 	.word	0x20000fa4

08006aa8 <prvAddCurrentTaskToDelayedList>:

#endif
/*-----------------------------------------------------------*/

static void prvAddCurrentTaskToDelayedList( TickType_t xTicksToWait, const BaseType_t xCanBlockIndefinitely )
{
 8006aa8:	b580      	push	{r7, lr}
 8006aaa:	b084      	sub	sp, #16
 8006aac:	af00      	add	r7, sp, #0
 8006aae:	6078      	str	r0, [r7, #4]
 8006ab0:	6039      	str	r1, [r7, #0]
TickType_t xTimeToWake;
const TickType_t xConstTickCount = xTickCount;
 8006ab2:	4b21      	ldr	r3, [pc, #132]	@ (8006b38 <prvAddCurrentTaskToDelayedList+0x90>)
 8006ab4:	681b      	ldr	r3, [r3, #0]
 8006ab6:	60fb      	str	r3, [r7, #12]
	}
	#endif

	/* Remove the task from the ready list before adding it to the blocked list
	as the same list item is used for both lists. */
	if( uxListRemove( &( pxCurrentTCB->xStateListItem ) ) == ( UBaseType_t ) 0 )
 8006ab8:	4b20      	ldr	r3, [pc, #128]	@ (8006b3c <prvAddCurrentTaskToDelayedList+0x94>)
 8006aba:	681b      	ldr	r3, [r3, #0]
 8006abc:	3304      	adds	r3, #4
 8006abe:	4618      	mov	r0, r3
 8006ac0:	f7fe f980 	bl	8004dc4 <uxListRemove>
		mtCOVERAGE_TEST_MARKER();
	}

	#if ( INCLUDE_vTaskSuspend == 1 )
	{
		if( ( xTicksToWait == portMAX_DELAY ) && ( xCanBlockIndefinitely != pdFALSE ) )
 8006ac4:	687b      	ldr	r3, [r7, #4]
 8006ac6:	f1b3 3fff 	cmp.w	r3, #4294967295	@ 0xffffffff
 8006aca:	d10a      	bne.n	8006ae2 <prvAddCurrentTaskToDelayedList+0x3a>
 8006acc:	683b      	ldr	r3, [r7, #0]
 8006ace:	2b00      	cmp	r3, #0
 8006ad0:	d007      	beq.n	8006ae2 <prvAddCurrentTaskToDelayedList+0x3a>
		{
			/* Add the task to the suspended task list instead of a delayed task
			list to ensure it is not woken by a timing event.  It will block
			indefinitely. */
			vListInsertEnd( &xSuspendedTaskList, &( pxCurrentTCB->xStateListItem ) );
 8006ad2:	4b1a      	ldr	r3, [pc, #104]	@ (8006b3c <prvAddCurrentTaskToDelayedList+0x94>)
 8006ad4:	681b      	ldr	r3, [r3, #0]
 8006ad6:	3304      	adds	r3, #4
 8006ad8:	4619      	mov	r1, r3
 8006ada:	4819      	ldr	r0, [pc, #100]	@ (8006b40 <prvAddCurrentTaskToDelayedList+0x98>)
 8006adc:	f7fe f915 	bl	8004d0a <vListInsertEnd>

		/* Avoid compiler warning when INCLUDE_vTaskSuspend is not 1. */
		( void ) xCanBlockIndefinitely;
	}
	#endif /* INCLUDE_vTaskSuspend */
}
 8006ae0:	e026      	b.n	8006b30 <prvAddCurrentTaskToDelayedList+0x88>
			xTimeToWake = xConstTickCount + xTicksToWait;
 8006ae2:	68fa      	ldr	r2, [r7, #12]
 8006ae4:	687b      	ldr	r3, [r7, #4]
 8006ae6:	4413      	add	r3, r2
 8006ae8:	60bb      	str	r3, [r7, #8]
			listSET_LIST_ITEM_VALUE( &( pxCurrentTCB->xStateListItem ), xTimeToWake );
 8006aea:	4b14      	ldr	r3, [pc, #80]	@ (8006b3c <prvAddCurrentTaskToDelayedList+0x94>)
 8006aec:	681b      	ldr	r3, [r3, #0]
 8006aee:	68ba      	ldr	r2, [r7, #8]
 8006af0:	605a      	str	r2, [r3, #4]
			if( xTimeToWake < xConstTickCount )
 8006af2:	68ba      	ldr	r2, [r7, #8]
 8006af4:	68fb      	ldr	r3, [r7, #12]
 8006af6:	429a      	cmp	r2, r3
 8006af8:	d209      	bcs.n	8006b0e <prvAddCurrentTaskToDelayedList+0x66>
				vListInsert( pxOverflowDelayedTaskList, &( pxCurrentTCB->xStateListItem ) );
 8006afa:	4b12      	ldr	r3, [pc, #72]	@ (8006b44 <prvAddCurrentTaskToDelayedList+0x9c>)
 8006afc:	681a      	ldr	r2, [r3, #0]
 8006afe:	4b0f      	ldr	r3, [pc, #60]	@ (8006b3c <prvAddCurrentTaskToDelayedList+0x94>)
 8006b00:	681b      	ldr	r3, [r3, #0]
 8006b02:	3304      	adds	r3, #4
 8006b04:	4619      	mov	r1, r3
 8006b06:	4610      	mov	r0, r2
 8006b08:	f7fe f923 	bl	8004d52 <vListInsert>
}
 8006b0c:	e010      	b.n	8006b30 <prvAddCurrentTaskToDelayedList+0x88>
				vListInsert( pxDelayedTaskList, &( pxCurrentTCB->xStateListItem ) );
 8006b0e:	4b0e      	ldr	r3, [pc, #56]	@ (8006b48 <prvAddCurrentTaskToDelayedList+0xa0>)
 8006b10:	681a      	ldr	r2, [r3, #0]
 8006b12:	4b0a      	ldr	r3, [pc, #40]	@ (8006b3c <prvAddCurrentTaskToDelayedList+0x94>)
 8006b14:	681b      	ldr	r3, [r3, #0]
 8006b16:	3304      	adds	r3, #4
 8006b18:	4619      	mov	r1, r3
 8006b1a:	4610      	mov	r0, r2
 8006b1c:	f7fe f919 	bl	8004d52 <vListInsert>
				if( xTimeToWake < xNextTaskUnblockTime )
 8006b20:	4b0a      	ldr	r3, [pc, #40]	@ (8006b4c <prvAddCurrentTaskToDelayedList+0xa4>)
 8006b22:	681b      	ldr	r3, [r3, #0]
 8006b24:	68ba      	ldr	r2, [r7, #8]
 8006b26:	429a      	cmp	r2, r3
 8006b28:	d202      	bcs.n	8006b30 <prvAddCurrentTaskToDelayedList+0x88>
					xNextTaskUnblockTime = xTimeToWake;
 8006b2a:	4a08      	ldr	r2, [pc, #32]	@ (8006b4c <prvAddCurrentTaskToDelayedList+0xa4>)
 8006b2c:	68bb      	ldr	r3, [r7, #8]
 8006b2e:	6013      	str	r3, [r2, #0]
}
 8006b30:	bf00      	nop
 8006b32:	3710      	adds	r7, #16
 8006b34:	46bd      	mov	sp, r7
 8006b36:	bd80      	pop	{r7, pc}
 8006b38:	2000147c 	.word	0x2000147c
 8006b3c:	20000fa4 	.word	0x20000fa4
 8006b40:	20001464 	.word	0x20001464
 8006b44:	20001434 	.word	0x20001434
 8006b48:	20001430 	.word	0x20001430
 8006b4c:	20001498 	.word	0x20001498

08006b50 <xTimerCreateTimerTask>:
									TimerCallbackFunction_t pxCallbackFunction,
									Timer_t *pxNewTimer ) PRIVILEGED_FUNCTION;
/*-----------------------------------------------------------*/

BaseType_t xTimerCreateTimerTask( void )
{
 8006b50:	b580      	push	{r7, lr}
 8006b52:	b08a      	sub	sp, #40	@ 0x28
 8006b54:	af04      	add	r7, sp, #16
BaseType_t xReturn = pdFAIL;
 8006b56:	2300      	movs	r3, #0
 8006b58:	617b      	str	r3, [r7, #20]

	/* This function is called when the scheduler is started if
	configUSE_TIMERS is set to 1.  Check that the infrastructure used by the
	timer service task has been created/initialised.  If timers have already
	been created then the initialisation will already have been performed. */
	prvCheckForValidListAndQueue();
 8006b5a:	f000 fb13 	bl	8007184 <prvCheckForValidListAndQueue>

	if( xTimerQueue != NULL )
 8006b5e:	4b1d      	ldr	r3, [pc, #116]	@ (8006bd4 <xTimerCreateTimerTask+0x84>)
 8006b60:	681b      	ldr	r3, [r3, #0]
 8006b62:	2b00      	cmp	r3, #0
 8006b64:	d021      	beq.n	8006baa <xTimerCreateTimerTask+0x5a>
	{
		#if( configSUPPORT_STATIC_ALLOCATION == 1 )
		{
			StaticTask_t *pxTimerTaskTCBBuffer = NULL;
 8006b66:	2300      	movs	r3, #0
 8006b68:	60fb      	str	r3, [r7, #12]
			StackType_t *pxTimerTaskStackBuffer = NULL;
 8006b6a:	2300      	movs	r3, #0
 8006b6c:	60bb      	str	r3, [r7, #8]
			uint32_t ulTimerTaskStackSize;

			vApplicationGetTimerTaskMemory( &pxTimerTaskTCBBuffer, &pxTimerTaskStackBuffer, &ulTimerTaskStackSize );
 8006b6e:	1d3a      	adds	r2, r7, #4
 8006b70:	f107 0108 	add.w	r1, r7, #8
 8006b74:	f107 030c 	add.w	r3, r7, #12
 8006b78:	4618      	mov	r0, r3
 8006b7a:	f7fe f87f 	bl	8004c7c <vApplicationGetTimerTaskMemory>
			xTimerTaskHandle = xTaskCreateStatic(	prvTimerTask,
 8006b7e:	6879      	ldr	r1, [r7, #4]
 8006b80:	68bb      	ldr	r3, [r7, #8]
 8006b82:	68fa      	ldr	r2, [r7, #12]
 8006b84:	9202      	str	r2, [sp, #8]
 8006b86:	9301      	str	r3, [sp, #4]
 8006b88:	2302      	movs	r3, #2
 8006b8a:	9300      	str	r3, [sp, #0]
 8006b8c:	2300      	movs	r3, #0
 8006b8e:	460a      	mov	r2, r1
 8006b90:	4911      	ldr	r1, [pc, #68]	@ (8006bd8 <xTimerCreateTimerTask+0x88>)
 8006b92:	4812      	ldr	r0, [pc, #72]	@ (8006bdc <xTimerCreateTimerTask+0x8c>)
 8006b94:	f7fe ffd0 	bl	8005b38 <xTaskCreateStatic>
 8006b98:	4603      	mov	r3, r0
 8006b9a:	4a11      	ldr	r2, [pc, #68]	@ (8006be0 <xTimerCreateTimerTask+0x90>)
 8006b9c:	6013      	str	r3, [r2, #0]
													NULL,
													( ( UBaseType_t ) configTIMER_TASK_PRIORITY ) | portPRIVILEGE_BIT,
													pxTimerTaskStackBuffer,
													pxTimerTaskTCBBuffer );

			if( xTimerTaskHandle != NULL )
 8006b9e:	4b10      	ldr	r3, [pc, #64]	@ (8006be0 <xTimerCreateTimerTask+0x90>)
 8006ba0:	681b      	ldr	r3, [r3, #0]
 8006ba2:	2b00      	cmp	r3, #0
 8006ba4:	d001      	beq.n	8006baa <xTimerCreateTimerTask+0x5a>
			{
				xReturn = pdPASS;
 8006ba6:	2301      	movs	r3, #1
 8006ba8:	617b      	str	r3, [r7, #20]
	else
	{
		mtCOVERAGE_TEST_MARKER();
	}

	configASSERT( xReturn );
 8006baa:	697b      	ldr	r3, [r7, #20]
 8006bac:	2b00      	cmp	r3, #0
 8006bae:	d10b      	bne.n	8006bc8 <xTimerCreateTimerTask+0x78>
	__asm volatile
 8006bb0:	f04f 0350 	mov.w	r3, #80	@ 0x50
 8006bb4:	f383 8811 	msr	BASEPRI, r3
 8006bb8:	f3bf 8f6f 	isb	sy
 8006bbc:	f3bf 8f4f 	dsb	sy
 8006bc0:	613b      	str	r3, [r7, #16]
}
 8006bc2:	bf00      	nop
 8006bc4:	bf00      	nop
 8006bc6:	e7fd      	b.n	8006bc4 <xTimerCreateTimerTask+0x74>
	return xReturn;
 8006bc8:	697b      	ldr	r3, [r7, #20]
}
 8006bca:	4618      	mov	r0, r3
 8006bcc:	3718      	adds	r7, #24
 8006bce:	46bd      	mov	sp, r7
 8006bd0:	bd80      	pop	{r7, pc}
 8006bd2:	bf00      	nop
 8006bd4:	200014d4 	.word	0x200014d4
 8006bd8:	0800ba18 	.word	0x0800ba18
 8006bdc:	08006d1d 	.word	0x08006d1d
 8006be0:	200014d8 	.word	0x200014d8

08006be4 <xTimerGenericCommand>:
	}
}
/*-----------------------------------------------------------*/

BaseType_t xTimerGenericCommand( TimerHandle_t xTimer, const BaseType_t xCommandID, const TickType_t xOptionalValue, BaseType_t * const pxHigherPriorityTaskWoken, const TickType_t xTicksToWait )
{
 8006be4:	b580      	push	{r7, lr}
 8006be6:	b08a      	sub	sp, #40	@ 0x28
 8006be8:	af00      	add	r7, sp, #0
 8006bea:	60f8      	str	r0, [r7, #12]
 8006bec:	60b9      	str	r1, [r7, #8]
 8006bee:	607a      	str	r2, [r7, #4]
 8006bf0:	603b      	str	r3, [r7, #0]
BaseType_t xReturn = pdFAIL;
 8006bf2:	2300      	movs	r3, #0
 8006bf4:	627b      	str	r3, [r7, #36]	@ 0x24
DaemonTaskMessage_t xMessage;

	configASSERT( xTimer );
 8006bf6:	68fb      	ldr	r3, [r7, #12]
 8006bf8:	2b00      	cmp	r3, #0
 8006bfa:	d10b      	bne.n	8006c14 <xTimerGenericCommand+0x30>
	__asm volatile
 8006bfc:	f04f 0350 	mov.w	r3, #80	@ 0x50
 8006c00:	f383 8811 	msr	BASEPRI, r3
 8006c04:	f3bf 8f6f 	isb	sy
 8006c08:	f3bf 8f4f 	dsb	sy
 8006c0c:	623b      	str	r3, [r7, #32]
}
 8006c0e:	bf00      	nop
 8006c10:	bf00      	nop
 8006c12:	e7fd      	b.n	8006c10 <xTimerGenericCommand+0x2c>

	/* Send a message to the timer service task to perform a particular action
	on a particular timer definition. */
	if( xTimerQueue != NULL )
 8006c14:	4b19      	ldr	r3, [pc, #100]	@ (8006c7c <xTimerGenericCommand+0x98>)
 8006c16:	681b      	ldr	r3, [r3, #0]
 8006c18:	2b00      	cmp	r3, #0
 8006c1a:	d02a      	beq.n	8006c72 <xTimerGenericCommand+0x8e>
	{
		/* Send a command to the timer service task to start the xTimer timer. */
		xMessage.xMessageID = xCommandID;
 8006c1c:	68bb      	ldr	r3, [r7, #8]
 8006c1e:	613b      	str	r3, [r7, #16]
		xMessage.u.xTimerParameters.xMessageValue = xOptionalValue;
 8006c20:	687b      	ldr	r3, [r7, #4]
 8006c22:	617b      	str	r3, [r7, #20]
		xMessage.u.xTimerParameters.pxTimer = xTimer;
 8006c24:	68fb      	ldr	r3, [r7, #12]
 8006c26:	61bb      	str	r3, [r7, #24]

		if( xCommandID < tmrFIRST_FROM_ISR_COMMAND )
 8006c28:	68bb      	ldr	r3, [r7, #8]
 8006c2a:	2b05      	cmp	r3, #5
 8006c2c:	dc18      	bgt.n	8006c60 <xTimerGenericCommand+0x7c>
		{
			if( xTaskGetSchedulerState() == taskSCHEDULER_RUNNING )
 8006c2e:	f7ff fdad 	bl	800678c <xTaskGetSchedulerState>
 8006c32:	4603      	mov	r3, r0
 8006c34:	2b02      	cmp	r3, #2
 8006c36:	d109      	bne.n	8006c4c <xTimerGenericCommand+0x68>
			{
				xReturn = xQueueSendToBack( xTimerQueue, &xMessage, xTicksToWait );
 8006c38:	4b10      	ldr	r3, [pc, #64]	@ (8006c7c <xTimerGenericCommand+0x98>)
 8006c3a:	6818      	ldr	r0, [r3, #0]
 8006c3c:	f107 0110 	add.w	r1, r7, #16
 8006c40:	2300      	movs	r3, #0
 8006c42:	6b3a      	ldr	r2, [r7, #48]	@ 0x30
 8006c44:	f7fe fa60 	bl	8005108 <xQueueGenericSend>
 8006c48:	6278      	str	r0, [r7, #36]	@ 0x24
 8006c4a:	e012      	b.n	8006c72 <xTimerGenericCommand+0x8e>
			}
			else
			{
				xReturn = xQueueSendToBack( xTimerQueue, &xMessage, tmrNO_DELAY );
 8006c4c:	4b0b      	ldr	r3, [pc, #44]	@ (8006c7c <xTimerGenericCommand+0x98>)
 8006c4e:	6818      	ldr	r0, [r3, #0]
 8006c50:	f107 0110 	add.w	r1, r7, #16
 8006c54:	2300      	movs	r3, #0
 8006c56:	2200      	movs	r2, #0
 8006c58:	f7fe fa56 	bl	8005108 <xQueueGenericSend>
 8006c5c:	6278      	str	r0, [r7, #36]	@ 0x24
 8006c5e:	e008      	b.n	8006c72 <xTimerGenericCommand+0x8e>
			}
		}
		else
		{
			xReturn = xQueueSendToBackFromISR( xTimerQueue, &xMessage, pxHigherPriorityTaskWoken );
 8006c60:	4b06      	ldr	r3, [pc, #24]	@ (8006c7c <xTimerGenericCommand+0x98>)
 8006c62:	6818      	ldr	r0, [r3, #0]
 8006c64:	f107 0110 	add.w	r1, r7, #16
 8006c68:	2300      	movs	r3, #0
 8006c6a:	683a      	ldr	r2, [r7, #0]
 8006c6c:	f7fe fb4e 	bl	800530c <xQueueGenericSendFromISR>
 8006c70:	6278      	str	r0, [r7, #36]	@ 0x24
	else
	{
		mtCOVERAGE_TEST_MARKER();
	}

	return xReturn;
 8006c72:	6a7b      	ldr	r3, [r7, #36]	@ 0x24
}
 8006c74:	4618      	mov	r0, r3
 8006c76:	3728      	adds	r7, #40	@ 0x28
 8006c78:	46bd      	mov	sp, r7
 8006c7a:	bd80      	pop	{r7, pc}
 8006c7c:	200014d4 	.word	0x200014d4

08006c80 <prvProcessExpiredTimer>:
	return pxTimer->pcTimerName;
}
/*-----------------------------------------------------------*/

static void prvProcessExpiredTimer( const TickType_t xNextExpireTime, const TickType_t xTimeNow )
{
 8006c80:	b580      	push	{r7, lr}
 8006c82:	b088      	sub	sp, #32
 8006c84:	af02      	add	r7, sp, #8
 8006c86:	6078      	str	r0, [r7, #4]
 8006c88:	6039      	str	r1, [r7, #0]
BaseType_t xResult;
Timer_t * const pxTimer = ( Timer_t * ) listGET_OWNER_OF_HEAD_ENTRY( pxCurrentTimerList ); /*lint !e9087 !e9079 void * is used as this macro is used with tasks and co-routines too.  Alignment is known to be fine as the type of the pointer stored and retrieved is the same. */
 8006c8a:	4b23      	ldr	r3, [pc, #140]	@ (8006d18 <prvProcessExpiredTimer+0x98>)
 8006c8c:	681b      	ldr	r3, [r3, #0]
 8006c8e:	68db      	ldr	r3, [r3, #12]
 8006c90:	68db      	ldr	r3, [r3, #12]
 8006c92:	617b      	str	r3, [r7, #20]

	/* Remove the timer from the list of active timers.  A check has already
	been performed to ensure the list is not empty. */
	( void ) uxListRemove( &( pxTimer->xTimerListItem ) );
 8006c94:	697b      	ldr	r3, [r7, #20]
 8006c96:	3304      	adds	r3, #4
 8006c98:	4618      	mov	r0, r3
 8006c9a:	f7fe f893 	bl	8004dc4 <uxListRemove>
	traceTIMER_EXPIRED( pxTimer );

	/* If the timer is an auto-reload timer then calculate the next
	expiry time and re-insert the timer in the list of active timers. */
	if( ( pxTimer->ucStatus & tmrSTATUS_IS_AUTORELOAD ) != 0 )
 8006c9e:	697b      	ldr	r3, [r7, #20]
 8006ca0:	f893 3028 	ldrb.w	r3, [r3, #40]	@ 0x28
 8006ca4:	f003 0304 	and.w	r3, r3, #4
 8006ca8:	2b00      	cmp	r3, #0
 8006caa:	d023      	beq.n	8006cf4 <prvProcessExpiredTimer+0x74>
	{
		/* The timer is inserted into a list using a time relative to anything
		other than the current time.  It will therefore be inserted into the
		correct list relative to the time this task thinks it is now. */
		if( prvInsertTimerInActiveList( pxTimer, ( xNextExpireTime + pxTimer->xTimerPeriodInTicks ), xTimeNow, xNextExpireTime ) != pdFALSE )
 8006cac:	697b      	ldr	r3, [r7, #20]
 8006cae:	699a      	ldr	r2, [r3, #24]
 8006cb0:	687b      	ldr	r3, [r7, #4]
 8006cb2:	18d1      	adds	r1, r2, r3
 8006cb4:	687b      	ldr	r3, [r7, #4]
 8006cb6:	683a      	ldr	r2, [r7, #0]
 8006cb8:	6978      	ldr	r0, [r7, #20]
 8006cba:	f000 f8d5 	bl	8006e68 <prvInsertTimerInActiveList>
 8006cbe:	4603      	mov	r3, r0
 8006cc0:	2b00      	cmp	r3, #0
 8006cc2:	d020      	beq.n	8006d06 <prvProcessExpiredTimer+0x86>
		{
			/* The timer expired before it was added to the active timer
			list.  Reload it now.  */
			xResult = xTimerGenericCommand( pxTimer, tmrCOMMAND_START_DONT_TRACE, xNextExpireTime, NULL, tmrNO_DELAY );
 8006cc4:	2300      	movs	r3, #0
 8006cc6:	9300      	str	r3, [sp, #0]
 8006cc8:	2300      	movs	r3, #0
 8006cca:	687a      	ldr	r2, [r7, #4]
 8006ccc:	2100      	movs	r1, #0
 8006cce:	6978      	ldr	r0, [r7, #20]
 8006cd0:	f7ff ff88 	bl	8006be4 <xTimerGenericCommand>
 8006cd4:	6138      	str	r0, [r7, #16]
			configASSERT( xResult );
 8006cd6:	693b      	ldr	r3, [r7, #16]
 8006cd8:	2b00      	cmp	r3, #0
 8006cda:	d114      	bne.n	8006d06 <prvProcessExpiredTimer+0x86>
	__asm volatile
 8006cdc:	f04f 0350 	mov.w	r3, #80	@ 0x50
 8006ce0:	f383 8811 	msr	BASEPRI, r3
 8006ce4:	f3bf 8f6f 	isb	sy
 8006ce8:	f3bf 8f4f 	dsb	sy
 8006cec:	60fb      	str	r3, [r7, #12]
}
 8006cee:	bf00      	nop
 8006cf0:	bf00      	nop
 8006cf2:	e7fd      	b.n	8006cf0 <prvProcessExpiredTimer+0x70>
			mtCOVERAGE_TEST_MARKER();
		}
	}
	else
	{
		pxTimer->ucStatus &= ~tmrSTATUS_IS_ACTIVE;
 8006cf4:	697b      	ldr	r3, [r7, #20]
 8006cf6:	f893 3028 	ldrb.w	r3, [r3, #40]	@ 0x28
 8006cfa:	f023 0301 	bic.w	r3, r3, #1
 8006cfe:	b2da      	uxtb	r2, r3
 8006d00:	697b      	ldr	r3, [r7, #20]
 8006d02:	f883 2028 	strb.w	r2, [r3, #40]	@ 0x28
		mtCOVERAGE_TEST_MARKER();
	}

	/* Call the timer callback. */
	pxTimer->pxCallbackFunction( ( TimerHandle_t ) pxTimer );
 8006d06:	697b      	ldr	r3, [r7, #20]
 8006d08:	6a1b      	ldr	r3, [r3, #32]
 8006d0a:	6978      	ldr	r0, [r7, #20]
 8006d0c:	4798      	blx	r3
}
 8006d0e:	bf00      	nop
 8006d10:	3718      	adds	r7, #24
 8006d12:	46bd      	mov	sp, r7
 8006d14:	bd80      	pop	{r7, pc}
 8006d16:	bf00      	nop
 8006d18:	200014cc 	.word	0x200014cc

08006d1c <prvTimerTask>:
/*-----------------------------------------------------------*/

static portTASK_FUNCTION( prvTimerTask, pvParameters )
{
 8006d1c:	b580      	push	{r7, lr}
 8006d1e:	b084      	sub	sp, #16
 8006d20:	af00      	add	r7, sp, #0
 8006d22:	6078      	str	r0, [r7, #4]

	for( ;; )
	{
		/* Query the timers list to see if it contains any timers, and if so,
		obtain the time at which the next timer will expire. */
		xNextExpireTime = prvGetNextExpireTime( &xListWasEmpty );
 8006d24:	f107 0308 	add.w	r3, r7, #8
 8006d28:	4618      	mov	r0, r3
 8006d2a:	f000 f859 	bl	8006de0 <prvGetNextExpireTime>
 8006d2e:	60f8      	str	r0, [r7, #12]

		/* If a timer has expired, process it.  Otherwise, block this task
		until either a timer does expire, or a command is received. */
		prvProcessTimerOrBlockTask( xNextExpireTime, xListWasEmpty );
 8006d30:	68bb      	ldr	r3, [r7, #8]
 8006d32:	4619      	mov	r1, r3
 8006d34:	68f8      	ldr	r0, [r7, #12]
 8006d36:	f000 f805 	bl	8006d44 <prvProcessTimerOrBlockTask>

		/* Empty the command queue. */
		prvProcessReceivedCommands();
 8006d3a:	f000 f8d7 	bl	8006eec <prvProcessReceivedCommands>
		xNextExpireTime = prvGetNextExpireTime( &xListWasEmpty );
 8006d3e:	bf00      	nop
 8006d40:	e7f0      	b.n	8006d24 <prvTimerTask+0x8>
	...

08006d44 <prvProcessTimerOrBlockTask>:
	}
}
/*-----------------------------------------------------------*/

static void prvProcessTimerOrBlockTask( const TickType_t xNextExpireTime, BaseType_t xListWasEmpty )
{
 8006d44:	b580      	push	{r7, lr}
 8006d46:	b084      	sub	sp, #16
 8006d48:	af00      	add	r7, sp, #0
 8006d4a:	6078      	str	r0, [r7, #4]
 8006d4c:	6039      	str	r1, [r7, #0]
TickType_t xTimeNow;
BaseType_t xTimerListsWereSwitched;

	vTaskSuspendAll();
 8006d4e:	f7ff f937 	bl	8005fc0 <vTaskSuspendAll>
		/* Obtain the time now to make an assessment as to whether the timer
		has expired or not.  If obtaining the time causes the lists to switch
		then don't process this timer as any timers that remained in the list
		when the lists were switched will have been processed within the
		prvSampleTimeNow() function. */
		xTimeNow = prvSampleTimeNow( &xTimerListsWereSwitched );
 8006d52:	f107 0308 	add.w	r3, r7, #8
 8006d56:	4618      	mov	r0, r3
 8006d58:	f000 f866 	bl	8006e28 <prvSampleTimeNow>
 8006d5c:	60f8      	str	r0, [r7, #12]
		if( xTimerListsWereSwitched == pdFALSE )
 8006d5e:	68bb      	ldr	r3, [r7, #8]
 8006d60:	2b00      	cmp	r3, #0
 8006d62:	d130      	bne.n	8006dc6 <prvProcessTimerOrBlockTask+0x82>
		{
			/* The tick count has not overflowed, has the timer expired? */
			if( ( xListWasEmpty == pdFALSE ) && ( xNextExpireTime <= xTimeNow ) )
 8006d64:	683b      	ldr	r3, [r7, #0]
 8006d66:	2b00      	cmp	r3, #0
 8006d68:	d10a      	bne.n	8006d80 <prvProcessTimerOrBlockTask+0x3c>
 8006d6a:	687a      	ldr	r2, [r7, #4]
 8006d6c:	68fb      	ldr	r3, [r7, #12]
 8006d6e:	429a      	cmp	r2, r3
 8006d70:	d806      	bhi.n	8006d80 <prvProcessTimerOrBlockTask+0x3c>
			{
				( void ) xTaskResumeAll();
 8006d72:	f7ff f933 	bl	8005fdc <xTaskResumeAll>
				prvProcessExpiredTimer( xNextExpireTime, xTimeNow );
 8006d76:	68f9      	ldr	r1, [r7, #12]
 8006d78:	6878      	ldr	r0, [r7, #4]
 8006d7a:	f7ff ff81 	bl	8006c80 <prvProcessExpiredTimer>
		else
		{
			( void ) xTaskResumeAll();
		}
	}
}
 8006d7e:	e024      	b.n	8006dca <prvProcessTimerOrBlockTask+0x86>
				if( xListWasEmpty != pdFALSE )
 8006d80:	683b      	ldr	r3, [r7, #0]
 8006d82:	2b00      	cmp	r3, #0
 8006d84:	d008      	beq.n	8006d98 <prvProcessTimerOrBlockTask+0x54>
					xListWasEmpty = listLIST_IS_EMPTY( pxOverflowTimerList );
 8006d86:	4b13      	ldr	r3, [pc, #76]	@ (8006dd4 <prvProcessTimerOrBlockTask+0x90>)
 8006d88:	681b      	ldr	r3, [r3, #0]
 8006d8a:	681b      	ldr	r3, [r3, #0]
 8006d8c:	2b00      	cmp	r3, #0
 8006d8e:	d101      	bne.n	8006d94 <prvProcessTimerOrBlockTask+0x50>
 8006d90:	2301      	movs	r3, #1
 8006d92:	e000      	b.n	8006d96 <prvProcessTimerOrBlockTask+0x52>
 8006d94:	2300      	movs	r3, #0
 8006d96:	603b      	str	r3, [r7, #0]
				vQueueWaitForMessageRestricted( xTimerQueue, ( xNextExpireTime - xTimeNow ), xListWasEmpty );
 8006d98:	4b0f      	ldr	r3, [pc, #60]	@ (8006dd8 <prvProcessTimerOrBlockTask+0x94>)
 8006d9a:	6818      	ldr	r0, [r3, #0]
 8006d9c:	687a      	ldr	r2, [r7, #4]
 8006d9e:	68fb      	ldr	r3, [r7, #12]
 8006da0:	1ad3      	subs	r3, r2, r3
 8006da2:	683a      	ldr	r2, [r7, #0]
 8006da4:	4619      	mov	r1, r3
 8006da6:	f7fe fe93 	bl	8005ad0 <vQueueWaitForMessageRestricted>
				if( xTaskResumeAll() == pdFALSE )
 8006daa:	f7ff f917 	bl	8005fdc <xTaskResumeAll>
 8006dae:	4603      	mov	r3, r0
 8006db0:	2b00      	cmp	r3, #0
 8006db2:	d10a      	bne.n	8006dca <prvProcessTimerOrBlockTask+0x86>
					portYIELD_WITHIN_API();
 8006db4:	4b09      	ldr	r3, [pc, #36]	@ (8006ddc <prvProcessTimerOrBlockTask+0x98>)
 8006db6:	f04f 5280 	mov.w	r2, #268435456	@ 0x10000000
 8006dba:	601a      	str	r2, [r3, #0]
 8006dbc:	f3bf 8f4f 	dsb	sy
 8006dc0:	f3bf 8f6f 	isb	sy
}
 8006dc4:	e001      	b.n	8006dca <prvProcessTimerOrBlockTask+0x86>
			( void ) xTaskResumeAll();
 8006dc6:	f7ff f909 	bl	8005fdc <xTaskResumeAll>
}
 8006dca:	bf00      	nop
 8006dcc:	3710      	adds	r7, #16
 8006dce:	46bd      	mov	sp, r7
 8006dd0:	bd80      	pop	{r7, pc}
 8006dd2:	bf00      	nop
 8006dd4:	200014d0 	.word	0x200014d0
 8006dd8:	200014d4 	.word	0x200014d4
 8006ddc:	e000ed04 	.word	0xe000ed04

08006de0 <prvGetNextExpireTime>:
/*-----------------------------------------------------------*/

static TickType_t prvGetNextExpireTime( BaseType_t * const pxListWasEmpty )
{
 8006de0:	b480      	push	{r7}
 8006de2:	b085      	sub	sp, #20
 8006de4:	af00      	add	r7, sp, #0
 8006de6:	6078      	str	r0, [r7, #4]
	the timer with the nearest expiry time will expire.  If there are no
	active timers then just set the next expire time to 0.  That will cause
	this task to unblock when the tick count overflows, at which point the
	timer lists will be switched and the next expiry time can be
	re-assessed.  */
	*pxListWasEmpty = listLIST_IS_EMPTY( pxCurrentTimerList );
 8006de8:	4b0e      	ldr	r3, [pc, #56]	@ (8006e24 <prvGetNextExpireTime+0x44>)
 8006dea:	681b      	ldr	r3, [r3, #0]
 8006dec:	681b      	ldr	r3, [r3, #0]
 8006dee:	2b00      	cmp	r3, #0
 8006df0:	d101      	bne.n	8006df6 <prvGetNextExpireTime+0x16>
 8006df2:	2201      	movs	r2, #1
 8006df4:	e000      	b.n	8006df8 <prvGetNextExpireTime+0x18>
 8006df6:	2200      	movs	r2, #0
 8006df8:	687b      	ldr	r3, [r7, #4]
 8006dfa:	601a      	str	r2, [r3, #0]
	if( *pxListWasEmpty == pdFALSE )
 8006dfc:	687b      	ldr	r3, [r7, #4]
 8006dfe:	681b      	ldr	r3, [r3, #0]
 8006e00:	2b00      	cmp	r3, #0
 8006e02:	d105      	bne.n	8006e10 <prvGetNextExpireTime+0x30>
	{
		xNextExpireTime = listGET_ITEM_VALUE_OF_HEAD_ENTRY( pxCurrentTimerList );
 8006e04:	4b07      	ldr	r3, [pc, #28]	@ (8006e24 <prvGetNextExpireTime+0x44>)
 8006e06:	681b      	ldr	r3, [r3, #0]
 8006e08:	68db      	ldr	r3, [r3, #12]
 8006e0a:	681b      	ldr	r3, [r3, #0]
 8006e0c:	60fb      	str	r3, [r7, #12]
 8006e0e:	e001      	b.n	8006e14 <prvGetNextExpireTime+0x34>
	}
	else
	{
		/* Ensure the task unblocks when the tick count rolls over. */
		xNextExpireTime = ( TickType_t ) 0U;
 8006e10:	2300      	movs	r3, #0
 8006e12:	60fb      	str	r3, [r7, #12]
	}

	return xNextExpireTime;
 8006e14:	68fb      	ldr	r3, [r7, #12]
}
 8006e16:	4618      	mov	r0, r3
 8006e18:	3714      	adds	r7, #20
 8006e1a:	46bd      	mov	sp, r7
 8006e1c:	f85d 7b04 	ldr.w	r7, [sp], #4
 8006e20:	4770      	bx	lr
 8006e22:	bf00      	nop
 8006e24:	200014cc 	.word	0x200014cc

08006e28 <prvSampleTimeNow>:
/*-----------------------------------------------------------*/

static TickType_t prvSampleTimeNow( BaseType_t * const pxTimerListsWereSwitched )
{
 8006e28:	b580      	push	{r7, lr}
 8006e2a:	b084      	sub	sp, #16
 8006e2c:	af00      	add	r7, sp, #0
 8006e2e:	6078      	str	r0, [r7, #4]
TickType_t xTimeNow;
PRIVILEGED_DATA static TickType_t xLastTime = ( TickType_t ) 0U; /*lint !e956 Variable is only accessible to one task. */

	xTimeNow = xTaskGetTickCount();
 8006e30:	f7ff f972 	bl	8006118 <xTaskGetTickCount>
 8006e34:	60f8      	str	r0, [r7, #12]

	if( xTimeNow < xLastTime )
 8006e36:	4b0b      	ldr	r3, [pc, #44]	@ (8006e64 <prvSampleTimeNow+0x3c>)
 8006e38:	681b      	ldr	r3, [r3, #0]
 8006e3a:	68fa      	ldr	r2, [r7, #12]
 8006e3c:	429a      	cmp	r2, r3
 8006e3e:	d205      	bcs.n	8006e4c <prvSampleTimeNow+0x24>
	{
		prvSwitchTimerLists();
 8006e40:	f000 f93a 	bl	80070b8 <prvSwitchTimerLists>
		*pxTimerListsWereSwitched = pdTRUE;
 8006e44:	687b      	ldr	r3, [r7, #4]
 8006e46:	2201      	movs	r2, #1
 8006e48:	601a      	str	r2, [r3, #0]
 8006e4a:	e002      	b.n	8006e52 <prvSampleTimeNow+0x2a>
	}
	else
	{
		*pxTimerListsWereSwitched = pdFALSE;
 8006e4c:	687b      	ldr	r3, [r7, #4]
 8006e4e:	2200      	movs	r2, #0
 8006e50:	601a      	str	r2, [r3, #0]
	}

	xLastTime = xTimeNow;
 8006e52:	4a04      	ldr	r2, [pc, #16]	@ (8006e64 <prvSampleTimeNow+0x3c>)
 8006e54:	68fb      	ldr	r3, [r7, #12]
 8006e56:	6013      	str	r3, [r2, #0]

	return xTimeNow;
 8006e58:	68fb      	ldr	r3, [r7, #12]
}
 8006e5a:	4618      	mov	r0, r3
 8006e5c:	3710      	adds	r7, #16
 8006e5e:	46bd      	mov	sp, r7
 8006e60:	bd80      	pop	{r7, pc}
 8006e62:	bf00      	nop
 8006e64:	200014dc 	.word	0x200014dc

08006e68 <prvInsertTimerInActiveList>:
/*-----------------------------------------------------------*/

static BaseType_t prvInsertTimerInActiveList( Timer_t * const pxTimer, const TickType_t xNextExpiryTime, const TickType_t xTimeNow, const TickType_t xCommandTime )
{
 8006e68:	b580      	push	{r7, lr}
 8006e6a:	b086      	sub	sp, #24
 8006e6c:	af00      	add	r7, sp, #0
 8006e6e:	60f8      	str	r0, [r7, #12]
 8006e70:	60b9      	str	r1, [r7, #8]
 8006e72:	607a      	str	r2, [r7, #4]
 8006e74:	603b      	str	r3, [r7, #0]
BaseType_t xProcessTimerNow = pdFALSE;
 8006e76:	2300      	movs	r3, #0
 8006e78:	617b      	str	r3, [r7, #20]

	listSET_LIST_ITEM_VALUE( &( pxTimer->xTimerListItem ), xNextExpiryTime );
 8006e7a:	68fb      	ldr	r3, [r7, #12]
 8006e7c:	68ba      	ldr	r2, [r7, #8]
 8006e7e:	605a      	str	r2, [r3, #4]
	listSET_LIST_ITEM_OWNER( &( pxTimer->xTimerListItem ), pxTimer );
 8006e80:	68fb      	ldr	r3, [r7, #12]
 8006e82:	68fa      	ldr	r2, [r7, #12]
 8006e84:	611a      	str	r2, [r3, #16]

	if( xNextExpiryTime <= xTimeNow )
 8006e86:	68ba      	ldr	r2, [r7, #8]
 8006e88:	687b      	ldr	r3, [r7, #4]
 8006e8a:	429a      	cmp	r2, r3
 8006e8c:	d812      	bhi.n	8006eb4 <prvInsertTimerInActiveList+0x4c>
	{
		/* Has the expiry time elapsed between the command to start/reset a
		timer was issued, and the time the command was processed? */
		if( ( ( TickType_t ) ( xTimeNow - xCommandTime ) ) >= pxTimer->xTimerPeriodInTicks ) /*lint !e961 MISRA exception as the casts are only redundant for some ports. */
 8006e8e:	687a      	ldr	r2, [r7, #4]
 8006e90:	683b      	ldr	r3, [r7, #0]
 8006e92:	1ad2      	subs	r2, r2, r3
 8006e94:	68fb      	ldr	r3, [r7, #12]
 8006e96:	699b      	ldr	r3, [r3, #24]
 8006e98:	429a      	cmp	r2, r3
 8006e9a:	d302      	bcc.n	8006ea2 <prvInsertTimerInActiveList+0x3a>
		{
			/* The time between a command being issued and the command being
			processed actually exceeds the timers period.  */
			xProcessTimerNow = pdTRUE;
 8006e9c:	2301      	movs	r3, #1
 8006e9e:	617b      	str	r3, [r7, #20]
 8006ea0:	e01b      	b.n	8006eda <prvInsertTimerInActiveList+0x72>
		}
		else
		{
			vListInsert( pxOverflowTimerList, &( pxTimer->xTimerListItem ) );
 8006ea2:	4b10      	ldr	r3, [pc, #64]	@ (8006ee4 <prvInsertTimerInActiveList+0x7c>)
 8006ea4:	681a      	ldr	r2, [r3, #0]
 8006ea6:	68fb      	ldr	r3, [r7, #12]
 8006ea8:	3304      	adds	r3, #4
 8006eaa:	4619      	mov	r1, r3
 8006eac:	4610      	mov	r0, r2
 8006eae:	f7fd ff50 	bl	8004d52 <vListInsert>
 8006eb2:	e012      	b.n	8006eda <prvInsertTimerInActiveList+0x72>
		}
	}
	else
	{
		if( ( xTimeNow < xCommandTime ) && ( xNextExpiryTime >= xCommandTime ) )
 8006eb4:	687a      	ldr	r2, [r7, #4]
 8006eb6:	683b      	ldr	r3, [r7, #0]
 8006eb8:	429a      	cmp	r2, r3
 8006eba:	d206      	bcs.n	8006eca <prvInsertTimerInActiveList+0x62>
 8006ebc:	68ba      	ldr	r2, [r7, #8]
 8006ebe:	683b      	ldr	r3, [r7, #0]
 8006ec0:	429a      	cmp	r2, r3
 8006ec2:	d302      	bcc.n	8006eca <prvInsertTimerInActiveList+0x62>
		{
			/* If, since the command was issued, the tick count has overflowed
			but the expiry time has not, then the timer must have already passed
			its expiry time and should be processed immediately. */
			xProcessTimerNow = pdTRUE;
 8006ec4:	2301      	movs	r3, #1
 8006ec6:	617b      	str	r3, [r7, #20]
 8006ec8:	e007      	b.n	8006eda <prvInsertTimerInActiveList+0x72>
		}
		else
		{
			vListInsert( pxCurrentTimerList, &( pxTimer->xTimerListItem ) );
 8006eca:	4b07      	ldr	r3, [pc, #28]	@ (8006ee8 <prvInsertTimerInActiveList+0x80>)
 8006ecc:	681a      	ldr	r2, [r3, #0]
 8006ece:	68fb      	ldr	r3, [r7, #12]
 8006ed0:	3304      	adds	r3, #4
 8006ed2:	4619      	mov	r1, r3
 8006ed4:	4610      	mov	r0, r2
 8006ed6:	f7fd ff3c 	bl	8004d52 <vListInsert>
		}
	}

	return xProcessTimerNow;
 8006eda:	697b      	ldr	r3, [r7, #20]
}
 8006edc:	4618      	mov	r0, r3
 8006ede:	3718      	adds	r7, #24
 8006ee0:	46bd      	mov	sp, r7
 8006ee2:	bd80      	pop	{r7, pc}
 8006ee4:	200014d0 	.word	0x200014d0
 8006ee8:	200014cc 	.word	0x200014cc

08006eec <prvProcessReceivedCommands>:
/*-----------------------------------------------------------*/

static void	prvProcessReceivedCommands( void )
{
 8006eec:	b580      	push	{r7, lr}
 8006eee:	b08e      	sub	sp, #56	@ 0x38
 8006ef0:	af02      	add	r7, sp, #8
DaemonTaskMessage_t xMessage;
Timer_t *pxTimer;
BaseType_t xTimerListsWereSwitched, xResult;
TickType_t xTimeNow;

	while( xQueueReceive( xTimerQueue, &xMessage, tmrNO_DELAY ) != pdFAIL ) /*lint !e603 xMessage does not have to be initialised as it is passed out, not in, and it is not used unless xQueueReceive() returns pdTRUE. */
 8006ef2:	e0ce      	b.n	8007092 <prvProcessReceivedCommands+0x1a6>
	{
		#if ( INCLUDE_xTimerPendFunctionCall == 1 )
		{
			/* Negative commands are pended function calls rather than timer
			commands. */
			if( xMessage.xMessageID < ( BaseType_t ) 0 )
 8006ef4:	687b      	ldr	r3, [r7, #4]
 8006ef6:	2b00      	cmp	r3, #0
 8006ef8:	da19      	bge.n	8006f2e <prvProcessReceivedCommands+0x42>
			{
				const CallbackParameters_t * const pxCallback = &( xMessage.u.xCallbackParameters );
 8006efa:	1d3b      	adds	r3, r7, #4
 8006efc:	3304      	adds	r3, #4
 8006efe:	62fb      	str	r3, [r7, #44]	@ 0x2c

				/* The timer uses the xCallbackParameters member to request a
				callback be executed.  Check the callback is not NULL. */
				configASSERT( pxCallback );
 8006f00:	6afb      	ldr	r3, [r7, #44]	@ 0x2c
 8006f02:	2b00      	cmp	r3, #0
 8006f04:	d10b      	bne.n	8006f1e <prvProcessReceivedCommands+0x32>
	__asm volatile
 8006f06:	f04f 0350 	mov.w	r3, #80	@ 0x50
 8006f0a:	f383 8811 	msr	BASEPRI, r3
 8006f0e:	f3bf 8f6f 	isb	sy
 8006f12:	f3bf 8f4f 	dsb	sy
 8006f16:	61fb      	str	r3, [r7, #28]
}
 8006f18:	bf00      	nop
 8006f1a:	bf00      	nop
 8006f1c:	e7fd      	b.n	8006f1a <prvProcessReceivedCommands+0x2e>

				/* Call the function. */
				pxCallback->pxCallbackFunction( pxCallback->pvParameter1, pxCallback->ulParameter2 );
 8006f1e:	6afb      	ldr	r3, [r7, #44]	@ 0x2c
 8006f20:	681b      	ldr	r3, [r3, #0]
 8006f22:	6afa      	ldr	r2, [r7, #44]	@ 0x2c
 8006f24:	6850      	ldr	r0, [r2, #4]
 8006f26:	6afa      	ldr	r2, [r7, #44]	@ 0x2c
 8006f28:	6892      	ldr	r2, [r2, #8]
 8006f2a:	4611      	mov	r1, r2
 8006f2c:	4798      	blx	r3
		}
		#endif /* INCLUDE_xTimerPendFunctionCall */

		/* Commands that are positive are timer commands rather than pended
		function calls. */
		if( xMessage.xMessageID >= ( BaseType_t ) 0 )
 8006f2e:	687b      	ldr	r3, [r7, #4]
 8006f30:	2b00      	cmp	r3, #0
 8006f32:	f2c0 80ae 	blt.w	8007092 <prvProcessReceivedCommands+0x1a6>
		{
			/* The messages uses the xTimerParameters member to work on a
			software timer. */
			pxTimer = xMessage.u.xTimerParameters.pxTimer;
 8006f36:	68fb      	ldr	r3, [r7, #12]
 8006f38:	62bb      	str	r3, [r7, #40]	@ 0x28

			if( listIS_CONTAINED_WITHIN( NULL, &( pxTimer->xTimerListItem ) ) == pdFALSE ) /*lint !e961. The cast is only redundant when NULL is passed into the macro. */
 8006f3a:	6abb      	ldr	r3, [r7, #40]	@ 0x28
 8006f3c:	695b      	ldr	r3, [r3, #20]
 8006f3e:	2b00      	cmp	r3, #0
 8006f40:	d004      	beq.n	8006f4c <prvProcessReceivedCommands+0x60>
			{
				/* The timer is in a list, remove it. */
				( void ) uxListRemove( &( pxTimer->xTimerListItem ) );
 8006f42:	6abb      	ldr	r3, [r7, #40]	@ 0x28
 8006f44:	3304      	adds	r3, #4
 8006f46:	4618      	mov	r0, r3
 8006f48:	f7fd ff3c 	bl	8004dc4 <uxListRemove>
			it must be present in the function call.  prvSampleTimeNow() must be
			called after the message is received from xTimerQueue so there is no
			possibility of a higher priority task adding a message to the message
			queue with a time that is ahead of the timer daemon task (because it
			pre-empted the timer daemon task after the xTimeNow value was set). */
			xTimeNow = prvSampleTimeNow( &xTimerListsWereSwitched );
 8006f4c:	463b      	mov	r3, r7
 8006f4e:	4618      	mov	r0, r3
 8006f50:	f7ff ff6a 	bl	8006e28 <prvSampleTimeNow>
 8006f54:	6278      	str	r0, [r7, #36]	@ 0x24

			switch( xMessage.xMessageID )
 8006f56:	687b      	ldr	r3, [r7, #4]
 8006f58:	2b09      	cmp	r3, #9
 8006f5a:	f200 8097 	bhi.w	800708c <prvProcessReceivedCommands+0x1a0>
 8006f5e:	a201      	add	r2, pc, #4	@ (adr r2, 8006f64 <prvProcessReceivedCommands+0x78>)
 8006f60:	f852 f023 	ldr.w	pc, [r2, r3, lsl #2]
 8006f64:	08006f8d 	.word	0x08006f8d
 8006f68:	08006f8d 	.word	0x08006f8d
 8006f6c:	08006f8d 	.word	0x08006f8d
 8006f70:	08007003 	.word	0x08007003
 8006f74:	08007017 	.word	0x08007017
 8006f78:	08007063 	.word	0x08007063
 8006f7c:	08006f8d 	.word	0x08006f8d
 8006f80:	08006f8d 	.word	0x08006f8d
 8006f84:	08007003 	.word	0x08007003
 8006f88:	08007017 	.word	0x08007017
				case tmrCOMMAND_START_FROM_ISR :
				case tmrCOMMAND_RESET :
				case tmrCOMMAND_RESET_FROM_ISR :
				case tmrCOMMAND_START_DONT_TRACE :
					/* Start or restart a timer. */
					pxTimer->ucStatus |= tmrSTATUS_IS_ACTIVE;
 8006f8c:	6abb      	ldr	r3, [r7, #40]	@ 0x28
 8006f8e:	f893 3028 	ldrb.w	r3, [r3, #40]	@ 0x28
 8006f92:	f043 0301 	orr.w	r3, r3, #1
 8006f96:	b2da      	uxtb	r2, r3
 8006f98:	6abb      	ldr	r3, [r7, #40]	@ 0x28
 8006f9a:	f883 2028 	strb.w	r2, [r3, #40]	@ 0x28
					if( prvInsertTimerInActiveList( pxTimer,  xMessage.u.xTimerParameters.xMessageValue + pxTimer->xTimerPeriodInTicks, xTimeNow, xMessage.u.xTimerParameters.xMessageValue ) != pdFALSE )
 8006f9e:	68ba      	ldr	r2, [r7, #8]
 8006fa0:	6abb      	ldr	r3, [r7, #40]	@ 0x28
 8006fa2:	699b      	ldr	r3, [r3, #24]
 8006fa4:	18d1      	adds	r1, r2, r3
 8006fa6:	68bb      	ldr	r3, [r7, #8]
 8006fa8:	6a7a      	ldr	r2, [r7, #36]	@ 0x24
 8006faa:	6ab8      	ldr	r0, [r7, #40]	@ 0x28
 8006fac:	f7ff ff5c 	bl	8006e68 <prvInsertTimerInActiveList>
 8006fb0:	4603      	mov	r3, r0
 8006fb2:	2b00      	cmp	r3, #0
 8006fb4:	d06c      	beq.n	8007090 <prvProcessReceivedCommands+0x1a4>
					{
						/* The timer expired before it was added to the active
						timer list.  Process it now. */
						pxTimer->pxCallbackFunction( ( TimerHandle_t ) pxTimer );
 8006fb6:	6abb      	ldr	r3, [r7, #40]	@ 0x28
 8006fb8:	6a1b      	ldr	r3, [r3, #32]
 8006fba:	6ab8      	ldr	r0, [r7, #40]	@ 0x28
 8006fbc:	4798      	blx	r3
						traceTIMER_EXPIRED( pxTimer );

						if( ( pxTimer->ucStatus & tmrSTATUS_IS_AUTORELOAD ) != 0 )
 8006fbe:	6abb      	ldr	r3, [r7, #40]	@ 0x28
 8006fc0:	f893 3028 	ldrb.w	r3, [r3, #40]	@ 0x28
 8006fc4:	f003 0304 	and.w	r3, r3, #4
 8006fc8:	2b00      	cmp	r3, #0
 8006fca:	d061      	beq.n	8007090 <prvProcessReceivedCommands+0x1a4>
						{
							xResult = xTimerGenericCommand( pxTimer, tmrCOMMAND_START_DONT_TRACE, xMessage.u.xTimerParameters.xMessageValue + pxTimer->xTimerPeriodInTicks, NULL, tmrNO_DELAY );
 8006fcc:	68ba      	ldr	r2, [r7, #8]
 8006fce:	6abb      	ldr	r3, [r7, #40]	@ 0x28
 8006fd0:	699b      	ldr	r3, [r3, #24]
 8006fd2:	441a      	add	r2, r3
 8006fd4:	2300      	movs	r3, #0
 8006fd6:	9300      	str	r3, [sp, #0]
 8006fd8:	2300      	movs	r3, #0
 8006fda:	2100      	movs	r1, #0
 8006fdc:	6ab8      	ldr	r0, [r7, #40]	@ 0x28
 8006fde:	f7ff fe01 	bl	8006be4 <xTimerGenericCommand>
 8006fe2:	6238      	str	r0, [r7, #32]
							configASSERT( xResult );
 8006fe4:	6a3b      	ldr	r3, [r7, #32]
 8006fe6:	2b00      	cmp	r3, #0
 8006fe8:	d152      	bne.n	8007090 <prvProcessReceivedCommands+0x1a4>
	__asm volatile
 8006fea:	f04f 0350 	mov.w	r3, #80	@ 0x50
 8006fee:	f383 8811 	msr	BASEPRI, r3
 8006ff2:	f3bf 8f6f 	isb	sy
 8006ff6:	f3bf 8f4f 	dsb	sy
 8006ffa:	61bb      	str	r3, [r7, #24]
}
 8006ffc:	bf00      	nop
 8006ffe:	bf00      	nop
 8007000:	e7fd      	b.n	8006ffe <prvProcessReceivedCommands+0x112>
					break;

				case tmrCOMMAND_STOP :
				case tmrCOMMAND_STOP_FROM_ISR :
					/* The timer has already been removed from the active list. */
					pxTimer->ucStatus &= ~tmrSTATUS_IS_ACTIVE;
 8007002:	6abb      	ldr	r3, [r7, #40]	@ 0x28
 8007004:	f893 3028 	ldrb.w	r3, [r3, #40]	@ 0x28
 8007008:	f023 0301 	bic.w	r3, r3, #1
 800700c:	b2da      	uxtb	r2, r3
 800700e:	6abb      	ldr	r3, [r7, #40]	@ 0x28
 8007010:	f883 2028 	strb.w	r2, [r3, #40]	@ 0x28
					break;
 8007014:	e03d      	b.n	8007092 <prvProcessReceivedCommands+0x1a6>

				case tmrCOMMAND_CHANGE_PERIOD :
				case tmrCOMMAND_CHANGE_PERIOD_FROM_ISR :
					pxTimer->ucStatus |= tmrSTATUS_IS_ACTIVE;
 8007016:	6abb      	ldr	r3, [r7, #40]	@ 0x28
 8007018:	f893 3028 	ldrb.w	r3, [r3, #40]	@ 0x28
 800701c:	f043 0301 	orr.w	r3, r3, #1
 8007020:	b2da      	uxtb	r2, r3
 8007022:	6abb      	ldr	r3, [r7, #40]	@ 0x28
 8007024:	f883 2028 	strb.w	r2, [r3, #40]	@ 0x28
					pxTimer->xTimerPeriodInTicks = xMessage.u.xTimerParameters.xMessageValue;
 8007028:	68ba      	ldr	r2, [r7, #8]
 800702a:	6abb      	ldr	r3, [r7, #40]	@ 0x28
 800702c:	619a      	str	r2, [r3, #24]
					configASSERT( ( pxTimer->xTimerPeriodInTicks > 0 ) );
 800702e:	6abb      	ldr	r3, [r7, #40]	@ 0x28
 8007030:	699b      	ldr	r3, [r3, #24]
 8007032:	2b00      	cmp	r3, #0
 8007034:	d10b      	bne.n	800704e <prvProcessReceivedCommands+0x162>
	__asm volatile
 8007036:	f04f 0350 	mov.w	r3, #80	@ 0x50
 800703a:	f383 8811 	msr	BASEPRI, r3
 800703e:	f3bf 8f6f 	isb	sy
 8007042:	f3bf 8f4f 	dsb	sy
 8007046:	617b      	str	r3, [r7, #20]
}
 8007048:	bf00      	nop
 800704a:	bf00      	nop
 800704c:	e7fd      	b.n	800704a <prvProcessReceivedCommands+0x15e>
					be longer or shorter than the old one.  The command time is
					therefore set to the current time, and as the period cannot
					be zero the next expiry time can only be in the future,
					meaning (unlike for the xTimerStart() case above) there is
					no fail case that needs to be handled here. */
					( void ) prvInsertTimerInActiveList( pxTimer, ( xTimeNow + pxTimer->xTimerPeriodInTicks ), xTimeNow, xTimeNow );
 800704e:	6abb      	ldr	r3, [r7, #40]	@ 0x28
 8007050:	699a      	ldr	r2, [r3, #24]
 8007052:	6a7b      	ldr	r3, [r7, #36]	@ 0x24
 8007054:	18d1      	adds	r1, r2, r3
 8007056:	6a7b      	ldr	r3, [r7, #36]	@ 0x24
 8007058:	6a7a      	ldr	r2, [r7, #36]	@ 0x24
 800705a:	6ab8      	ldr	r0, [r7, #40]	@ 0x28
 800705c:	f7ff ff04 	bl	8006e68 <prvInsertTimerInActiveList>
					break;
 8007060:	e017      	b.n	8007092 <prvProcessReceivedCommands+0x1a6>
					#if ( configSUPPORT_DYNAMIC_ALLOCATION == 1 )
					{
						/* The timer has already been removed from the active list,
						just free up the memory if the memory was dynamically
						allocated. */
						if( ( pxTimer->ucStatus & tmrSTATUS_IS_STATICALLY_ALLOCATED ) == ( uint8_t ) 0 )
 8007062:	6abb      	ldr	r3, [r7, #40]	@ 0x28
 8007064:	f893 3028 	ldrb.w	r3, [r3, #40]	@ 0x28
 8007068:	f003 0302 	and.w	r3, r3, #2
 800706c:	2b00      	cmp	r3, #0
 800706e:	d103      	bne.n	8007078 <prvProcessReceivedCommands+0x18c>
						{
							vPortFree( pxTimer );
 8007070:	6ab8      	ldr	r0, [r7, #40]	@ 0x28
 8007072:	f000 fbe9 	bl	8007848 <vPortFree>
						no need to free the memory - just mark the timer as
						"not active". */
						pxTimer->ucStatus &= ~tmrSTATUS_IS_ACTIVE;
					}
					#endif /* configSUPPORT_DYNAMIC_ALLOCATION */
					break;
 8007076:	e00c      	b.n	8007092 <prvProcessReceivedCommands+0x1a6>
							pxTimer->ucStatus &= ~tmrSTATUS_IS_ACTIVE;
 8007078:	6abb      	ldr	r3, [r7, #40]	@ 0x28
 800707a:	f893 3028 	ldrb.w	r3, [r3, #40]	@ 0x28
 800707e:	f023 0301 	bic.w	r3, r3, #1
 8007082:	b2da      	uxtb	r2, r3
 8007084:	6abb      	ldr	r3, [r7, #40]	@ 0x28
 8007086:	f883 2028 	strb.w	r2, [r3, #40]	@ 0x28
					break;
 800708a:	e002      	b.n	8007092 <prvProcessReceivedCommands+0x1a6>

				default	:
					/* Don't expect to get here. */
					break;
 800708c:	bf00      	nop
 800708e:	e000      	b.n	8007092 <prvProcessReceivedCommands+0x1a6>
					break;
 8007090:	bf00      	nop
	while( xQueueReceive( xTimerQueue, &xMessage, tmrNO_DELAY ) != pdFAIL ) /*lint !e603 xMessage does not have to be initialised as it is passed out, not in, and it is not used unless xQueueReceive() returns pdTRUE. */
 8007092:	4b08      	ldr	r3, [pc, #32]	@ (80070b4 <prvProcessReceivedCommands+0x1c8>)
 8007094:	681b      	ldr	r3, [r3, #0]
 8007096:	1d39      	adds	r1, r7, #4
 8007098:	2200      	movs	r2, #0
 800709a:	4618      	mov	r0, r3
 800709c:	f7fe f9d4 	bl	8005448 <xQueueReceive>
 80070a0:	4603      	mov	r3, r0
 80070a2:	2b00      	cmp	r3, #0
 80070a4:	f47f af26 	bne.w	8006ef4 <prvProcessReceivedCommands+0x8>
			}
		}
	}
}
 80070a8:	bf00      	nop
 80070aa:	bf00      	nop
 80070ac:	3730      	adds	r7, #48	@ 0x30
 80070ae:	46bd      	mov	sp, r7
 80070b0:	bd80      	pop	{r7, pc}
 80070b2:	bf00      	nop
 80070b4:	200014d4 	.word	0x200014d4

080070b8 <prvSwitchTimerLists>:
/*-----------------------------------------------------------*/

static void prvSwitchTimerLists( void )
{
 80070b8:	b580      	push	{r7, lr}
 80070ba:	b088      	sub	sp, #32
 80070bc:	af02      	add	r7, sp, #8

	/* The tick count has overflowed.  The timer lists must be switched.
	If there are any timers still referenced from the current timer list
	then they must have expired and should be processed before the lists
	are switched. */
	while( listLIST_IS_EMPTY( pxCurrentTimerList ) == pdFALSE )
 80070be:	e049      	b.n	8007154 <prvSwitchTimerLists+0x9c>
	{
		xNextExpireTime = listGET_ITEM_VALUE_OF_HEAD_ENTRY( pxCurrentTimerList );
 80070c0:	4b2e      	ldr	r3, [pc, #184]	@ (800717c <prvSwitchTimerLists+0xc4>)
 80070c2:	681b      	ldr	r3, [r3, #0]
 80070c4:	68db      	ldr	r3, [r3, #12]
 80070c6:	681b      	ldr	r3, [r3, #0]
 80070c8:	613b      	str	r3, [r7, #16]

		/* Remove the timer from the list. */
		pxTimer = ( Timer_t * ) listGET_OWNER_OF_HEAD_ENTRY( pxCurrentTimerList ); /*lint !e9087 !e9079 void * is used as this macro is used with tasks and co-routines too.  Alignment is known to be fine as the type of the pointer stored and retrieved is the same. */
 80070ca:	4b2c      	ldr	r3, [pc, #176]	@ (800717c <prvSwitchTimerLists+0xc4>)
 80070cc:	681b      	ldr	r3, [r3, #0]
 80070ce:	68db      	ldr	r3, [r3, #12]
 80070d0:	68db      	ldr	r3, [r3, #12]
 80070d2:	60fb      	str	r3, [r7, #12]
		( void ) uxListRemove( &( pxTimer->xTimerListItem ) );
 80070d4:	68fb      	ldr	r3, [r7, #12]
 80070d6:	3304      	adds	r3, #4
 80070d8:	4618      	mov	r0, r3
 80070da:	f7fd fe73 	bl	8004dc4 <uxListRemove>
		traceTIMER_EXPIRED( pxTimer );

		/* Execute its callback, then send a command to restart the timer if
		it is an auto-reload timer.  It cannot be restarted here as the lists
		have not yet been switched. */
		pxTimer->pxCallbackFunction( ( TimerHandle_t ) pxTimer );
 80070de:	68fb      	ldr	r3, [r7, #12]
 80070e0:	6a1b      	ldr	r3, [r3, #32]
 80070e2:	68f8      	ldr	r0, [r7, #12]
 80070e4:	4798      	blx	r3

		if( ( pxTimer->ucStatus & tmrSTATUS_IS_AUTORELOAD ) != 0 )
 80070e6:	68fb      	ldr	r3, [r7, #12]
 80070e8:	f893 3028 	ldrb.w	r3, [r3, #40]	@ 0x28
 80070ec:	f003 0304 	and.w	r3, r3, #4
 80070f0:	2b00      	cmp	r3, #0
 80070f2:	d02f      	beq.n	8007154 <prvSwitchTimerLists+0x9c>
			the timer going into the same timer list then it has already expired
			and the timer should be re-inserted into the current list so it is
			processed again within this loop.  Otherwise a command should be sent
			to restart the timer to ensure it is only inserted into a list after
			the lists have been swapped. */
			xReloadTime = ( xNextExpireTime + pxTimer->xTimerPeriodInTicks );
 80070f4:	68fb      	ldr	r3, [r7, #12]
 80070f6:	699b      	ldr	r3, [r3, #24]
 80070f8:	693a      	ldr	r2, [r7, #16]
 80070fa:	4413      	add	r3, r2
 80070fc:	60bb      	str	r3, [r7, #8]
			if( xReloadTime > xNextExpireTime )
 80070fe:	68ba      	ldr	r2, [r7, #8]
 8007100:	693b      	ldr	r3, [r7, #16]
 8007102:	429a      	cmp	r2, r3
 8007104:	d90e      	bls.n	8007124 <prvSwitchTimerLists+0x6c>
			{
				listSET_LIST_ITEM_VALUE( &( pxTimer->xTimerListItem ), xReloadTime );
 8007106:	68fb      	ldr	r3, [r7, #12]
 8007108:	68ba      	ldr	r2, [r7, #8]
 800710a:	605a      	str	r2, [r3, #4]
				listSET_LIST_ITEM_OWNER( &( pxTimer->xTimerListItem ), pxTimer );
 800710c:	68fb      	ldr	r3, [r7, #12]
 800710e:	68fa      	ldr	r2, [r7, #12]
 8007110:	611a      	str	r2, [r3, #16]
				vListInsert( pxCurrentTimerList, &( pxTimer->xTimerListItem ) );
 8007112:	4b1a      	ldr	r3, [pc, #104]	@ (800717c <prvSwitchTimerLists+0xc4>)
 8007114:	681a      	ldr	r2, [r3, #0]
 8007116:	68fb      	ldr	r3, [r7, #12]
 8007118:	3304      	adds	r3, #4
 800711a:	4619      	mov	r1, r3
 800711c:	4610      	mov	r0, r2
 800711e:	f7fd fe18 	bl	8004d52 <vListInsert>
 8007122:	e017      	b.n	8007154 <prvSwitchTimerLists+0x9c>
			}
			else
			{
				xResult = xTimerGenericCommand( pxTimer, tmrCOMMAND_START_DONT_TRACE, xNextExpireTime, NULL, tmrNO_DELAY );
 8007124:	2300      	movs	r3, #0
 8007126:	9300      	str	r3, [sp, #0]
 8007128:	2300      	movs	r3, #0
 800712a:	693a      	ldr	r2, [r7, #16]
 800712c:	2100      	movs	r1, #0
 800712e:	68f8      	ldr	r0, [r7, #12]
 8007130:	f7ff fd58 	bl	8006be4 <xTimerGenericCommand>
 8007134:	6078      	str	r0, [r7, #4]
				configASSERT( xResult );
 8007136:	687b      	ldr	r3, [r7, #4]
 8007138:	2b00      	cmp	r3, #0
 800713a:	d10b      	bne.n	8007154 <prvSwitchTimerLists+0x9c>
	__asm volatile
 800713c:	f04f 0350 	mov.w	r3, #80	@ 0x50
 8007140:	f383 8811 	msr	BASEPRI, r3
 8007144:	f3bf 8f6f 	isb	sy
 8007148:	f3bf 8f4f 	dsb	sy
 800714c:	603b      	str	r3, [r7, #0]
}
 800714e:	bf00      	nop
 8007150:	bf00      	nop
 8007152:	e7fd      	b.n	8007150 <prvSwitchTimerLists+0x98>
	while( listLIST_IS_EMPTY( pxCurrentTimerList ) == pdFALSE )
 8007154:	4b09      	ldr	r3, [pc, #36]	@ (800717c <prvSwitchTimerLists+0xc4>)
 8007156:	681b      	ldr	r3, [r3, #0]
 8007158:	681b      	ldr	r3, [r3, #0]
 800715a:	2b00      	cmp	r3, #0
 800715c:	d1b0      	bne.n	80070c0 <prvSwitchTimerLists+0x8>
		{
			mtCOVERAGE_TEST_MARKER();
		}
	}

	pxTemp = pxCurrentTimerList;
 800715e:	4b07      	ldr	r3, [pc, #28]	@ (800717c <prvSwitchTimerLists+0xc4>)
 8007160:	681b      	ldr	r3, [r3, #0]
 8007162:	617b      	str	r3, [r7, #20]
	pxCurrentTimerList = pxOverflowTimerList;
 8007164:	4b06      	ldr	r3, [pc, #24]	@ (8007180 <prvSwitchTimerLists+0xc8>)
 8007166:	681b      	ldr	r3, [r3, #0]
 8007168:	4a04      	ldr	r2, [pc, #16]	@ (800717c <prvSwitchTimerLists+0xc4>)
 800716a:	6013      	str	r3, [r2, #0]
	pxOverflowTimerList = pxTemp;
 800716c:	4a04      	ldr	r2, [pc, #16]	@ (8007180 <prvSwitchTimerLists+0xc8>)
 800716e:	697b      	ldr	r3, [r7, #20]
 8007170:	6013      	str	r3, [r2, #0]
}
 8007172:	bf00      	nop
 8007174:	3718      	adds	r7, #24
 8007176:	46bd      	mov	sp, r7
 8007178:	bd80      	pop	{r7, pc}
 800717a:	bf00      	nop
 800717c:	200014cc 	.word	0x200014cc
 8007180:	200014d0 	.word	0x200014d0

08007184 <prvCheckForValidListAndQueue>:
/*-----------------------------------------------------------*/

static void prvCheckForValidListAndQueue( void )
{
 8007184:	b580      	push	{r7, lr}
 8007186:	b082      	sub	sp, #8
 8007188:	af02      	add	r7, sp, #8
	/* Check that the list from which active timers are referenced, and the
	queue used to communicate with the timer service, have been
	initialised. */
	taskENTER_CRITICAL();
 800718a:	f000 f96d 	bl	8007468 <vPortEnterCritical>
	{
		if( xTimerQueue == NULL )
 800718e:	4b15      	ldr	r3, [pc, #84]	@ (80071e4 <prvCheckForValidListAndQueue+0x60>)
 8007190:	681b      	ldr	r3, [r3, #0]
 8007192:	2b00      	cmp	r3, #0
 8007194:	d120      	bne.n	80071d8 <prvCheckForValidListAndQueue+0x54>
		{
			vListInitialise( &xActiveTimerList1 );
 8007196:	4814      	ldr	r0, [pc, #80]	@ (80071e8 <prvCheckForValidListAndQueue+0x64>)
 8007198:	f7fd fd8a 	bl	8004cb0 <vListInitialise>
			vListInitialise( &xActiveTimerList2 );
 800719c:	4813      	ldr	r0, [pc, #76]	@ (80071ec <prvCheckForValidListAndQueue+0x68>)
 800719e:	f7fd fd87 	bl	8004cb0 <vListInitialise>
			pxCurrentTimerList = &xActiveTimerList1;
 80071a2:	4b13      	ldr	r3, [pc, #76]	@ (80071f0 <prvCheckForValidListAndQueue+0x6c>)
 80071a4:	4a10      	ldr	r2, [pc, #64]	@ (80071e8 <prvCheckForValidListAndQueue+0x64>)
 80071a6:	601a      	str	r2, [r3, #0]
			pxOverflowTimerList = &xActiveTimerList2;
 80071a8:	4b12      	ldr	r3, [pc, #72]	@ (80071f4 <prvCheckForValidListAndQueue+0x70>)
 80071aa:	4a10      	ldr	r2, [pc, #64]	@ (80071ec <prvCheckForValidListAndQueue+0x68>)
 80071ac:	601a      	str	r2, [r3, #0]
				/* The timer queue is allocated statically in case
				configSUPPORT_DYNAMIC_ALLOCATION is 0. */
				static StaticQueue_t xStaticTimerQueue; /*lint !e956 Ok to declare in this manner to prevent additional conditional compilation guards in other locations. */
				static uint8_t ucStaticTimerQueueStorage[ ( size_t ) configTIMER_QUEUE_LENGTH * sizeof( DaemonTaskMessage_t ) ]; /*lint !e956 Ok to declare in this manner to prevent additional conditional compilation guards in other locations. */

				xTimerQueue = xQueueCreateStatic( ( UBaseType_t ) configTIMER_QUEUE_LENGTH, ( UBaseType_t ) sizeof( DaemonTaskMessage_t ), &( ucStaticTimerQueueStorage[ 0 ] ), &xStaticTimerQueue );
 80071ae:	2300      	movs	r3, #0
 80071b0:	9300      	str	r3, [sp, #0]
 80071b2:	4b11      	ldr	r3, [pc, #68]	@ (80071f8 <prvCheckForValidListAndQueue+0x74>)
 80071b4:	4a11      	ldr	r2, [pc, #68]	@ (80071fc <prvCheckForValidListAndQueue+0x78>)
 80071b6:	2110      	movs	r1, #16
 80071b8:	200a      	movs	r0, #10
 80071ba:	f7fd fe97 	bl	8004eec <xQueueGenericCreateStatic>
 80071be:	4603      	mov	r3, r0
 80071c0:	4a08      	ldr	r2, [pc, #32]	@ (80071e4 <prvCheckForValidListAndQueue+0x60>)
 80071c2:	6013      	str	r3, [r2, #0]
			}
			#endif

			#if ( configQUEUE_REGISTRY_SIZE > 0 )
			{
				if( xTimerQueue != NULL )
 80071c4:	4b07      	ldr	r3, [pc, #28]	@ (80071e4 <prvCheckForValidListAndQueue+0x60>)
 80071c6:	681b      	ldr	r3, [r3, #0]
 80071c8:	2b00      	cmp	r3, #0
 80071ca:	d005      	beq.n	80071d8 <prvCheckForValidListAndQueue+0x54>
				{
					vQueueAddToRegistry( xTimerQueue, "TmrQ" );
 80071cc:	4b05      	ldr	r3, [pc, #20]	@ (80071e4 <prvCheckForValidListAndQueue+0x60>)
 80071ce:	681b      	ldr	r3, [r3, #0]
 80071d0:	490b      	ldr	r1, [pc, #44]	@ (8007200 <prvCheckForValidListAndQueue+0x7c>)
 80071d2:	4618      	mov	r0, r3
 80071d4:	f7fe fc52 	bl	8005a7c <vQueueAddToRegistry>
		else
		{
			mtCOVERAGE_TEST_MARKER();
		}
	}
	taskEXIT_CRITICAL();
 80071d8:	f000 f978 	bl	80074cc <vPortExitCritical>
}
 80071dc:	bf00      	nop
 80071de:	46bd      	mov	sp, r7
 80071e0:	bd80      	pop	{r7, pc}
 80071e2:	bf00      	nop
 80071e4:	200014d4 	.word	0x200014d4
 80071e8:	200014a4 	.word	0x200014a4
 80071ec:	200014b8 	.word	0x200014b8
 80071f0:	200014cc 	.word	0x200014cc
 80071f4:	200014d0 	.word	0x200014d0
 80071f8:	20001580 	.word	0x20001580
 80071fc:	200014e0 	.word	0x200014e0
 8007200:	0800ba20 	.word	0x0800ba20

08007204 <pxPortInitialiseStack>:

/*
 * See header file for description.
 */
StackType_t *pxPortInitialiseStack( StackType_t *pxTopOfStack, TaskFunction_t pxCode, void *pvParameters )
{
 8007204:	b480      	push	{r7}
 8007206:	b085      	sub	sp, #20
 8007208:	af00      	add	r7, sp, #0
 800720a:	60f8      	str	r0, [r7, #12]
 800720c:	60b9      	str	r1, [r7, #8]
 800720e:	607a      	str	r2, [r7, #4]
	/* Simulate the stack frame as it would be created by a context switch
	interrupt. */

	/* Offset added to account for the way the MCU uses the stack on entry/exit
	of interrupts, and to ensure alignment. */
	pxTopOfStack--;
 8007210:	68fb      	ldr	r3, [r7, #12]
 8007212:	3b04      	subs	r3, #4
 8007214:	60fb      	str	r3, [r7, #12]

	*pxTopOfStack = portINITIAL_XPSR;	/* xPSR */
 8007216:	68fb      	ldr	r3, [r7, #12]
 8007218:	f04f 7280 	mov.w	r2, #16777216	@ 0x1000000
 800721c:	601a      	str	r2, [r3, #0]
	pxTopOfStack--;
 800721e:	68fb      	ldr	r3, [r7, #12]
 8007220:	3b04      	subs	r3, #4
 8007222:	60fb      	str	r3, [r7, #12]
	*pxTopOfStack = ( ( StackType_t ) pxCode ) & portSTART_ADDRESS_MASK;	/* PC */
 8007224:	68bb      	ldr	r3, [r7, #8]
 8007226:	f023 0201 	bic.w	r2, r3, #1
 800722a:	68fb      	ldr	r3, [r7, #12]
 800722c:	601a      	str	r2, [r3, #0]
	pxTopOfStack--;
 800722e:	68fb      	ldr	r3, [r7, #12]
 8007230:	3b04      	subs	r3, #4
 8007232:	60fb      	str	r3, [r7, #12]
	*pxTopOfStack = ( StackType_t ) portTASK_RETURN_ADDRESS;	/* LR */
 8007234:	4a0c      	ldr	r2, [pc, #48]	@ (8007268 <pxPortInitialiseStack+0x64>)
 8007236:	68fb      	ldr	r3, [r7, #12]
 8007238:	601a      	str	r2, [r3, #0]

	/* Save code space by skipping register initialisation. */
	pxTopOfStack -= 5;	/* R12, R3, R2 and R1. */
 800723a:	68fb      	ldr	r3, [r7, #12]
 800723c:	3b14      	subs	r3, #20
 800723e:	60fb      	str	r3, [r7, #12]
	*pxTopOfStack = ( StackType_t ) pvParameters;	/* R0 */
 8007240:	687a      	ldr	r2, [r7, #4]
 8007242:	68fb      	ldr	r3, [r7, #12]
 8007244:	601a      	str	r2, [r3, #0]

	/* A save method is being used that requires each task to maintain its
	own exec return value. */
	pxTopOfStack--;
 8007246:	68fb      	ldr	r3, [r7, #12]
 8007248:	3b04      	subs	r3, #4
 800724a:	60fb      	str	r3, [r7, #12]
	*pxTopOfStack = portINITIAL_EXC_RETURN;
 800724c:	68fb      	ldr	r3, [r7, #12]
 800724e:	f06f 0202 	mvn.w	r2, #2
 8007252:	601a      	str	r2, [r3, #0]

	pxTopOfStack -= 8;	/* R11, R10, R9, R8, R7, R6, R5 and R4. */
 8007254:	68fb      	ldr	r3, [r7, #12]
 8007256:	3b20      	subs	r3, #32
 8007258:	60fb      	str	r3, [r7, #12]

	return pxTopOfStack;
 800725a:	68fb      	ldr	r3, [r7, #12]
}
 800725c:	4618      	mov	r0, r3
 800725e:	3714      	adds	r7, #20
 8007260:	46bd      	mov	sp, r7
 8007262:	f85d 7b04 	ldr.w	r7, [sp], #4
 8007266:	4770      	bx	lr
 8007268:	0800726d 	.word	0x0800726d

0800726c <prvTaskExitError>:
/*-----------------------------------------------------------*/

static void prvTaskExitError( void )
{
 800726c:	b480      	push	{r7}
 800726e:	b085      	sub	sp, #20
 8007270:	af00      	add	r7, sp, #0
volatile uint32_t ulDummy = 0;
 8007272:	2300      	movs	r3, #0
 8007274:	607b      	str	r3, [r7, #4]
	its caller as there is nothing to return to.  If a task wants to exit it
	should instead call vTaskDelete( NULL ).

	Artificially force an assert() to be triggered if configASSERT() is
	defined, then stop here so application writers can catch the error. */
	configASSERT( uxCriticalNesting == ~0UL );
 8007276:	4b13      	ldr	r3, [pc, #76]	@ (80072c4 <prvTaskExitError+0x58>)
 8007278:	681b      	ldr	r3, [r3, #0]
 800727a:	f1b3 3fff 	cmp.w	r3, #4294967295	@ 0xffffffff
 800727e:	d00b      	beq.n	8007298 <prvTaskExitError+0x2c>
	__asm volatile
 8007280:	f04f 0350 	mov.w	r3, #80	@ 0x50
 8007284:	f383 8811 	msr	BASEPRI, r3
 8007288:	f3bf 8f6f 	isb	sy
 800728c:	f3bf 8f4f 	dsb	sy
 8007290:	60fb      	str	r3, [r7, #12]
}
 8007292:	bf00      	nop
 8007294:	bf00      	nop
 8007296:	e7fd      	b.n	8007294 <prvTaskExitError+0x28>
	__asm volatile
 8007298:	f04f 0350 	mov.w	r3, #80	@ 0x50
 800729c:	f383 8811 	msr	BASEPRI, r3
 80072a0:	f3bf 8f6f 	isb	sy
 80072a4:	f3bf 8f4f 	dsb	sy
 80072a8:	60bb      	str	r3, [r7, #8]
}
 80072aa:	bf00      	nop
	portDISABLE_INTERRUPTS();
	while( ulDummy == 0 )
 80072ac:	bf00      	nop
 80072ae:	687b      	ldr	r3, [r7, #4]
 80072b0:	2b00      	cmp	r3, #0
 80072b2:	d0fc      	beq.n	80072ae <prvTaskExitError+0x42>
		about code appearing after this function is called - making ulDummy
		volatile makes the compiler think the function could return and
		therefore not output an 'unreachable code' warning for code that appears
		after it. */
	}
}
 80072b4:	bf00      	nop
 80072b6:	bf00      	nop
 80072b8:	3714      	adds	r7, #20
 80072ba:	46bd      	mov	sp, r7
 80072bc:	f85d 7b04 	ldr.w	r7, [sp], #4
 80072c0:	4770      	bx	lr
 80072c2:	bf00      	nop
 80072c4:	2000000c 	.word	0x2000000c
	...

080072d0 <SVC_Handler>:
/*-----------------------------------------------------------*/

void vPortSVCHandler( void )
{
	__asm volatile (
 80072d0:	4b07      	ldr	r3, [pc, #28]	@ (80072f0 <pxCurrentTCBConst2>)
 80072d2:	6819      	ldr	r1, [r3, #0]
 80072d4:	6808      	ldr	r0, [r1, #0]
 80072d6:	e8b0 4ff0 	ldmia.w	r0!, {r4, r5, r6, r7, r8, r9, sl, fp, lr}
 80072da:	f380 8809 	msr	PSP, r0
 80072de:	f3bf 8f6f 	isb	sy
 80072e2:	f04f 0000 	mov.w	r0, #0
 80072e6:	f380 8811 	msr	BASEPRI, r0
 80072ea:	4770      	bx	lr
 80072ec:	f3af 8000 	nop.w

080072f0 <pxCurrentTCBConst2>:
 80072f0:	20000fa4 	.word	0x20000fa4
					"	bx r14							\n"
					"									\n"
					"	.align 4						\n"
					"pxCurrentTCBConst2: .word pxCurrentTCB				\n"
				);
}
 80072f4:	bf00      	nop
 80072f6:	bf00      	nop

080072f8 <prvPortStartFirstTask>:
{
	/* Start the first task.  This also clears the bit that indicates the FPU is
	in use in case the FPU was used before the scheduler was started - which
	would otherwise result in the unnecessary leaving of space in the SVC stack
	for lazy saving of FPU registers. */
	__asm volatile(
 80072f8:	4808      	ldr	r0, [pc, #32]	@ (800731c <prvPortStartFirstTask+0x24>)
 80072fa:	6800      	ldr	r0, [r0, #0]
 80072fc:	6800      	ldr	r0, [r0, #0]
 80072fe:	f380 8808 	msr	MSP, r0
 8007302:	f04f 0000 	mov.w	r0, #0
 8007306:	f380 8814 	msr	CONTROL, r0
 800730a:	b662      	cpsie	i
 800730c:	b661      	cpsie	f
 800730e:	f3bf 8f4f 	dsb	sy
 8007312:	f3bf 8f6f 	isb	sy
 8007316:	df00      	svc	0
 8007318:	bf00      	nop
					" dsb					\n"
					" isb					\n"
					" svc 0					\n" /* System call to start first task. */
					" nop					\n"
				);
}
 800731a:	bf00      	nop
 800731c:	e000ed08 	.word	0xe000ed08

08007320 <xPortStartScheduler>:

/*
 * See header file for description.
 */
BaseType_t xPortStartScheduler( void )
{
 8007320:	b580      	push	{r7, lr}
 8007322:	b086      	sub	sp, #24
 8007324:	af00      	add	r7, sp, #0
	configASSERT( configMAX_SYSCALL_INTERRUPT_PRIORITY );

	/* This port can be used on all revisions of the Cortex-M7 core other than
	the r0p1 parts.  r0p1 parts should use the port from the
	/source/portable/GCC/ARM_CM7/r0p1 directory. */
	configASSERT( portCPUID != portCORTEX_M7_r0p1_ID );
 8007326:	4b47      	ldr	r3, [pc, #284]	@ (8007444 <xPortStartScheduler+0x124>)
 8007328:	681b      	ldr	r3, [r3, #0]
 800732a:	4a47      	ldr	r2, [pc, #284]	@ (8007448 <xPortStartScheduler+0x128>)
 800732c:	4293      	cmp	r3, r2
 800732e:	d10b      	bne.n	8007348 <xPortStartScheduler+0x28>
	__asm volatile
 8007330:	f04f 0350 	mov.w	r3, #80	@ 0x50
 8007334:	f383 8811 	msr	BASEPRI, r3
 8007338:	f3bf 8f6f 	isb	sy
 800733c:	f3bf 8f4f 	dsb	sy
 8007340:	60fb      	str	r3, [r7, #12]
}
 8007342:	bf00      	nop
 8007344:	bf00      	nop
 8007346:	e7fd      	b.n	8007344 <xPortStartScheduler+0x24>
	configASSERT( portCPUID != portCORTEX_M7_r0p0_ID );
 8007348:	4b3e      	ldr	r3, [pc, #248]	@ (8007444 <xPortStartScheduler+0x124>)
 800734a:	681b      	ldr	r3, [r3, #0]
 800734c:	4a3f      	ldr	r2, [pc, #252]	@ (800744c <xPortStartScheduler+0x12c>)
 800734e:	4293      	cmp	r3, r2
 8007350:	d10b      	bne.n	800736a <xPortStartScheduler+0x4a>
	__asm volatile
 8007352:	f04f 0350 	mov.w	r3, #80	@ 0x50
 8007356:	f383 8811 	msr	BASEPRI, r3
 800735a:	f3bf 8f6f 	isb	sy
 800735e:	f3bf 8f4f 	dsb	sy
 8007362:	613b      	str	r3, [r7, #16]
}
 8007364:	bf00      	nop
 8007366:	bf00      	nop
 8007368:	e7fd      	b.n	8007366 <xPortStartScheduler+0x46>

	#if( configASSERT_DEFINED == 1 )
	{
		volatile uint32_t ulOriginalPriority;
		volatile uint8_t * const pucFirstUserPriorityRegister = ( volatile uint8_t * const ) ( portNVIC_IP_REGISTERS_OFFSET_16 + portFIRST_USER_INTERRUPT_NUMBER );
 800736a:	4b39      	ldr	r3, [pc, #228]	@ (8007450 <xPortStartScheduler+0x130>)
 800736c:	617b      	str	r3, [r7, #20]
		functions can be called.  ISR safe functions are those that end in
		"FromISR".  FreeRTOS maintains separate thread and ISR API functions to
		ensure interrupt entry is as fast and simple as possible.

		Save the interrupt priority value that is about to be clobbered. */
		ulOriginalPriority = *pucFirstUserPriorityRegister;
 800736e:	697b      	ldr	r3, [r7, #20]
 8007370:	781b      	ldrb	r3, [r3, #0]
 8007372:	b2db      	uxtb	r3, r3
 8007374:	607b      	str	r3, [r7, #4]

		/* Determine the number of priority bits available.  First write to all
		possible bits. */
		*pucFirstUserPriorityRegister = portMAX_8_BIT_VALUE;
 8007376:	697b      	ldr	r3, [r7, #20]
 8007378:	22ff      	movs	r2, #255	@ 0xff
 800737a:	701a      	strb	r2, [r3, #0]

		/* Read the value back to see how many bits stuck. */
		ucMaxPriorityValue = *pucFirstUserPriorityRegister;
 800737c:	697b      	ldr	r3, [r7, #20]
 800737e:	781b      	ldrb	r3, [r3, #0]
 8007380:	b2db      	uxtb	r3, r3
 8007382:	70fb      	strb	r3, [r7, #3]

		/* Use the same mask on the maximum system call priority. */
		ucMaxSysCallPriority = configMAX_SYSCALL_INTERRUPT_PRIORITY & ucMaxPriorityValue;
 8007384:	78fb      	ldrb	r3, [r7, #3]
 8007386:	b2db      	uxtb	r3, r3
 8007388:	f003 0350 	and.w	r3, r3, #80	@ 0x50
 800738c:	b2da      	uxtb	r2, r3
 800738e:	4b31      	ldr	r3, [pc, #196]	@ (8007454 <xPortStartScheduler+0x134>)
 8007390:	701a      	strb	r2, [r3, #0]

		/* Calculate the maximum acceptable priority group value for the number
		of bits read back. */
		ulMaxPRIGROUPValue = portMAX_PRIGROUP_BITS;
 8007392:	4b31      	ldr	r3, [pc, #196]	@ (8007458 <xPortStartScheduler+0x138>)
 8007394:	2207      	movs	r2, #7
 8007396:	601a      	str	r2, [r3, #0]
		while( ( ucMaxPriorityValue & portTOP_BIT_OF_BYTE ) == portTOP_BIT_OF_BYTE )
 8007398:	e009      	b.n	80073ae <xPortStartScheduler+0x8e>
		{
			ulMaxPRIGROUPValue--;
 800739a:	4b2f      	ldr	r3, [pc, #188]	@ (8007458 <xPortStartScheduler+0x138>)
 800739c:	681b      	ldr	r3, [r3, #0]
 800739e:	3b01      	subs	r3, #1
 80073a0:	4a2d      	ldr	r2, [pc, #180]	@ (8007458 <xPortStartScheduler+0x138>)
 80073a2:	6013      	str	r3, [r2, #0]
			ucMaxPriorityValue <<= ( uint8_t ) 0x01;
 80073a4:	78fb      	ldrb	r3, [r7, #3]
 80073a6:	b2db      	uxtb	r3, r3
 80073a8:	005b      	lsls	r3, r3, #1
 80073aa:	b2db      	uxtb	r3, r3
 80073ac:	70fb      	strb	r3, [r7, #3]
		while( ( ucMaxPriorityValue & portTOP_BIT_OF_BYTE ) == portTOP_BIT_OF_BYTE )
 80073ae:	78fb      	ldrb	r3, [r7, #3]
 80073b0:	b2db      	uxtb	r3, r3
 80073b2:	f003 0380 	and.w	r3, r3, #128	@ 0x80
 80073b6:	2b80      	cmp	r3, #128	@ 0x80
 80073b8:	d0ef      	beq.n	800739a <xPortStartScheduler+0x7a>
		#ifdef configPRIO_BITS
		{
			/* Check the FreeRTOS configuration that defines the number of
			priority bits matches the number of priority bits actually queried
			from the hardware. */
			configASSERT( ( portMAX_PRIGROUP_BITS - ulMaxPRIGROUPValue ) == configPRIO_BITS );
 80073ba:	4b27      	ldr	r3, [pc, #156]	@ (8007458 <xPortStartScheduler+0x138>)
 80073bc:	681b      	ldr	r3, [r3, #0]
 80073be:	f1c3 0307 	rsb	r3, r3, #7
 80073c2:	2b04      	cmp	r3, #4
 80073c4:	d00b      	beq.n	80073de <xPortStartScheduler+0xbe>
	__asm volatile
 80073c6:	f04f 0350 	mov.w	r3, #80	@ 0x50
 80073ca:	f383 8811 	msr	BASEPRI, r3
 80073ce:	f3bf 8f6f 	isb	sy
 80073d2:	f3bf 8f4f 	dsb	sy
 80073d6:	60bb      	str	r3, [r7, #8]
}
 80073d8:	bf00      	nop
 80073da:	bf00      	nop
 80073dc:	e7fd      	b.n	80073da <xPortStartScheduler+0xba>
		}
		#endif

		/* Shift the priority group value back to its position within the AIRCR
		register. */
		ulMaxPRIGROUPValue <<= portPRIGROUP_SHIFT;
 80073de:	4b1e      	ldr	r3, [pc, #120]	@ (8007458 <xPortStartScheduler+0x138>)
 80073e0:	681b      	ldr	r3, [r3, #0]
 80073e2:	021b      	lsls	r3, r3, #8
 80073e4:	4a1c      	ldr	r2, [pc, #112]	@ (8007458 <xPortStartScheduler+0x138>)
 80073e6:	6013      	str	r3, [r2, #0]
		ulMaxPRIGROUPValue &= portPRIORITY_GROUP_MASK;
 80073e8:	4b1b      	ldr	r3, [pc, #108]	@ (8007458 <xPortStartScheduler+0x138>)
 80073ea:	681b      	ldr	r3, [r3, #0]
 80073ec:	f403 63e0 	and.w	r3, r3, #1792	@ 0x700
 80073f0:	4a19      	ldr	r2, [pc, #100]	@ (8007458 <xPortStartScheduler+0x138>)
 80073f2:	6013      	str	r3, [r2, #0]

		/* Restore the clobbered interrupt priority register to its original
		value. */
		*pucFirstUserPriorityRegister = ulOriginalPriority;
 80073f4:	687b      	ldr	r3, [r7, #4]
 80073f6:	b2da      	uxtb	r2, r3
 80073f8:	697b      	ldr	r3, [r7, #20]
 80073fa:	701a      	strb	r2, [r3, #0]
	}
	#endif /* conifgASSERT_DEFINED */

	/* Make PendSV and SysTick the lowest priority interrupts. */
	portNVIC_SYSPRI2_REG |= portNVIC_PENDSV_PRI;
 80073fc:	4b17      	ldr	r3, [pc, #92]	@ (800745c <xPortStartScheduler+0x13c>)
 80073fe:	681b      	ldr	r3, [r3, #0]
 8007400:	4a16      	ldr	r2, [pc, #88]	@ (800745c <xPortStartScheduler+0x13c>)
 8007402:	f443 0370 	orr.w	r3, r3, #15728640	@ 0xf00000
 8007406:	6013      	str	r3, [r2, #0]
	portNVIC_SYSPRI2_REG |= portNVIC_SYSTICK_PRI;
 8007408:	4b14      	ldr	r3, [pc, #80]	@ (800745c <xPortStartScheduler+0x13c>)
 800740a:	681b      	ldr	r3, [r3, #0]
 800740c:	4a13      	ldr	r2, [pc, #76]	@ (800745c <xPortStartScheduler+0x13c>)
 800740e:	f043 4370 	orr.w	r3, r3, #4026531840	@ 0xf0000000
 8007412:	6013      	str	r3, [r2, #0]

	/* Start the timer that generates the tick ISR.  Interrupts are disabled
	here already. */
	vPortSetupTimerInterrupt();
 8007414:	f000 f8da 	bl	80075cc <vPortSetupTimerInterrupt>

	/* Initialise the critical nesting count ready for the first task. */
	uxCriticalNesting = 0;
 8007418:	4b11      	ldr	r3, [pc, #68]	@ (8007460 <xPortStartScheduler+0x140>)
 800741a:	2200      	movs	r2, #0
 800741c:	601a      	str	r2, [r3, #0]

	/* Ensure the VFP is enabled - it should be anyway. */
	vPortEnableVFP();
 800741e:	f000 f8f9 	bl	8007614 <vPortEnableVFP>

	/* Lazy save always. */
	*( portFPCCR ) |= portASPEN_AND_LSPEN_BITS;
 8007422:	4b10      	ldr	r3, [pc, #64]	@ (8007464 <xPortStartScheduler+0x144>)
 8007424:	681b      	ldr	r3, [r3, #0]
 8007426:	4a0f      	ldr	r2, [pc, #60]	@ (8007464 <xPortStartScheduler+0x144>)
 8007428:	f043 4340 	orr.w	r3, r3, #3221225472	@ 0xc0000000
 800742c:	6013      	str	r3, [r2, #0]

	/* Start the first task. */
	prvPortStartFirstTask();
 800742e:	f7ff ff63 	bl	80072f8 <prvPortStartFirstTask>
	exit error function to prevent compiler warnings about a static function
	not being called in the case that the application writer overrides this
	functionality by defining configTASK_RETURN_ADDRESS.  Call
	vTaskSwitchContext() so link time optimisation does not remove the
	symbol. */
	vTaskSwitchContext();
 8007432:	f7fe ff3b 	bl	80062ac <vTaskSwitchContext>
	prvTaskExitError();
 8007436:	f7ff ff19 	bl	800726c <prvTaskExitError>

	/* Should not get here! */
	return 0;
 800743a:	2300      	movs	r3, #0
}
 800743c:	4618      	mov	r0, r3
 800743e:	3718      	adds	r7, #24
 8007440:	46bd      	mov	sp, r7
 8007442:	bd80      	pop	{r7, pc}
 8007444:	e000ed00 	.word	0xe000ed00
 8007448:	410fc271 	.word	0x410fc271
 800744c:	410fc270 	.word	0x410fc270
 8007450:	e000e400 	.word	0xe000e400
 8007454:	200015d0 	.word	0x200015d0
 8007458:	200015d4 	.word	0x200015d4
 800745c:	e000ed20 	.word	0xe000ed20
 8007460:	2000000c 	.word	0x2000000c
 8007464:	e000ef34 	.word	0xe000ef34

08007468 <vPortEnterCritical>:
	configASSERT( uxCriticalNesting == 1000UL );
}
/*-----------------------------------------------------------*/

void vPortEnterCritical( void )
{
 8007468:	b480      	push	{r7}
 800746a:	b083      	sub	sp, #12
 800746c:	af00      	add	r7, sp, #0
	__asm volatile
 800746e:	f04f 0350 	mov.w	r3, #80	@ 0x50
 8007472:	f383 8811 	msr	BASEPRI, r3
 8007476:	f3bf 8f6f 	isb	sy
 800747a:	f3bf 8f4f 	dsb	sy
 800747e:	607b      	str	r3, [r7, #4]
}
 8007480:	bf00      	nop
	portDISABLE_INTERRUPTS();
	uxCriticalNesting++;
 8007482:	4b10      	ldr	r3, [pc, #64]	@ (80074c4 <vPortEnterCritical+0x5c>)
 8007484:	681b      	ldr	r3, [r3, #0]
 8007486:	3301      	adds	r3, #1
 8007488:	4a0e      	ldr	r2, [pc, #56]	@ (80074c4 <vPortEnterCritical+0x5c>)
 800748a:	6013      	str	r3, [r2, #0]
	/* This is not the interrupt safe version of the enter critical function so
	assert() if it is being called from an interrupt context.  Only API
	functions that end in "FromISR" can be used in an interrupt.  Only assert if
	the critical nesting count is 1 to protect against recursive calls if the
	assert function also uses a critical section. */
	if( uxCriticalNesting == 1 )
 800748c:	4b0d      	ldr	r3, [pc, #52]	@ (80074c4 <vPortEnterCritical+0x5c>)
 800748e:	681b      	ldr	r3, [r3, #0]
 8007490:	2b01      	cmp	r3, #1
 8007492:	d110      	bne.n	80074b6 <vPortEnterCritical+0x4e>
	{
		configASSERT( ( portNVIC_INT_CTRL_REG & portVECTACTIVE_MASK ) == 0 );
 8007494:	4b0c      	ldr	r3, [pc, #48]	@ (80074c8 <vPortEnterCritical+0x60>)
 8007496:	681b      	ldr	r3, [r3, #0]
 8007498:	b2db      	uxtb	r3, r3
 800749a:	2b00      	cmp	r3, #0
 800749c:	d00b      	beq.n	80074b6 <vPortEnterCritical+0x4e>
	__asm volatile
 800749e:	f04f 0350 	mov.w	r3, #80	@ 0x50
 80074a2:	f383 8811 	msr	BASEPRI, r3
 80074a6:	f3bf 8f6f 	isb	sy
 80074aa:	f3bf 8f4f 	dsb	sy
 80074ae:	603b      	str	r3, [r7, #0]
}
 80074b0:	bf00      	nop
 80074b2:	bf00      	nop
 80074b4:	e7fd      	b.n	80074b2 <vPortEnterCritical+0x4a>
	}
}
 80074b6:	bf00      	nop
 80074b8:	370c      	adds	r7, #12
 80074ba:	46bd      	mov	sp, r7
 80074bc:	f85d 7b04 	ldr.w	r7, [sp], #4
 80074c0:	4770      	bx	lr
 80074c2:	bf00      	nop
 80074c4:	2000000c 	.word	0x2000000c
 80074c8:	e000ed04 	.word	0xe000ed04

080074cc <vPortExitCritical>:
/*-----------------------------------------------------------*/

void vPortExitCritical( void )
{
 80074cc:	b480      	push	{r7}
 80074ce:	b083      	sub	sp, #12
 80074d0:	af00      	add	r7, sp, #0
	configASSERT( uxCriticalNesting );
 80074d2:	4b12      	ldr	r3, [pc, #72]	@ (800751c <vPortExitCritical+0x50>)
 80074d4:	681b      	ldr	r3, [r3, #0]
 80074d6:	2b00      	cmp	r3, #0
 80074d8:	d10b      	bne.n	80074f2 <vPortExitCritical+0x26>
	__asm volatile
 80074da:	f04f 0350 	mov.w	r3, #80	@ 0x50
 80074de:	f383 8811 	msr	BASEPRI, r3
 80074e2:	f3bf 8f6f 	isb	sy
 80074e6:	f3bf 8f4f 	dsb	sy
 80074ea:	607b      	str	r3, [r7, #4]
}
 80074ec:	bf00      	nop
 80074ee:	bf00      	nop
 80074f0:	e7fd      	b.n	80074ee <vPortExitCritical+0x22>
	uxCriticalNesting--;
 80074f2:	4b0a      	ldr	r3, [pc, #40]	@ (800751c <vPortExitCritical+0x50>)
 80074f4:	681b      	ldr	r3, [r3, #0]
 80074f6:	3b01      	subs	r3, #1
 80074f8:	4a08      	ldr	r2, [pc, #32]	@ (800751c <vPortExitCritical+0x50>)
 80074fa:	6013      	str	r3, [r2, #0]
	if( uxCriticalNesting == 0 )
 80074fc:	4b07      	ldr	r3, [pc, #28]	@ (800751c <vPortExitCritical+0x50>)
 80074fe:	681b      	ldr	r3, [r3, #0]
 8007500:	2b00      	cmp	r3, #0
 8007502:	d105      	bne.n	8007510 <vPortExitCritical+0x44>
 8007504:	2300      	movs	r3, #0
 8007506:	603b      	str	r3, [r7, #0]
	__asm volatile
 8007508:	683b      	ldr	r3, [r7, #0]
 800750a:	f383 8811 	msr	BASEPRI, r3
}
 800750e:	bf00      	nop
	{
		portENABLE_INTERRUPTS();
	}
}
 8007510:	bf00      	nop
 8007512:	370c      	adds	r7, #12
 8007514:	46bd      	mov	sp, r7
 8007516:	f85d 7b04 	ldr.w	r7, [sp], #4
 800751a:	4770      	bx	lr
 800751c:	2000000c 	.word	0x2000000c

08007520 <PendSV_Handler>:

void xPortPendSVHandler( void )
{
	/* This is a naked function. */

	__asm volatile
 8007520:	f3ef 8009 	mrs	r0, PSP
 8007524:	f3bf 8f6f 	isb	sy
 8007528:	4b15      	ldr	r3, [pc, #84]	@ (8007580 <pxCurrentTCBConst>)
 800752a:	681a      	ldr	r2, [r3, #0]
 800752c:	f01e 0f10 	tst.w	lr, #16
 8007530:	bf08      	it	eq
 8007532:	ed20 8a10 	vstmdbeq	r0!, {s16-s31}
 8007536:	e920 4ff0 	stmdb	r0!, {r4, r5, r6, r7, r8, r9, sl, fp, lr}
 800753a:	6010      	str	r0, [r2, #0]
 800753c:	e92d 0009 	stmdb	sp!, {r0, r3}
 8007540:	f04f 0050 	mov.w	r0, #80	@ 0x50
 8007544:	f380 8811 	msr	BASEPRI, r0
 8007548:	f3bf 8f4f 	dsb	sy
 800754c:	f3bf 8f6f 	isb	sy
 8007550:	f7fe feac 	bl	80062ac <vTaskSwitchContext>
 8007554:	f04f 0000 	mov.w	r0, #0
 8007558:	f380 8811 	msr	BASEPRI, r0
 800755c:	bc09      	pop	{r0, r3}
 800755e:	6819      	ldr	r1, [r3, #0]
 8007560:	6808      	ldr	r0, [r1, #0]
 8007562:	e8b0 4ff0 	ldmia.w	r0!, {r4, r5, r6, r7, r8, r9, sl, fp, lr}
 8007566:	f01e 0f10 	tst.w	lr, #16
 800756a:	bf08      	it	eq
 800756c:	ecb0 8a10 	vldmiaeq	r0!, {s16-s31}
 8007570:	f380 8809 	msr	PSP, r0
 8007574:	f3bf 8f6f 	isb	sy
 8007578:	4770      	bx	lr
 800757a:	bf00      	nop
 800757c:	f3af 8000 	nop.w

08007580 <pxCurrentTCBConst>:
 8007580:	20000fa4 	.word	0x20000fa4
	"										\n"
	"	.align 4							\n"
	"pxCurrentTCBConst: .word pxCurrentTCB	\n"
	::"i"(configMAX_SYSCALL_INTERRUPT_PRIORITY)
	);
}
 8007584:	bf00      	nop
 8007586:	bf00      	nop

08007588 <xPortSysTickHandler>:
/*-----------------------------------------------------------*/

void xPortSysTickHandler( void )
{
 8007588:	b580      	push	{r7, lr}
 800758a:	b082      	sub	sp, #8
 800758c:	af00      	add	r7, sp, #0
	__asm volatile
 800758e:	f04f 0350 	mov.w	r3, #80	@ 0x50
 8007592:	f383 8811 	msr	BASEPRI, r3
 8007596:	f3bf 8f6f 	isb	sy
 800759a:	f3bf 8f4f 	dsb	sy
 800759e:	607b      	str	r3, [r7, #4]
}
 80075a0:	bf00      	nop
	save and then restore the interrupt mask value as its value is already
	known. */
	portDISABLE_INTERRUPTS();
	{
		/* Increment the RTOS tick. */
		if( xTaskIncrementTick() != pdFALSE )
 80075a2:	f7fe fdc9 	bl	8006138 <xTaskIncrementTick>
 80075a6:	4603      	mov	r3, r0
 80075a8:	2b00      	cmp	r3, #0
 80075aa:	d003      	beq.n	80075b4 <xPortSysTickHandler+0x2c>
		{
			/* A context switch is required.  Context switching is performed in
			the PendSV interrupt.  Pend the PendSV interrupt. */
			portNVIC_INT_CTRL_REG = portNVIC_PENDSVSET_BIT;
 80075ac:	4b06      	ldr	r3, [pc, #24]	@ (80075c8 <xPortSysTickHandler+0x40>)
 80075ae:	f04f 5280 	mov.w	r2, #268435456	@ 0x10000000
 80075b2:	601a      	str	r2, [r3, #0]
 80075b4:	2300      	movs	r3, #0
 80075b6:	603b      	str	r3, [r7, #0]
	__asm volatile
 80075b8:	683b      	ldr	r3, [r7, #0]
 80075ba:	f383 8811 	msr	BASEPRI, r3
}
 80075be:	bf00      	nop
		}
	}
	portENABLE_INTERRUPTS();
}
 80075c0:	bf00      	nop
 80075c2:	3708      	adds	r7, #8
 80075c4:	46bd      	mov	sp, r7
 80075c6:	bd80      	pop	{r7, pc}
 80075c8:	e000ed04 	.word	0xe000ed04

080075cc <vPortSetupTimerInterrupt>:
/*
 * Setup the systick timer to generate the tick interrupts at the required
 * frequency.
 */
__attribute__(( weak )) void vPortSetupTimerInterrupt( void )
{
 80075cc:	b480      	push	{r7}
 80075ce:	af00      	add	r7, sp, #0
		ulStoppedTimerCompensation = portMISSED_COUNTS_FACTOR / ( configCPU_CLOCK_HZ / configSYSTICK_CLOCK_HZ );
	}
	#endif /* configUSE_TICKLESS_IDLE */

	/* Stop and clear the SysTick. */
	portNVIC_SYSTICK_CTRL_REG = 0UL;
 80075d0:	4b0b      	ldr	r3, [pc, #44]	@ (8007600 <vPortSetupTimerInterrupt+0x34>)
 80075d2:	2200      	movs	r2, #0
 80075d4:	601a      	str	r2, [r3, #0]
	portNVIC_SYSTICK_CURRENT_VALUE_REG = 0UL;
 80075d6:	4b0b      	ldr	r3, [pc, #44]	@ (8007604 <vPortSetupTimerInterrupt+0x38>)
 80075d8:	2200      	movs	r2, #0
 80075da:	601a      	str	r2, [r3, #0]

	/* Configure SysTick to interrupt at the requested rate. */
	portNVIC_SYSTICK_LOAD_REG = ( configSYSTICK_CLOCK_HZ / configTICK_RATE_HZ ) - 1UL;
 80075dc:	4b0a      	ldr	r3, [pc, #40]	@ (8007608 <vPortSetupTimerInterrupt+0x3c>)
 80075de:	681b      	ldr	r3, [r3, #0]
 80075e0:	4a0a      	ldr	r2, [pc, #40]	@ (800760c <vPortSetupTimerInterrupt+0x40>)
 80075e2:	fba2 2303 	umull	r2, r3, r2, r3
 80075e6:	099b      	lsrs	r3, r3, #6
 80075e8:	4a09      	ldr	r2, [pc, #36]	@ (8007610 <vPortSetupTimerInterrupt+0x44>)
 80075ea:	3b01      	subs	r3, #1
 80075ec:	6013      	str	r3, [r2, #0]
	portNVIC_SYSTICK_CTRL_REG = ( portNVIC_SYSTICK_CLK_BIT | portNVIC_SYSTICK_INT_BIT | portNVIC_SYSTICK_ENABLE_BIT );
 80075ee:	4b04      	ldr	r3, [pc, #16]	@ (8007600 <vPortSetupTimerInterrupt+0x34>)
 80075f0:	2207      	movs	r2, #7
 80075f2:	601a      	str	r2, [r3, #0]
}
 80075f4:	bf00      	nop
 80075f6:	46bd      	mov	sp, r7
 80075f8:	f85d 7b04 	ldr.w	r7, [sp], #4
 80075fc:	4770      	bx	lr
 80075fe:	bf00      	nop
 8007600:	e000e010 	.word	0xe000e010
 8007604:	e000e018 	.word	0xe000e018
 8007608:	20000000 	.word	0x20000000
 800760c:	10624dd3 	.word	0x10624dd3
 8007610:	e000e014 	.word	0xe000e014

08007614 <vPortEnableVFP>:
/*-----------------------------------------------------------*/

/* This is a naked function. */
static void vPortEnableVFP( void )
{
	__asm volatile
 8007614:	f8df 000c 	ldr.w	r0, [pc, #12]	@ 8007624 <vPortEnableVFP+0x10>
 8007618:	6801      	ldr	r1, [r0, #0]
 800761a:	f441 0170 	orr.w	r1, r1, #15728640	@ 0xf00000
 800761e:	6001      	str	r1, [r0, #0]
 8007620:	4770      	bx	lr
		"								\n"
		"	orr r1, r1, #( 0xf << 20 )	\n" /* Enable CP10 and CP11 coprocessors, then save back. */
		"	str r1, [r0]				\n"
		"	bx r14						"
	);
}
 8007622:	bf00      	nop
 8007624:	e000ed88 	.word	0xe000ed88

08007628 <vPortValidateInterruptPriority>:
/*-----------------------------------------------------------*/

#if( configASSERT_DEFINED == 1 )

	void vPortValidateInterruptPriority( void )
	{
 8007628:	b480      	push	{r7}
 800762a:	b085      	sub	sp, #20
 800762c:	af00      	add	r7, sp, #0
	uint32_t ulCurrentInterrupt;
	uint8_t ucCurrentPriority;

		/* Obtain the number of the currently executing interrupt. */
		__asm volatile( "mrs %0, ipsr" : "=r"( ulCurrentInterrupt ) :: "memory" );
 800762e:	f3ef 8305 	mrs	r3, IPSR
 8007632:	60fb      	str	r3, [r7, #12]

		/* Is the interrupt number a user defined interrupt? */
		if( ulCurrentInterrupt >= portFIRST_USER_INTERRUPT_NUMBER )
 8007634:	68fb      	ldr	r3, [r7, #12]
 8007636:	2b0f      	cmp	r3, #15
 8007638:	d915      	bls.n	8007666 <vPortValidateInterruptPriority+0x3e>
		{
			/* Look up the interrupt's priority. */
			ucCurrentPriority = pcInterruptPriorityRegisters[ ulCurrentInterrupt ];
 800763a:	4a18      	ldr	r2, [pc, #96]	@ (800769c <vPortValidateInterruptPriority+0x74>)
 800763c:	68fb      	ldr	r3, [r7, #12]
 800763e:	4413      	add	r3, r2
 8007640:	781b      	ldrb	r3, [r3, #0]
 8007642:	72fb      	strb	r3, [r7, #11]
			interrupt entry is as fast and simple as possible.

			The following links provide detailed information:
			http://www.freertos.org/RTOS-Cortex-M3-M4.html
			http://www.freertos.org/FAQHelp.html */
			configASSERT( ucCurrentPriority >= ucMaxSysCallPriority );
 8007644:	4b16      	ldr	r3, [pc, #88]	@ (80076a0 <vPortValidateInterruptPriority+0x78>)
 8007646:	781b      	ldrb	r3, [r3, #0]
 8007648:	7afa      	ldrb	r2, [r7, #11]
 800764a:	429a      	cmp	r2, r3
 800764c:	d20b      	bcs.n	8007666 <vPortValidateInterruptPriority+0x3e>
	__asm volatile
 800764e:	f04f 0350 	mov.w	r3, #80	@ 0x50
 8007652:	f383 8811 	msr	BASEPRI, r3
 8007656:	f3bf 8f6f 	isb	sy
 800765a:	f3bf 8f4f 	dsb	sy
 800765e:	607b      	str	r3, [r7, #4]
}
 8007660:	bf00      	nop
 8007662:	bf00      	nop
 8007664:	e7fd      	b.n	8007662 <vPortValidateInterruptPriority+0x3a>
		configuration then the correct setting can be achieved on all Cortex-M
		devices by calling NVIC_SetPriorityGrouping( 0 ); before starting the
		scheduler.  Note however that some vendor specific peripheral libraries
		assume a non-zero priority group setting, in which cases using a value
		of zero will result in unpredictable behaviour. */
		configASSERT( ( portAIRCR_REG & portPRIORITY_GROUP_MASK ) <= ulMaxPRIGROUPValue );
 8007666:	4b0f      	ldr	r3, [pc, #60]	@ (80076a4 <vPortValidateInterruptPriority+0x7c>)
 8007668:	681b      	ldr	r3, [r3, #0]
 800766a:	f403 62e0 	and.w	r2, r3, #1792	@ 0x700
 800766e:	4b0e      	ldr	r3, [pc, #56]	@ (80076a8 <vPortValidateInterruptPriority+0x80>)
 8007670:	681b      	ldr	r3, [r3, #0]
 8007672:	429a      	cmp	r2, r3
 8007674:	d90b      	bls.n	800768e <vPortValidateInterruptPriority+0x66>
	__asm volatile
 8007676:	f04f 0350 	mov.w	r3, #80	@ 0x50
 800767a:	f383 8811 	msr	BASEPRI, r3
 800767e:	f3bf 8f6f 	isb	sy
 8007682:	f3bf 8f4f 	dsb	sy
 8007686:	603b      	str	r3, [r7, #0]
}
 8007688:	bf00      	nop
 800768a:	bf00      	nop
 800768c:	e7fd      	b.n	800768a <vPortValidateInterruptPriority+0x62>
	}
 800768e:	bf00      	nop
 8007690:	3714      	adds	r7, #20
 8007692:	46bd      	mov	sp, r7
 8007694:	f85d 7b04 	ldr.w	r7, [sp], #4
 8007698:	4770      	bx	lr
 800769a:	bf00      	nop
 800769c:	e000e3f0 	.word	0xe000e3f0
 80076a0:	200015d0 	.word	0x200015d0
 80076a4:	e000ed0c 	.word	0xe000ed0c
 80076a8:	200015d4 	.word	0x200015d4

080076ac <pvPortMalloc>:
static size_t xBlockAllocatedBit = 0;

/*-----------------------------------------------------------*/

void *pvPortMalloc( size_t xWantedSize )
{
 80076ac:	b580      	push	{r7, lr}
 80076ae:	b08a      	sub	sp, #40	@ 0x28
 80076b0:	af00      	add	r7, sp, #0
 80076b2:	6078      	str	r0, [r7, #4]
BlockLink_t *pxBlock, *pxPreviousBlock, *pxNewBlockLink;
void *pvReturn = NULL;
 80076b4:	2300      	movs	r3, #0
 80076b6:	61fb      	str	r3, [r7, #28]

	vTaskSuspendAll();
 80076b8:	f7fe fc82 	bl	8005fc0 <vTaskSuspendAll>
	{
		/* If this is the first call to malloc then the heap will require
		initialisation to setup the list of free blocks. */
		if( pxEnd == NULL )
 80076bc:	4b5c      	ldr	r3, [pc, #368]	@ (8007830 <pvPortMalloc+0x184>)
 80076be:	681b      	ldr	r3, [r3, #0]
 80076c0:	2b00      	cmp	r3, #0
 80076c2:	d101      	bne.n	80076c8 <pvPortMalloc+0x1c>
		{
			prvHeapInit();
 80076c4:	f000 f924 	bl	8007910 <prvHeapInit>

		/* Check the requested block size is not so large that the top bit is
		set.  The top bit of the block size member of the BlockLink_t structure
		is used to determine who owns the block - the application or the
		kernel, so it must be free. */
		if( ( xWantedSize & xBlockAllocatedBit ) == 0 )
 80076c8:	4b5a      	ldr	r3, [pc, #360]	@ (8007834 <pvPortMalloc+0x188>)
 80076ca:	681a      	ldr	r2, [r3, #0]
 80076cc:	687b      	ldr	r3, [r7, #4]
 80076ce:	4013      	ands	r3, r2
 80076d0:	2b00      	cmp	r3, #0
 80076d2:	f040 8095 	bne.w	8007800 <pvPortMalloc+0x154>
		{
			/* The wanted size is increased so it can contain a BlockLink_t
			structure in addition to the requested amount of bytes. */
			if( xWantedSize > 0 )
 80076d6:	687b      	ldr	r3, [r7, #4]
 80076d8:	2b00      	cmp	r3, #0
 80076da:	d01e      	beq.n	800771a <pvPortMalloc+0x6e>
			{
				xWantedSize += xHeapStructSize;
 80076dc:	2208      	movs	r2, #8
 80076de:	687b      	ldr	r3, [r7, #4]
 80076e0:	4413      	add	r3, r2
 80076e2:	607b      	str	r3, [r7, #4]

				/* Ensure that blocks are always aligned to the required number
				of bytes. */
				if( ( xWantedSize & portBYTE_ALIGNMENT_MASK ) != 0x00 )
 80076e4:	687b      	ldr	r3, [r7, #4]
 80076e6:	f003 0307 	and.w	r3, r3, #7
 80076ea:	2b00      	cmp	r3, #0
 80076ec:	d015      	beq.n	800771a <pvPortMalloc+0x6e>
				{
					/* Byte alignment required. */
					xWantedSize += ( portBYTE_ALIGNMENT - ( xWantedSize & portBYTE_ALIGNMENT_MASK ) );
 80076ee:	687b      	ldr	r3, [r7, #4]
 80076f0:	f023 0307 	bic.w	r3, r3, #7
 80076f4:	3308      	adds	r3, #8
 80076f6:	607b      	str	r3, [r7, #4]
					configASSERT( ( xWantedSize & portBYTE_ALIGNMENT_MASK ) == 0 );
 80076f8:	687b      	ldr	r3, [r7, #4]
 80076fa:	f003 0307 	and.w	r3, r3, #7
 80076fe:	2b00      	cmp	r3, #0
 8007700:	d00b      	beq.n	800771a <pvPortMalloc+0x6e>
	__asm volatile
 8007702:	f04f 0350 	mov.w	r3, #80	@ 0x50
 8007706:	f383 8811 	msr	BASEPRI, r3
 800770a:	f3bf 8f6f 	isb	sy
 800770e:	f3bf 8f4f 	dsb	sy
 8007712:	617b      	str	r3, [r7, #20]
}
 8007714:	bf00      	nop
 8007716:	bf00      	nop
 8007718:	e7fd      	b.n	8007716 <pvPortMalloc+0x6a>
			else
			{
				mtCOVERAGE_TEST_MARKER();
			}

			if( ( xWantedSize > 0 ) && ( xWantedSize <= xFreeBytesRemaining ) )
 800771a:	687b      	ldr	r3, [r7, #4]
 800771c:	2b00      	cmp	r3, #0
 800771e:	d06f      	beq.n	8007800 <pvPortMalloc+0x154>
 8007720:	4b45      	ldr	r3, [pc, #276]	@ (8007838 <pvPortMalloc+0x18c>)
 8007722:	681b      	ldr	r3, [r3, #0]
 8007724:	687a      	ldr	r2, [r7, #4]
 8007726:	429a      	cmp	r2, r3
 8007728:	d86a      	bhi.n	8007800 <pvPortMalloc+0x154>
			{
				/* Traverse the list from the start	(lowest address) block until
				one	of adequate size is found. */
				pxPreviousBlock = &xStart;
 800772a:	4b44      	ldr	r3, [pc, #272]	@ (800783c <pvPortMalloc+0x190>)
 800772c:	623b      	str	r3, [r7, #32]
				pxBlock = xStart.pxNextFreeBlock;
 800772e:	4b43      	ldr	r3, [pc, #268]	@ (800783c <pvPortMalloc+0x190>)
 8007730:	681b      	ldr	r3, [r3, #0]
 8007732:	627b      	str	r3, [r7, #36]	@ 0x24
				while( ( pxBlock->xBlockSize < xWantedSize ) && ( pxBlock->pxNextFreeBlock != NULL ) )
 8007734:	e004      	b.n	8007740 <pvPortMalloc+0x94>
				{
					pxPreviousBlock = pxBlock;
 8007736:	6a7b      	ldr	r3, [r7, #36]	@ 0x24
 8007738:	623b      	str	r3, [r7, #32]
					pxBlock = pxBlock->pxNextFreeBlock;
 800773a:	6a7b      	ldr	r3, [r7, #36]	@ 0x24
 800773c:	681b      	ldr	r3, [r3, #0]
 800773e:	627b      	str	r3, [r7, #36]	@ 0x24
				while( ( pxBlock->xBlockSize < xWantedSize ) && ( pxBlock->pxNextFreeBlock != NULL ) )
 8007740:	6a7b      	ldr	r3, [r7, #36]	@ 0x24
 8007742:	685b      	ldr	r3, [r3, #4]
 8007744:	687a      	ldr	r2, [r7, #4]
 8007746:	429a      	cmp	r2, r3
 8007748:	d903      	bls.n	8007752 <pvPortMalloc+0xa6>
 800774a:	6a7b      	ldr	r3, [r7, #36]	@ 0x24
 800774c:	681b      	ldr	r3, [r3, #0]
 800774e:	2b00      	cmp	r3, #0
 8007750:	d1f1      	bne.n	8007736 <pvPortMalloc+0x8a>
				}

				/* If the end marker was reached then a block of adequate size
				was	not found. */
				if( pxBlock != pxEnd )
 8007752:	4b37      	ldr	r3, [pc, #220]	@ (8007830 <pvPortMalloc+0x184>)
 8007754:	681b      	ldr	r3, [r3, #0]
 8007756:	6a7a      	ldr	r2, [r7, #36]	@ 0x24
 8007758:	429a      	cmp	r2, r3
 800775a:	d051      	beq.n	8007800 <pvPortMalloc+0x154>
				{
					/* Return the memory space pointed to - jumping over the
					BlockLink_t structure at its start. */
					pvReturn = ( void * ) ( ( ( uint8_t * ) pxPreviousBlock->pxNextFreeBlock ) + xHeapStructSize );
 800775c:	6a3b      	ldr	r3, [r7, #32]
 800775e:	681b      	ldr	r3, [r3, #0]
 8007760:	2208      	movs	r2, #8
 8007762:	4413      	add	r3, r2
 8007764:	61fb      	str	r3, [r7, #28]

					/* This block is being returned for use so must be taken out
					of the list of free blocks. */
					pxPreviousBlock->pxNextFreeBlock = pxBlock->pxNextFreeBlock;
 8007766:	6a7b      	ldr	r3, [r7, #36]	@ 0x24
 8007768:	681a      	ldr	r2, [r3, #0]
 800776a:	6a3b      	ldr	r3, [r7, #32]
 800776c:	601a      	str	r2, [r3, #0]

					/* If the block is larger than required it can be split into
					two. */
					if( ( pxBlock->xBlockSize - xWantedSize ) > heapMINIMUM_BLOCK_SIZE )
 800776e:	6a7b      	ldr	r3, [r7, #36]	@ 0x24
 8007770:	685a      	ldr	r2, [r3, #4]
 8007772:	687b      	ldr	r3, [r7, #4]
 8007774:	1ad2      	subs	r2, r2, r3
 8007776:	2308      	movs	r3, #8
 8007778:	005b      	lsls	r3, r3, #1
 800777a:	429a      	cmp	r2, r3
 800777c:	d920      	bls.n	80077c0 <pvPortMalloc+0x114>
					{
						/* This block is to be split into two.  Create a new
						block following the number of bytes requested. The void
						cast is used to prevent byte alignment warnings from the
						compiler. */
						pxNewBlockLink = ( void * ) ( ( ( uint8_t * ) pxBlock ) + xWantedSize );
 800777e:	6a7a      	ldr	r2, [r7, #36]	@ 0x24
 8007780:	687b      	ldr	r3, [r7, #4]
 8007782:	4413      	add	r3, r2
 8007784:	61bb      	str	r3, [r7, #24]
						configASSERT( ( ( ( size_t ) pxNewBlockLink ) & portBYTE_ALIGNMENT_MASK ) == 0 );
 8007786:	69bb      	ldr	r3, [r7, #24]
 8007788:	f003 0307 	and.w	r3, r3, #7
 800778c:	2b00      	cmp	r3, #0
 800778e:	d00b      	beq.n	80077a8 <pvPortMalloc+0xfc>
	__asm volatile
 8007790:	f04f 0350 	mov.w	r3, #80	@ 0x50
 8007794:	f383 8811 	msr	BASEPRI, r3
 8007798:	f3bf 8f6f 	isb	sy
 800779c:	f3bf 8f4f 	dsb	sy
 80077a0:	613b      	str	r3, [r7, #16]
}
 80077a2:	bf00      	nop
 80077a4:	bf00      	nop
 80077a6:	e7fd      	b.n	80077a4 <pvPortMalloc+0xf8>

						/* Calculate the sizes of two blocks split from the
						single block. */
						pxNewBlockLink->xBlockSize = pxBlock->xBlockSize - xWantedSize;
 80077a8:	6a7b      	ldr	r3, [r7, #36]	@ 0x24
 80077aa:	685a      	ldr	r2, [r3, #4]
 80077ac:	687b      	ldr	r3, [r7, #4]
 80077ae:	1ad2      	subs	r2, r2, r3
 80077b0:	69bb      	ldr	r3, [r7, #24]
 80077b2:	605a      	str	r2, [r3, #4]
						pxBlock->xBlockSize = xWantedSize;
 80077b4:	6a7b      	ldr	r3, [r7, #36]	@ 0x24
 80077b6:	687a      	ldr	r2, [r7, #4]
 80077b8:	605a      	str	r2, [r3, #4]

						/* Insert the new block into the list of free blocks. */
						prvInsertBlockIntoFreeList( pxNewBlockLink );
 80077ba:	69b8      	ldr	r0, [r7, #24]
 80077bc:	f000 f90a 	bl	80079d4 <prvInsertBlockIntoFreeList>
					else
					{
						mtCOVERAGE_TEST_MARKER();
					}

					xFreeBytesRemaining -= pxBlock->xBlockSize;
 80077c0:	4b1d      	ldr	r3, [pc, #116]	@ (8007838 <pvPortMalloc+0x18c>)
 80077c2:	681a      	ldr	r2, [r3, #0]
 80077c4:	6a7b      	ldr	r3, [r7, #36]	@ 0x24
 80077c6:	685b      	ldr	r3, [r3, #4]
 80077c8:	1ad3      	subs	r3, r2, r3
 80077ca:	4a1b      	ldr	r2, [pc, #108]	@ (8007838 <pvPortMalloc+0x18c>)
 80077cc:	6013      	str	r3, [r2, #0]

					if( xFreeBytesRemaining < xMinimumEverFreeBytesRemaining )
 80077ce:	4b1a      	ldr	r3, [pc, #104]	@ (8007838 <pvPortMalloc+0x18c>)
 80077d0:	681a      	ldr	r2, [r3, #0]
 80077d2:	4b1b      	ldr	r3, [pc, #108]	@ (8007840 <pvPortMalloc+0x194>)
 80077d4:	681b      	ldr	r3, [r3, #0]
 80077d6:	429a      	cmp	r2, r3
 80077d8:	d203      	bcs.n	80077e2 <pvPortMalloc+0x136>
					{
						xMinimumEverFreeBytesRemaining = xFreeBytesRemaining;
 80077da:	4b17      	ldr	r3, [pc, #92]	@ (8007838 <pvPortMalloc+0x18c>)
 80077dc:	681b      	ldr	r3, [r3, #0]
 80077de:	4a18      	ldr	r2, [pc, #96]	@ (8007840 <pvPortMalloc+0x194>)
 80077e0:	6013      	str	r3, [r2, #0]
						mtCOVERAGE_TEST_MARKER();
					}

					/* The block is being returned - it is allocated and owned
					by the application and has no "next" block. */
					pxBlock->xBlockSize |= xBlockAllocatedBit;
 80077e2:	6a7b      	ldr	r3, [r7, #36]	@ 0x24
 80077e4:	685a      	ldr	r2, [r3, #4]
 80077e6:	4b13      	ldr	r3, [pc, #76]	@ (8007834 <pvPortMalloc+0x188>)
 80077e8:	681b      	ldr	r3, [r3, #0]
 80077ea:	431a      	orrs	r2, r3
 80077ec:	6a7b      	ldr	r3, [r7, #36]	@ 0x24
 80077ee:	605a      	str	r2, [r3, #4]
					pxBlock->pxNextFreeBlock = NULL;
 80077f0:	6a7b      	ldr	r3, [r7, #36]	@ 0x24
 80077f2:	2200      	movs	r2, #0
 80077f4:	601a      	str	r2, [r3, #0]
					xNumberOfSuccessfulAllocations++;
 80077f6:	4b13      	ldr	r3, [pc, #76]	@ (8007844 <pvPortMalloc+0x198>)
 80077f8:	681b      	ldr	r3, [r3, #0]
 80077fa:	3301      	adds	r3, #1
 80077fc:	4a11      	ldr	r2, [pc, #68]	@ (8007844 <pvPortMalloc+0x198>)
 80077fe:	6013      	str	r3, [r2, #0]
			mtCOVERAGE_TEST_MARKER();
		}

		traceMALLOC( pvReturn, xWantedSize );
	}
	( void ) xTaskResumeAll();
 8007800:	f7fe fbec 	bl	8005fdc <xTaskResumeAll>
			mtCOVERAGE_TEST_MARKER();
		}
	}
	#endif

	configASSERT( ( ( ( size_t ) pvReturn ) & ( size_t ) portBYTE_ALIGNMENT_MASK ) == 0 );
 8007804:	69fb      	ldr	r3, [r7, #28]
 8007806:	f003 0307 	and.w	r3, r3, #7
 800780a:	2b00      	cmp	r3, #0
 800780c:	d00b      	beq.n	8007826 <pvPortMalloc+0x17a>
	__asm volatile
 800780e:	f04f 0350 	mov.w	r3, #80	@ 0x50
 8007812:	f383 8811 	msr	BASEPRI, r3
 8007816:	f3bf 8f6f 	isb	sy
 800781a:	f3bf 8f4f 	dsb	sy
 800781e:	60fb      	str	r3, [r7, #12]
}
 8007820:	bf00      	nop
 8007822:	bf00      	nop
 8007824:	e7fd      	b.n	8007822 <pvPortMalloc+0x176>
	return pvReturn;
 8007826:	69fb      	ldr	r3, [r7, #28]
}
 8007828:	4618      	mov	r0, r3
 800782a:	3728      	adds	r7, #40	@ 0x28
 800782c:	46bd      	mov	sp, r7
 800782e:	bd80      	pop	{r7, pc}
 8007830:	200051e0 	.word	0x200051e0
 8007834:	200051f4 	.word	0x200051f4
 8007838:	200051e4 	.word	0x200051e4
 800783c:	200051d8 	.word	0x200051d8
 8007840:	200051e8 	.word	0x200051e8
 8007844:	200051ec 	.word	0x200051ec

08007848 <vPortFree>:
/*-----------------------------------------------------------*/

void vPortFree( void *pv )
{
 8007848:	b580      	push	{r7, lr}
 800784a:	b086      	sub	sp, #24
 800784c:	af00      	add	r7, sp, #0
 800784e:	6078      	str	r0, [r7, #4]
uint8_t *puc = ( uint8_t * ) pv;
 8007850:	687b      	ldr	r3, [r7, #4]
 8007852:	617b      	str	r3, [r7, #20]
BlockLink_t *pxLink;

	if( pv != NULL )
 8007854:	687b      	ldr	r3, [r7, #4]
 8007856:	2b00      	cmp	r3, #0
 8007858:	d04f      	beq.n	80078fa <vPortFree+0xb2>
	{
		/* The memory being freed will have an BlockLink_t structure immediately
		before it. */
		puc -= xHeapStructSize;
 800785a:	2308      	movs	r3, #8
 800785c:	425b      	negs	r3, r3
 800785e:	697a      	ldr	r2, [r7, #20]
 8007860:	4413      	add	r3, r2
 8007862:	617b      	str	r3, [r7, #20]

		/* This casting is to keep the compiler from issuing warnings. */
		pxLink = ( void * ) puc;
 8007864:	697b      	ldr	r3, [r7, #20]
 8007866:	613b      	str	r3, [r7, #16]

		/* Check the block is actually allocated. */
		configASSERT( ( pxLink->xBlockSize & xBlockAllocatedBit ) != 0 );
 8007868:	693b      	ldr	r3, [r7, #16]
 800786a:	685a      	ldr	r2, [r3, #4]
 800786c:	4b25      	ldr	r3, [pc, #148]	@ (8007904 <vPortFree+0xbc>)
 800786e:	681b      	ldr	r3, [r3, #0]
 8007870:	4013      	ands	r3, r2
 8007872:	2b00      	cmp	r3, #0
 8007874:	d10b      	bne.n	800788e <vPortFree+0x46>
	__asm volatile
 8007876:	f04f 0350 	mov.w	r3, #80	@ 0x50
 800787a:	f383 8811 	msr	BASEPRI, r3
 800787e:	f3bf 8f6f 	isb	sy
 8007882:	f3bf 8f4f 	dsb	sy
 8007886:	60fb      	str	r3, [r7, #12]
}
 8007888:	bf00      	nop
 800788a:	bf00      	nop
 800788c:	e7fd      	b.n	800788a <vPortFree+0x42>
		configASSERT( pxLink->pxNextFreeBlock == NULL );
 800788e:	693b      	ldr	r3, [r7, #16]
 8007890:	681b      	ldr	r3, [r3, #0]
 8007892:	2b00      	cmp	r3, #0
 8007894:	d00b      	beq.n	80078ae <vPortFree+0x66>
	__asm volatile
 8007896:	f04f 0350 	mov.w	r3, #80	@ 0x50
 800789a:	f383 8811 	msr	BASEPRI, r3
 800789e:	f3bf 8f6f 	isb	sy
 80078a2:	f3bf 8f4f 	dsb	sy
 80078a6:	60bb      	str	r3, [r7, #8]
}
 80078a8:	bf00      	nop
 80078aa:	bf00      	nop
 80078ac:	e7fd      	b.n	80078aa <vPortFree+0x62>

		if( ( pxLink->xBlockSize & xBlockAllocatedBit ) != 0 )
 80078ae:	693b      	ldr	r3, [r7, #16]
 80078b0:	685a      	ldr	r2, [r3, #4]
 80078b2:	4b14      	ldr	r3, [pc, #80]	@ (8007904 <vPortFree+0xbc>)
 80078b4:	681b      	ldr	r3, [r3, #0]
 80078b6:	4013      	ands	r3, r2
 80078b8:	2b00      	cmp	r3, #0
 80078ba:	d01e      	beq.n	80078fa <vPortFree+0xb2>
		{
			if( pxLink->pxNextFreeBlock == NULL )
 80078bc:	693b      	ldr	r3, [r7, #16]
 80078be:	681b      	ldr	r3, [r3, #0]
 80078c0:	2b00      	cmp	r3, #0
 80078c2:	d11a      	bne.n	80078fa <vPortFree+0xb2>
			{
				/* The block is being returned to the heap - it is no longer
				allocated. */
				pxLink->xBlockSize &= ~xBlockAllocatedBit;
 80078c4:	693b      	ldr	r3, [r7, #16]
 80078c6:	685a      	ldr	r2, [r3, #4]
 80078c8:	4b0e      	ldr	r3, [pc, #56]	@ (8007904 <vPortFree+0xbc>)
 80078ca:	681b      	ldr	r3, [r3, #0]
 80078cc:	43db      	mvns	r3, r3
 80078ce:	401a      	ands	r2, r3
 80078d0:	693b      	ldr	r3, [r7, #16]
 80078d2:	605a      	str	r2, [r3, #4]

				vTaskSuspendAll();
 80078d4:	f7fe fb74 	bl	8005fc0 <vTaskSuspendAll>
				{
					/* Add this block to the list of free blocks. */
					xFreeBytesRemaining += pxLink->xBlockSize;
 80078d8:	693b      	ldr	r3, [r7, #16]
 80078da:	685a      	ldr	r2, [r3, #4]
 80078dc:	4b0a      	ldr	r3, [pc, #40]	@ (8007908 <vPortFree+0xc0>)
 80078de:	681b      	ldr	r3, [r3, #0]
 80078e0:	4413      	add	r3, r2
 80078e2:	4a09      	ldr	r2, [pc, #36]	@ (8007908 <vPortFree+0xc0>)
 80078e4:	6013      	str	r3, [r2, #0]
					traceFREE( pv, pxLink->xBlockSize );
					prvInsertBlockIntoFreeList( ( ( BlockLink_t * ) pxLink ) );
 80078e6:	6938      	ldr	r0, [r7, #16]
 80078e8:	f000 f874 	bl	80079d4 <prvInsertBlockIntoFreeList>
					xNumberOfSuccessfulFrees++;
 80078ec:	4b07      	ldr	r3, [pc, #28]	@ (800790c <vPortFree+0xc4>)
 80078ee:	681b      	ldr	r3, [r3, #0]
 80078f0:	3301      	adds	r3, #1
 80078f2:	4a06      	ldr	r2, [pc, #24]	@ (800790c <vPortFree+0xc4>)
 80078f4:	6013      	str	r3, [r2, #0]
				}
				( void ) xTaskResumeAll();
 80078f6:	f7fe fb71 	bl	8005fdc <xTaskResumeAll>
		else
		{
			mtCOVERAGE_TEST_MARKER();
		}
	}
}
 80078fa:	bf00      	nop
 80078fc:	3718      	adds	r7, #24
 80078fe:	46bd      	mov	sp, r7
 8007900:	bd80      	pop	{r7, pc}
 8007902:	bf00      	nop
 8007904:	200051f4 	.word	0x200051f4
 8007908:	200051e4 	.word	0x200051e4
 800790c:	200051f0 	.word	0x200051f0

08007910 <prvHeapInit>:
	/* This just exists to keep the linker quiet. */
}
/*-----------------------------------------------------------*/

static void prvHeapInit( void )
{
 8007910:	b480      	push	{r7}
 8007912:	b085      	sub	sp, #20
 8007914:	af00      	add	r7, sp, #0
BlockLink_t *pxFirstFreeBlock;
uint8_t *pucAlignedHeap;
size_t uxAddress;
size_t xTotalHeapSize = configTOTAL_HEAP_SIZE;
 8007916:	f44f 5370 	mov.w	r3, #15360	@ 0x3c00
 800791a:	60bb      	str	r3, [r7, #8]

	/* Ensure the heap starts on a correctly aligned boundary. */
	uxAddress = ( size_t ) ucHeap;
 800791c:	4b27      	ldr	r3, [pc, #156]	@ (80079bc <prvHeapInit+0xac>)
 800791e:	60fb      	str	r3, [r7, #12]

	if( ( uxAddress & portBYTE_ALIGNMENT_MASK ) != 0 )
 8007920:	68fb      	ldr	r3, [r7, #12]
 8007922:	f003 0307 	and.w	r3, r3, #7
 8007926:	2b00      	cmp	r3, #0
 8007928:	d00c      	beq.n	8007944 <prvHeapInit+0x34>
	{
		uxAddress += ( portBYTE_ALIGNMENT - 1 );
 800792a:	68fb      	ldr	r3, [r7, #12]
 800792c:	3307      	adds	r3, #7
 800792e:	60fb      	str	r3, [r7, #12]
		uxAddress &= ~( ( size_t ) portBYTE_ALIGNMENT_MASK );
 8007930:	68fb      	ldr	r3, [r7, #12]
 8007932:	f023 0307 	bic.w	r3, r3, #7
 8007936:	60fb      	str	r3, [r7, #12]
		xTotalHeapSize -= uxAddress - ( size_t ) ucHeap;
 8007938:	68ba      	ldr	r2, [r7, #8]
 800793a:	68fb      	ldr	r3, [r7, #12]
 800793c:	1ad3      	subs	r3, r2, r3
 800793e:	4a1f      	ldr	r2, [pc, #124]	@ (80079bc <prvHeapInit+0xac>)
 8007940:	4413      	add	r3, r2
 8007942:	60bb      	str	r3, [r7, #8]
	}

	pucAlignedHeap = ( uint8_t * ) uxAddress;
 8007944:	68fb      	ldr	r3, [r7, #12]
 8007946:	607b      	str	r3, [r7, #4]

	/* xStart is used to hold a pointer to the first item in the list of free
	blocks.  The void cast is used to prevent compiler warnings. */
	xStart.pxNextFreeBlock = ( void * ) pucAlignedHeap;
 8007948:	4a1d      	ldr	r2, [pc, #116]	@ (80079c0 <prvHeapInit+0xb0>)
 800794a:	687b      	ldr	r3, [r7, #4]
 800794c:	6013      	str	r3, [r2, #0]
	xStart.xBlockSize = ( size_t ) 0;
 800794e:	4b1c      	ldr	r3, [pc, #112]	@ (80079c0 <prvHeapInit+0xb0>)
 8007950:	2200      	movs	r2, #0
 8007952:	605a      	str	r2, [r3, #4]

	/* pxEnd is used to mark the end of the list of free blocks and is inserted
	at the end of the heap space. */
	uxAddress = ( ( size_t ) pucAlignedHeap ) + xTotalHeapSize;
 8007954:	687b      	ldr	r3, [r7, #4]
 8007956:	68ba      	ldr	r2, [r7, #8]
 8007958:	4413      	add	r3, r2
 800795a:	60fb      	str	r3, [r7, #12]
	uxAddress -= xHeapStructSize;
 800795c:	2208      	movs	r2, #8
 800795e:	68fb      	ldr	r3, [r7, #12]
 8007960:	1a9b      	subs	r3, r3, r2
 8007962:	60fb      	str	r3, [r7, #12]
	uxAddress &= ~( ( size_t ) portBYTE_ALIGNMENT_MASK );
 8007964:	68fb      	ldr	r3, [r7, #12]
 8007966:	f023 0307 	bic.w	r3, r3, #7
 800796a:	60fb      	str	r3, [r7, #12]
	pxEnd = ( void * ) uxAddress;
 800796c:	68fb      	ldr	r3, [r7, #12]
 800796e:	4a15      	ldr	r2, [pc, #84]	@ (80079c4 <prvHeapInit+0xb4>)
 8007970:	6013      	str	r3, [r2, #0]
	pxEnd->xBlockSize = 0;
 8007972:	4b14      	ldr	r3, [pc, #80]	@ (80079c4 <prvHeapInit+0xb4>)
 8007974:	681b      	ldr	r3, [r3, #0]
 8007976:	2200      	movs	r2, #0
 8007978:	605a      	str	r2, [r3, #4]
	pxEnd->pxNextFreeBlock = NULL;
 800797a:	4b12      	ldr	r3, [pc, #72]	@ (80079c4 <prvHeapInit+0xb4>)
 800797c:	681b      	ldr	r3, [r3, #0]
 800797e:	2200      	movs	r2, #0
 8007980:	601a      	str	r2, [r3, #0]

	/* To start with there is a single free block that is sized to take up the
	entire heap space, minus the space taken by pxEnd. */
	pxFirstFreeBlock = ( void * ) pucAlignedHeap;
 8007982:	687b      	ldr	r3, [r7, #4]
 8007984:	603b      	str	r3, [r7, #0]
	pxFirstFreeBlock->xBlockSize = uxAddress - ( size_t ) pxFirstFreeBlock;
 8007986:	683b      	ldr	r3, [r7, #0]
 8007988:	68fa      	ldr	r2, [r7, #12]
 800798a:	1ad2      	subs	r2, r2, r3
 800798c:	683b      	ldr	r3, [r7, #0]
 800798e:	605a      	str	r2, [r3, #4]
	pxFirstFreeBlock->pxNextFreeBlock = pxEnd;
 8007990:	4b0c      	ldr	r3, [pc, #48]	@ (80079c4 <prvHeapInit+0xb4>)
 8007992:	681a      	ldr	r2, [r3, #0]
 8007994:	683b      	ldr	r3, [r7, #0]
 8007996:	601a      	str	r2, [r3, #0]

	/* Only one block exists - and it covers the entire usable heap space. */
	xMinimumEverFreeBytesRemaining = pxFirstFreeBlock->xBlockSize;
 8007998:	683b      	ldr	r3, [r7, #0]
 800799a:	685b      	ldr	r3, [r3, #4]
 800799c:	4a0a      	ldr	r2, [pc, #40]	@ (80079c8 <prvHeapInit+0xb8>)
 800799e:	6013      	str	r3, [r2, #0]
	xFreeBytesRemaining = pxFirstFreeBlock->xBlockSize;
 80079a0:	683b      	ldr	r3, [r7, #0]
 80079a2:	685b      	ldr	r3, [r3, #4]
 80079a4:	4a09      	ldr	r2, [pc, #36]	@ (80079cc <prvHeapInit+0xbc>)
 80079a6:	6013      	str	r3, [r2, #0]

	/* Work out the position of the top bit in a size_t variable. */
	xBlockAllocatedBit = ( ( size_t ) 1 ) << ( ( sizeof( size_t ) * heapBITS_PER_BYTE ) - 1 );
 80079a8:	4b09      	ldr	r3, [pc, #36]	@ (80079d0 <prvHeapInit+0xc0>)
 80079aa:	f04f 4200 	mov.w	r2, #2147483648	@ 0x80000000
 80079ae:	601a      	str	r2, [r3, #0]
}
 80079b0:	bf00      	nop
 80079b2:	3714      	adds	r7, #20
 80079b4:	46bd      	mov	sp, r7
 80079b6:	f85d 7b04 	ldr.w	r7, [sp], #4
 80079ba:	4770      	bx	lr
 80079bc:	200015d8 	.word	0x200015d8
 80079c0:	200051d8 	.word	0x200051d8
 80079c4:	200051e0 	.word	0x200051e0
 80079c8:	200051e8 	.word	0x200051e8
 80079cc:	200051e4 	.word	0x200051e4
 80079d0:	200051f4 	.word	0x200051f4

080079d4 <prvInsertBlockIntoFreeList>:
/*-----------------------------------------------------------*/

static void prvInsertBlockIntoFreeList( BlockLink_t *pxBlockToInsert )
{
 80079d4:	b480      	push	{r7}
 80079d6:	b085      	sub	sp, #20
 80079d8:	af00      	add	r7, sp, #0
 80079da:	6078      	str	r0, [r7, #4]
BlockLink_t *pxIterator;
uint8_t *puc;

	/* Iterate through the list until a block is found that has a higher address
	than the block being inserted. */
	for( pxIterator = &xStart; pxIterator->pxNextFreeBlock < pxBlockToInsert; pxIterator = pxIterator->pxNextFreeBlock )
 80079dc:	4b28      	ldr	r3, [pc, #160]	@ (8007a80 <prvInsertBlockIntoFreeList+0xac>)
 80079de:	60fb      	str	r3, [r7, #12]
 80079e0:	e002      	b.n	80079e8 <prvInsertBlockIntoFreeList+0x14>
 80079e2:	68fb      	ldr	r3, [r7, #12]
 80079e4:	681b      	ldr	r3, [r3, #0]
 80079e6:	60fb      	str	r3, [r7, #12]
 80079e8:	68fb      	ldr	r3, [r7, #12]
 80079ea:	681b      	ldr	r3, [r3, #0]
 80079ec:	687a      	ldr	r2, [r7, #4]
 80079ee:	429a      	cmp	r2, r3
 80079f0:	d8f7      	bhi.n	80079e2 <prvInsertBlockIntoFreeList+0xe>
		/* Nothing to do here, just iterate to the right position. */
	}

	/* Do the block being inserted, and the block it is being inserted after
	make a contiguous block of memory? */
	puc = ( uint8_t * ) pxIterator;
 80079f2:	68fb      	ldr	r3, [r7, #12]
 80079f4:	60bb      	str	r3, [r7, #8]
	if( ( puc + pxIterator->xBlockSize ) == ( uint8_t * ) pxBlockToInsert )
 80079f6:	68fb      	ldr	r3, [r7, #12]
 80079f8:	685b      	ldr	r3, [r3, #4]
 80079fa:	68ba      	ldr	r2, [r7, #8]
 80079fc:	4413      	add	r3, r2
 80079fe:	687a      	ldr	r2, [r7, #4]
 8007a00:	429a      	cmp	r2, r3
 8007a02:	d108      	bne.n	8007a16 <prvInsertBlockIntoFreeList+0x42>
	{
		pxIterator->xBlockSize += pxBlockToInsert->xBlockSize;
 8007a04:	68fb      	ldr	r3, [r7, #12]
 8007a06:	685a      	ldr	r2, [r3, #4]
 8007a08:	687b      	ldr	r3, [r7, #4]
 8007a0a:	685b      	ldr	r3, [r3, #4]
 8007a0c:	441a      	add	r2, r3
 8007a0e:	68fb      	ldr	r3, [r7, #12]
 8007a10:	605a      	str	r2, [r3, #4]
		pxBlockToInsert = pxIterator;
 8007a12:	68fb      	ldr	r3, [r7, #12]
 8007a14:	607b      	str	r3, [r7, #4]
		mtCOVERAGE_TEST_MARKER();
	}

	/* Do the block being inserted, and the block it is being inserted before
	make a contiguous block of memory? */
	puc = ( uint8_t * ) pxBlockToInsert;
 8007a16:	687b      	ldr	r3, [r7, #4]
 8007a18:	60bb      	str	r3, [r7, #8]
	if( ( puc + pxBlockToInsert->xBlockSize ) == ( uint8_t * ) pxIterator->pxNextFreeBlock )
 8007a1a:	687b      	ldr	r3, [r7, #4]
 8007a1c:	685b      	ldr	r3, [r3, #4]
 8007a1e:	68ba      	ldr	r2, [r7, #8]
 8007a20:	441a      	add	r2, r3
 8007a22:	68fb      	ldr	r3, [r7, #12]
 8007a24:	681b      	ldr	r3, [r3, #0]
 8007a26:	429a      	cmp	r2, r3
 8007a28:	d118      	bne.n	8007a5c <prvInsertBlockIntoFreeList+0x88>
	{
		if( pxIterator->pxNextFreeBlock != pxEnd )
 8007a2a:	68fb      	ldr	r3, [r7, #12]
 8007a2c:	681a      	ldr	r2, [r3, #0]
 8007a2e:	4b15      	ldr	r3, [pc, #84]	@ (8007a84 <prvInsertBlockIntoFreeList+0xb0>)
 8007a30:	681b      	ldr	r3, [r3, #0]
 8007a32:	429a      	cmp	r2, r3
 8007a34:	d00d      	beq.n	8007a52 <prvInsertBlockIntoFreeList+0x7e>
		{
			/* Form one big block from the two blocks. */
			pxBlockToInsert->xBlockSize += pxIterator->pxNextFreeBlock->xBlockSize;
 8007a36:	687b      	ldr	r3, [r7, #4]
 8007a38:	685a      	ldr	r2, [r3, #4]
 8007a3a:	68fb      	ldr	r3, [r7, #12]
 8007a3c:	681b      	ldr	r3, [r3, #0]
 8007a3e:	685b      	ldr	r3, [r3, #4]
 8007a40:	441a      	add	r2, r3
 8007a42:	687b      	ldr	r3, [r7, #4]
 8007a44:	605a      	str	r2, [r3, #4]
			pxBlockToInsert->pxNextFreeBlock = pxIterator->pxNextFreeBlock->pxNextFreeBlock;
 8007a46:	68fb      	ldr	r3, [r7, #12]
 8007a48:	681b      	ldr	r3, [r3, #0]
 8007a4a:	681a      	ldr	r2, [r3, #0]
 8007a4c:	687b      	ldr	r3, [r7, #4]
 8007a4e:	601a      	str	r2, [r3, #0]
 8007a50:	e008      	b.n	8007a64 <prvInsertBlockIntoFreeList+0x90>
		}
		else
		{
			pxBlockToInsert->pxNextFreeBlock = pxEnd;
 8007a52:	4b0c      	ldr	r3, [pc, #48]	@ (8007a84 <prvInsertBlockIntoFreeList+0xb0>)
 8007a54:	681a      	ldr	r2, [r3, #0]
 8007a56:	687b      	ldr	r3, [r7, #4]
 8007a58:	601a      	str	r2, [r3, #0]
 8007a5a:	e003      	b.n	8007a64 <prvInsertBlockIntoFreeList+0x90>
		}
	}
	else
	{
		pxBlockToInsert->pxNextFreeBlock = pxIterator->pxNextFreeBlock;
 8007a5c:	68fb      	ldr	r3, [r7, #12]
 8007a5e:	681a      	ldr	r2, [r3, #0]
 8007a60:	687b      	ldr	r3, [r7, #4]
 8007a62:	601a      	str	r2, [r3, #0]

	/* If the block being inserted plugged a gab, so was merged with the block
	before and the block after, then it's pxNextFreeBlock pointer will have
	already been set, and should not be set here as that would make it point
	to itself. */
	if( pxIterator != pxBlockToInsert )
 8007a64:	68fa      	ldr	r2, [r7, #12]
 8007a66:	687b      	ldr	r3, [r7, #4]
 8007a68:	429a      	cmp	r2, r3
 8007a6a:	d002      	beq.n	8007a72 <prvInsertBlockIntoFreeList+0x9e>
	{
		pxIterator->pxNextFreeBlock = pxBlockToInsert;
 8007a6c:	68fb      	ldr	r3, [r7, #12]
 8007a6e:	687a      	ldr	r2, [r7, #4]
 8007a70:	601a      	str	r2, [r3, #0]
	}
	else
	{
		mtCOVERAGE_TEST_MARKER();
	}
}
 8007a72:	bf00      	nop
 8007a74:	3714      	adds	r7, #20
 8007a76:	46bd      	mov	sp, r7
 8007a78:	f85d 7b04 	ldr.w	r7, [sp], #4
 8007a7c:	4770      	bx	lr
 8007a7e:	bf00      	nop
 8007a80:	200051d8 	.word	0x200051d8
 8007a84:	200051e0 	.word	0x200051e0

08007a88 <atof>:
 8007a88:	2100      	movs	r1, #0
 8007a8a:	f001 bafd 	b.w	8009088 <strtod>

08007a8e <__cvt>:
 8007a8e:	e92d 47ff 	stmdb	sp!, {r0, r1, r2, r3, r4, r5, r6, r7, r8, r9, sl, lr}
 8007a92:	ec57 6b10 	vmov	r6, r7, d0
 8007a96:	2f00      	cmp	r7, #0
 8007a98:	460c      	mov	r4, r1
 8007a9a:	4619      	mov	r1, r3
 8007a9c:	463b      	mov	r3, r7
 8007a9e:	bfbb      	ittet	lt
 8007aa0:	f107 4300 	addlt.w	r3, r7, #2147483648	@ 0x80000000
 8007aa4:	461f      	movlt	r7, r3
 8007aa6:	2300      	movge	r3, #0
 8007aa8:	232d      	movlt	r3, #45	@ 0x2d
 8007aaa:	700b      	strb	r3, [r1, #0]
 8007aac:	9b0d      	ldr	r3, [sp, #52]	@ 0x34
 8007aae:	f8dd a030 	ldr.w	sl, [sp, #48]	@ 0x30
 8007ab2:	4691      	mov	r9, r2
 8007ab4:	f023 0820 	bic.w	r8, r3, #32
 8007ab8:	bfbc      	itt	lt
 8007aba:	4632      	movlt	r2, r6
 8007abc:	4616      	movlt	r6, r2
 8007abe:	f1b8 0f46 	cmp.w	r8, #70	@ 0x46
 8007ac2:	d005      	beq.n	8007ad0 <__cvt+0x42>
 8007ac4:	f1b8 0f45 	cmp.w	r8, #69	@ 0x45
 8007ac8:	d100      	bne.n	8007acc <__cvt+0x3e>
 8007aca:	3401      	adds	r4, #1
 8007acc:	2102      	movs	r1, #2
 8007ace:	e000      	b.n	8007ad2 <__cvt+0x44>
 8007ad0:	2103      	movs	r1, #3
 8007ad2:	ab03      	add	r3, sp, #12
 8007ad4:	9301      	str	r3, [sp, #4]
 8007ad6:	ab02      	add	r3, sp, #8
 8007ad8:	9300      	str	r3, [sp, #0]
 8007ada:	ec47 6b10 	vmov	d0, r6, r7
 8007ade:	4653      	mov	r3, sl
 8007ae0:	4622      	mov	r2, r4
 8007ae2:	f001 fc55 	bl	8009390 <_dtoa_r>
 8007ae6:	f1b8 0f47 	cmp.w	r8, #71	@ 0x47
 8007aea:	4605      	mov	r5, r0
 8007aec:	d119      	bne.n	8007b22 <__cvt+0x94>
 8007aee:	f019 0f01 	tst.w	r9, #1
 8007af2:	d00e      	beq.n	8007b12 <__cvt+0x84>
 8007af4:	eb00 0904 	add.w	r9, r0, r4
 8007af8:	2200      	movs	r2, #0
 8007afa:	2300      	movs	r3, #0
 8007afc:	4630      	mov	r0, r6
 8007afe:	4639      	mov	r1, r7
 8007b00:	f7f9 f802 	bl	8000b08 <__aeabi_dcmpeq>
 8007b04:	b108      	cbz	r0, 8007b0a <__cvt+0x7c>
 8007b06:	f8cd 900c 	str.w	r9, [sp, #12]
 8007b0a:	2230      	movs	r2, #48	@ 0x30
 8007b0c:	9b03      	ldr	r3, [sp, #12]
 8007b0e:	454b      	cmp	r3, r9
 8007b10:	d31e      	bcc.n	8007b50 <__cvt+0xc2>
 8007b12:	9b03      	ldr	r3, [sp, #12]
 8007b14:	9a0e      	ldr	r2, [sp, #56]	@ 0x38
 8007b16:	1b5b      	subs	r3, r3, r5
 8007b18:	4628      	mov	r0, r5
 8007b1a:	6013      	str	r3, [r2, #0]
 8007b1c:	b004      	add	sp, #16
 8007b1e:	e8bd 87f0 	ldmia.w	sp!, {r4, r5, r6, r7, r8, r9, sl, pc}
 8007b22:	f1b8 0f46 	cmp.w	r8, #70	@ 0x46
 8007b26:	eb00 0904 	add.w	r9, r0, r4
 8007b2a:	d1e5      	bne.n	8007af8 <__cvt+0x6a>
 8007b2c:	7803      	ldrb	r3, [r0, #0]
 8007b2e:	2b30      	cmp	r3, #48	@ 0x30
 8007b30:	d10a      	bne.n	8007b48 <__cvt+0xba>
 8007b32:	2200      	movs	r2, #0
 8007b34:	2300      	movs	r3, #0
 8007b36:	4630      	mov	r0, r6
 8007b38:	4639      	mov	r1, r7
 8007b3a:	f7f8 ffe5 	bl	8000b08 <__aeabi_dcmpeq>
 8007b3e:	b918      	cbnz	r0, 8007b48 <__cvt+0xba>
 8007b40:	f1c4 0401 	rsb	r4, r4, #1
 8007b44:	f8ca 4000 	str.w	r4, [sl]
 8007b48:	f8da 3000 	ldr.w	r3, [sl]
 8007b4c:	4499      	add	r9, r3
 8007b4e:	e7d3      	b.n	8007af8 <__cvt+0x6a>
 8007b50:	1c59      	adds	r1, r3, #1
 8007b52:	9103      	str	r1, [sp, #12]
 8007b54:	701a      	strb	r2, [r3, #0]
 8007b56:	e7d9      	b.n	8007b0c <__cvt+0x7e>

08007b58 <__exponent>:
 8007b58:	b5f7      	push	{r0, r1, r2, r4, r5, r6, r7, lr}
 8007b5a:	2900      	cmp	r1, #0
 8007b5c:	bfba      	itte	lt
 8007b5e:	4249      	neglt	r1, r1
 8007b60:	232d      	movlt	r3, #45	@ 0x2d
 8007b62:	232b      	movge	r3, #43	@ 0x2b
 8007b64:	2909      	cmp	r1, #9
 8007b66:	7002      	strb	r2, [r0, #0]
 8007b68:	7043      	strb	r3, [r0, #1]
 8007b6a:	dd29      	ble.n	8007bc0 <__exponent+0x68>
 8007b6c:	f10d 0307 	add.w	r3, sp, #7
 8007b70:	461d      	mov	r5, r3
 8007b72:	270a      	movs	r7, #10
 8007b74:	461a      	mov	r2, r3
 8007b76:	fbb1 f6f7 	udiv	r6, r1, r7
 8007b7a:	fb07 1416 	mls	r4, r7, r6, r1
 8007b7e:	3430      	adds	r4, #48	@ 0x30
 8007b80:	f802 4c01 	strb.w	r4, [r2, #-1]
 8007b84:	460c      	mov	r4, r1
 8007b86:	2c63      	cmp	r4, #99	@ 0x63
 8007b88:	f103 33ff 	add.w	r3, r3, #4294967295	@ 0xffffffff
 8007b8c:	4631      	mov	r1, r6
 8007b8e:	dcf1      	bgt.n	8007b74 <__exponent+0x1c>
 8007b90:	3130      	adds	r1, #48	@ 0x30
 8007b92:	1e94      	subs	r4, r2, #2
 8007b94:	f803 1c01 	strb.w	r1, [r3, #-1]
 8007b98:	1c41      	adds	r1, r0, #1
 8007b9a:	4623      	mov	r3, r4
 8007b9c:	42ab      	cmp	r3, r5
 8007b9e:	d30a      	bcc.n	8007bb6 <__exponent+0x5e>
 8007ba0:	f10d 0309 	add.w	r3, sp, #9
 8007ba4:	1a9b      	subs	r3, r3, r2
 8007ba6:	42ac      	cmp	r4, r5
 8007ba8:	bf88      	it	hi
 8007baa:	2300      	movhi	r3, #0
 8007bac:	3302      	adds	r3, #2
 8007bae:	4403      	add	r3, r0
 8007bb0:	1a18      	subs	r0, r3, r0
 8007bb2:	b003      	add	sp, #12
 8007bb4:	bdf0      	pop	{r4, r5, r6, r7, pc}
 8007bb6:	f813 6b01 	ldrb.w	r6, [r3], #1
 8007bba:	f801 6f01 	strb.w	r6, [r1, #1]!
 8007bbe:	e7ed      	b.n	8007b9c <__exponent+0x44>
 8007bc0:	2330      	movs	r3, #48	@ 0x30
 8007bc2:	3130      	adds	r1, #48	@ 0x30
 8007bc4:	7083      	strb	r3, [r0, #2]
 8007bc6:	70c1      	strb	r1, [r0, #3]
 8007bc8:	1d03      	adds	r3, r0, #4
 8007bca:	e7f1      	b.n	8007bb0 <__exponent+0x58>

08007bcc <_printf_float>:
 8007bcc:	e92d 4ff0 	stmdb	sp!, {r4, r5, r6, r7, r8, r9, sl, fp, lr}
 8007bd0:	b08d      	sub	sp, #52	@ 0x34
 8007bd2:	460c      	mov	r4, r1
 8007bd4:	f8dd 8058 	ldr.w	r8, [sp, #88]	@ 0x58
 8007bd8:	4616      	mov	r6, r2
 8007bda:	461f      	mov	r7, r3
 8007bdc:	4605      	mov	r5, r0
 8007bde:	f001 fb35 	bl	800924c <_localeconv_r>
 8007be2:	6803      	ldr	r3, [r0, #0]
 8007be4:	9304      	str	r3, [sp, #16]
 8007be6:	4618      	mov	r0, r3
 8007be8:	f7f8 fb62 	bl	80002b0 <strlen>
 8007bec:	2300      	movs	r3, #0
 8007bee:	930a      	str	r3, [sp, #40]	@ 0x28
 8007bf0:	f8d8 3000 	ldr.w	r3, [r8]
 8007bf4:	9005      	str	r0, [sp, #20]
 8007bf6:	3307      	adds	r3, #7
 8007bf8:	f023 0307 	bic.w	r3, r3, #7
 8007bfc:	f103 0208 	add.w	r2, r3, #8
 8007c00:	f894 a018 	ldrb.w	sl, [r4, #24]
 8007c04:	f8d4 b000 	ldr.w	fp, [r4]
 8007c08:	f8c8 2000 	str.w	r2, [r8]
 8007c0c:	e9d3 8900 	ldrd	r8, r9, [r3]
 8007c10:	f029 4300 	bic.w	r3, r9, #2147483648	@ 0x80000000
 8007c14:	9307      	str	r3, [sp, #28]
 8007c16:	f8cd 8018 	str.w	r8, [sp, #24]
 8007c1a:	e9c4 8912 	strd	r8, r9, [r4, #72]	@ 0x48
 8007c1e:	e9dd 0106 	ldrd	r0, r1, [sp, #24]
 8007c22:	4b9c      	ldr	r3, [pc, #624]	@ (8007e94 <_printf_float+0x2c8>)
 8007c24:	f04f 32ff 	mov.w	r2, #4294967295	@ 0xffffffff
 8007c28:	f7f8 ffa0 	bl	8000b6c <__aeabi_dcmpun>
 8007c2c:	bb70      	cbnz	r0, 8007c8c <_printf_float+0xc0>
 8007c2e:	e9dd 0106 	ldrd	r0, r1, [sp, #24]
 8007c32:	4b98      	ldr	r3, [pc, #608]	@ (8007e94 <_printf_float+0x2c8>)
 8007c34:	f04f 32ff 	mov.w	r2, #4294967295	@ 0xffffffff
 8007c38:	f7f8 ff7a 	bl	8000b30 <__aeabi_dcmple>
 8007c3c:	bb30      	cbnz	r0, 8007c8c <_printf_float+0xc0>
 8007c3e:	2200      	movs	r2, #0
 8007c40:	2300      	movs	r3, #0
 8007c42:	4640      	mov	r0, r8
 8007c44:	4649      	mov	r1, r9
 8007c46:	f7f8 ff69 	bl	8000b1c <__aeabi_dcmplt>
 8007c4a:	b110      	cbz	r0, 8007c52 <_printf_float+0x86>
 8007c4c:	232d      	movs	r3, #45	@ 0x2d
 8007c4e:	f884 3043 	strb.w	r3, [r4, #67]	@ 0x43
 8007c52:	4a91      	ldr	r2, [pc, #580]	@ (8007e98 <_printf_float+0x2cc>)
 8007c54:	4b91      	ldr	r3, [pc, #580]	@ (8007e9c <_printf_float+0x2d0>)
 8007c56:	f1ba 0f47 	cmp.w	sl, #71	@ 0x47
 8007c5a:	bf8c      	ite	hi
 8007c5c:	4690      	movhi	r8, r2
 8007c5e:	4698      	movls	r8, r3
 8007c60:	2303      	movs	r3, #3
 8007c62:	6123      	str	r3, [r4, #16]
 8007c64:	f02b 0304 	bic.w	r3, fp, #4
 8007c68:	6023      	str	r3, [r4, #0]
 8007c6a:	f04f 0900 	mov.w	r9, #0
 8007c6e:	9700      	str	r7, [sp, #0]
 8007c70:	4633      	mov	r3, r6
 8007c72:	aa0b      	add	r2, sp, #44	@ 0x2c
 8007c74:	4621      	mov	r1, r4
 8007c76:	4628      	mov	r0, r5
 8007c78:	f000 f9d2 	bl	8008020 <_printf_common>
 8007c7c:	3001      	adds	r0, #1
 8007c7e:	f040 808d 	bne.w	8007d9c <_printf_float+0x1d0>
 8007c82:	f04f 30ff 	mov.w	r0, #4294967295	@ 0xffffffff
 8007c86:	b00d      	add	sp, #52	@ 0x34
 8007c88:	e8bd 8ff0 	ldmia.w	sp!, {r4, r5, r6, r7, r8, r9, sl, fp, pc}
 8007c8c:	4642      	mov	r2, r8
 8007c8e:	464b      	mov	r3, r9
 8007c90:	4640      	mov	r0, r8
 8007c92:	4649      	mov	r1, r9
 8007c94:	f7f8 ff6a 	bl	8000b6c <__aeabi_dcmpun>
 8007c98:	b140      	cbz	r0, 8007cac <_printf_float+0xe0>
 8007c9a:	464b      	mov	r3, r9
 8007c9c:	2b00      	cmp	r3, #0
 8007c9e:	bfbc      	itt	lt
 8007ca0:	232d      	movlt	r3, #45	@ 0x2d
 8007ca2:	f884 3043 	strblt.w	r3, [r4, #67]	@ 0x43
 8007ca6:	4a7e      	ldr	r2, [pc, #504]	@ (8007ea0 <_printf_float+0x2d4>)
 8007ca8:	4b7e      	ldr	r3, [pc, #504]	@ (8007ea4 <_printf_float+0x2d8>)
 8007caa:	e7d4      	b.n	8007c56 <_printf_float+0x8a>
 8007cac:	6863      	ldr	r3, [r4, #4]
 8007cae:	f00a 02df 	and.w	r2, sl, #223	@ 0xdf
 8007cb2:	9206      	str	r2, [sp, #24]
 8007cb4:	1c5a      	adds	r2, r3, #1
 8007cb6:	d13b      	bne.n	8007d30 <_printf_float+0x164>
 8007cb8:	2306      	movs	r3, #6
 8007cba:	6063      	str	r3, [r4, #4]
 8007cbc:	f44b 6280 	orr.w	r2, fp, #1024	@ 0x400
 8007cc0:	2300      	movs	r3, #0
 8007cc2:	6022      	str	r2, [r4, #0]
 8007cc4:	9303      	str	r3, [sp, #12]
 8007cc6:	ab0a      	add	r3, sp, #40	@ 0x28
 8007cc8:	e9cd a301 	strd	sl, r3, [sp, #4]
 8007ccc:	ab09      	add	r3, sp, #36	@ 0x24
 8007cce:	9300      	str	r3, [sp, #0]
 8007cd0:	6861      	ldr	r1, [r4, #4]
 8007cd2:	ec49 8b10 	vmov	d0, r8, r9
 8007cd6:	f10d 0323 	add.w	r3, sp, #35	@ 0x23
 8007cda:	4628      	mov	r0, r5
 8007cdc:	f7ff fed7 	bl	8007a8e <__cvt>
 8007ce0:	9b06      	ldr	r3, [sp, #24]
 8007ce2:	9909      	ldr	r1, [sp, #36]	@ 0x24
 8007ce4:	2b47      	cmp	r3, #71	@ 0x47
 8007ce6:	4680      	mov	r8, r0
 8007ce8:	d129      	bne.n	8007d3e <_printf_float+0x172>
 8007cea:	1cc8      	adds	r0, r1, #3
 8007cec:	db02      	blt.n	8007cf4 <_printf_float+0x128>
 8007cee:	6863      	ldr	r3, [r4, #4]
 8007cf0:	4299      	cmp	r1, r3
 8007cf2:	dd41      	ble.n	8007d78 <_printf_float+0x1ac>
 8007cf4:	f1aa 0a02 	sub.w	sl, sl, #2
 8007cf8:	fa5f fa8a 	uxtb.w	sl, sl
 8007cfc:	3901      	subs	r1, #1
 8007cfe:	4652      	mov	r2, sl
 8007d00:	f104 0050 	add.w	r0, r4, #80	@ 0x50
 8007d04:	9109      	str	r1, [sp, #36]	@ 0x24
 8007d06:	f7ff ff27 	bl	8007b58 <__exponent>
 8007d0a:	9a0a      	ldr	r2, [sp, #40]	@ 0x28
 8007d0c:	1813      	adds	r3, r2, r0
 8007d0e:	2a01      	cmp	r2, #1
 8007d10:	4681      	mov	r9, r0
 8007d12:	6123      	str	r3, [r4, #16]
 8007d14:	dc02      	bgt.n	8007d1c <_printf_float+0x150>
 8007d16:	6822      	ldr	r2, [r4, #0]
 8007d18:	07d2      	lsls	r2, r2, #31
 8007d1a:	d501      	bpl.n	8007d20 <_printf_float+0x154>
 8007d1c:	3301      	adds	r3, #1
 8007d1e:	6123      	str	r3, [r4, #16]
 8007d20:	f89d 3023 	ldrb.w	r3, [sp, #35]	@ 0x23
 8007d24:	2b00      	cmp	r3, #0
 8007d26:	d0a2      	beq.n	8007c6e <_printf_float+0xa2>
 8007d28:	232d      	movs	r3, #45	@ 0x2d
 8007d2a:	f884 3043 	strb.w	r3, [r4, #67]	@ 0x43
 8007d2e:	e79e      	b.n	8007c6e <_printf_float+0xa2>
 8007d30:	9a06      	ldr	r2, [sp, #24]
 8007d32:	2a47      	cmp	r2, #71	@ 0x47
 8007d34:	d1c2      	bne.n	8007cbc <_printf_float+0xf0>
 8007d36:	2b00      	cmp	r3, #0
 8007d38:	d1c0      	bne.n	8007cbc <_printf_float+0xf0>
 8007d3a:	2301      	movs	r3, #1
 8007d3c:	e7bd      	b.n	8007cba <_printf_float+0xee>
 8007d3e:	f1ba 0f65 	cmp.w	sl, #101	@ 0x65
 8007d42:	d9db      	bls.n	8007cfc <_printf_float+0x130>
 8007d44:	f1ba 0f66 	cmp.w	sl, #102	@ 0x66
 8007d48:	d118      	bne.n	8007d7c <_printf_float+0x1b0>
 8007d4a:	2900      	cmp	r1, #0
 8007d4c:	6863      	ldr	r3, [r4, #4]
 8007d4e:	dd0b      	ble.n	8007d68 <_printf_float+0x19c>
 8007d50:	6121      	str	r1, [r4, #16]
 8007d52:	b913      	cbnz	r3, 8007d5a <_printf_float+0x18e>
 8007d54:	6822      	ldr	r2, [r4, #0]
 8007d56:	07d0      	lsls	r0, r2, #31
 8007d58:	d502      	bpl.n	8007d60 <_printf_float+0x194>
 8007d5a:	3301      	adds	r3, #1
 8007d5c:	440b      	add	r3, r1
 8007d5e:	6123      	str	r3, [r4, #16]
 8007d60:	65a1      	str	r1, [r4, #88]	@ 0x58
 8007d62:	f04f 0900 	mov.w	r9, #0
 8007d66:	e7db      	b.n	8007d20 <_printf_float+0x154>
 8007d68:	b913      	cbnz	r3, 8007d70 <_printf_float+0x1a4>
 8007d6a:	6822      	ldr	r2, [r4, #0]
 8007d6c:	07d2      	lsls	r2, r2, #31
 8007d6e:	d501      	bpl.n	8007d74 <_printf_float+0x1a8>
 8007d70:	3302      	adds	r3, #2
 8007d72:	e7f4      	b.n	8007d5e <_printf_float+0x192>
 8007d74:	2301      	movs	r3, #1
 8007d76:	e7f2      	b.n	8007d5e <_printf_float+0x192>
 8007d78:	f04f 0a67 	mov.w	sl, #103	@ 0x67
 8007d7c:	9b0a      	ldr	r3, [sp, #40]	@ 0x28
 8007d7e:	4299      	cmp	r1, r3
 8007d80:	db05      	blt.n	8007d8e <_printf_float+0x1c2>
 8007d82:	6823      	ldr	r3, [r4, #0]
 8007d84:	6121      	str	r1, [r4, #16]
 8007d86:	07d8      	lsls	r0, r3, #31
 8007d88:	d5ea      	bpl.n	8007d60 <_printf_float+0x194>
 8007d8a:	1c4b      	adds	r3, r1, #1
 8007d8c:	e7e7      	b.n	8007d5e <_printf_float+0x192>
 8007d8e:	2900      	cmp	r1, #0
 8007d90:	bfd4      	ite	le
 8007d92:	f1c1 0202 	rsble	r2, r1, #2
 8007d96:	2201      	movgt	r2, #1
 8007d98:	4413      	add	r3, r2
 8007d9a:	e7e0      	b.n	8007d5e <_printf_float+0x192>
 8007d9c:	6823      	ldr	r3, [r4, #0]
 8007d9e:	055a      	lsls	r2, r3, #21
 8007da0:	d407      	bmi.n	8007db2 <_printf_float+0x1e6>
 8007da2:	6923      	ldr	r3, [r4, #16]
 8007da4:	4642      	mov	r2, r8
 8007da6:	4631      	mov	r1, r6
 8007da8:	4628      	mov	r0, r5
 8007daa:	47b8      	blx	r7
 8007dac:	3001      	adds	r0, #1
 8007dae:	d12b      	bne.n	8007e08 <_printf_float+0x23c>
 8007db0:	e767      	b.n	8007c82 <_printf_float+0xb6>
 8007db2:	f1ba 0f65 	cmp.w	sl, #101	@ 0x65
 8007db6:	f240 80dd 	bls.w	8007f74 <_printf_float+0x3a8>
 8007dba:	e9d4 0112 	ldrd	r0, r1, [r4, #72]	@ 0x48
 8007dbe:	2200      	movs	r2, #0
 8007dc0:	2300      	movs	r3, #0
 8007dc2:	f7f8 fea1 	bl	8000b08 <__aeabi_dcmpeq>
 8007dc6:	2800      	cmp	r0, #0
 8007dc8:	d033      	beq.n	8007e32 <_printf_float+0x266>
 8007dca:	4a37      	ldr	r2, [pc, #220]	@ (8007ea8 <_printf_float+0x2dc>)
 8007dcc:	2301      	movs	r3, #1
 8007dce:	4631      	mov	r1, r6
 8007dd0:	4628      	mov	r0, r5
 8007dd2:	47b8      	blx	r7
 8007dd4:	3001      	adds	r0, #1
 8007dd6:	f43f af54 	beq.w	8007c82 <_printf_float+0xb6>
 8007dda:	e9dd 3809 	ldrd	r3, r8, [sp, #36]	@ 0x24
 8007dde:	4543      	cmp	r3, r8
 8007de0:	db02      	blt.n	8007de8 <_printf_float+0x21c>
 8007de2:	6823      	ldr	r3, [r4, #0]
 8007de4:	07d8      	lsls	r0, r3, #31
 8007de6:	d50f      	bpl.n	8007e08 <_printf_float+0x23c>
 8007de8:	e9dd 2304 	ldrd	r2, r3, [sp, #16]
 8007dec:	4631      	mov	r1, r6
 8007dee:	4628      	mov	r0, r5
 8007df0:	47b8      	blx	r7
 8007df2:	3001      	adds	r0, #1
 8007df4:	f43f af45 	beq.w	8007c82 <_printf_float+0xb6>
 8007df8:	f04f 0900 	mov.w	r9, #0
 8007dfc:	f108 38ff 	add.w	r8, r8, #4294967295	@ 0xffffffff
 8007e00:	f104 0a1a 	add.w	sl, r4, #26
 8007e04:	45c8      	cmp	r8, r9
 8007e06:	dc09      	bgt.n	8007e1c <_printf_float+0x250>
 8007e08:	6823      	ldr	r3, [r4, #0]
 8007e0a:	079b      	lsls	r3, r3, #30
 8007e0c:	f100 8103 	bmi.w	8008016 <_printf_float+0x44a>
 8007e10:	68e0      	ldr	r0, [r4, #12]
 8007e12:	9b0b      	ldr	r3, [sp, #44]	@ 0x2c
 8007e14:	4298      	cmp	r0, r3
 8007e16:	bfb8      	it	lt
 8007e18:	4618      	movlt	r0, r3
 8007e1a:	e734      	b.n	8007c86 <_printf_float+0xba>
 8007e1c:	2301      	movs	r3, #1
 8007e1e:	4652      	mov	r2, sl
 8007e20:	4631      	mov	r1, r6
 8007e22:	4628      	mov	r0, r5
 8007e24:	47b8      	blx	r7
 8007e26:	3001      	adds	r0, #1
 8007e28:	f43f af2b 	beq.w	8007c82 <_printf_float+0xb6>
 8007e2c:	f109 0901 	add.w	r9, r9, #1
 8007e30:	e7e8      	b.n	8007e04 <_printf_float+0x238>
 8007e32:	9b09      	ldr	r3, [sp, #36]	@ 0x24
 8007e34:	2b00      	cmp	r3, #0
 8007e36:	dc39      	bgt.n	8007eac <_printf_float+0x2e0>
 8007e38:	4a1b      	ldr	r2, [pc, #108]	@ (8007ea8 <_printf_float+0x2dc>)
 8007e3a:	2301      	movs	r3, #1
 8007e3c:	4631      	mov	r1, r6
 8007e3e:	4628      	mov	r0, r5
 8007e40:	47b8      	blx	r7
 8007e42:	3001      	adds	r0, #1
 8007e44:	f43f af1d 	beq.w	8007c82 <_printf_float+0xb6>
 8007e48:	e9dd 3909 	ldrd	r3, r9, [sp, #36]	@ 0x24
 8007e4c:	ea59 0303 	orrs.w	r3, r9, r3
 8007e50:	d102      	bne.n	8007e58 <_printf_float+0x28c>
 8007e52:	6823      	ldr	r3, [r4, #0]
 8007e54:	07d9      	lsls	r1, r3, #31
 8007e56:	d5d7      	bpl.n	8007e08 <_printf_float+0x23c>
 8007e58:	e9dd 2304 	ldrd	r2, r3, [sp, #16]
 8007e5c:	4631      	mov	r1, r6
 8007e5e:	4628      	mov	r0, r5
 8007e60:	47b8      	blx	r7
 8007e62:	3001      	adds	r0, #1
 8007e64:	f43f af0d 	beq.w	8007c82 <_printf_float+0xb6>
 8007e68:	f04f 0a00 	mov.w	sl, #0
 8007e6c:	f104 0b1a 	add.w	fp, r4, #26
 8007e70:	9b09      	ldr	r3, [sp, #36]	@ 0x24
 8007e72:	425b      	negs	r3, r3
 8007e74:	4553      	cmp	r3, sl
 8007e76:	dc01      	bgt.n	8007e7c <_printf_float+0x2b0>
 8007e78:	464b      	mov	r3, r9
 8007e7a:	e793      	b.n	8007da4 <_printf_float+0x1d8>
 8007e7c:	2301      	movs	r3, #1
 8007e7e:	465a      	mov	r2, fp
 8007e80:	4631      	mov	r1, r6
 8007e82:	4628      	mov	r0, r5
 8007e84:	47b8      	blx	r7
 8007e86:	3001      	adds	r0, #1
 8007e88:	f43f aefb 	beq.w	8007c82 <_printf_float+0xb6>
 8007e8c:	f10a 0a01 	add.w	sl, sl, #1
 8007e90:	e7ee      	b.n	8007e70 <_printf_float+0x2a4>
 8007e92:	bf00      	nop
 8007e94:	7fefffff 	.word	0x7fefffff
 8007e98:	0800ba44 	.word	0x0800ba44
 8007e9c:	0800ba40 	.word	0x0800ba40
 8007ea0:	0800ba4c 	.word	0x0800ba4c
 8007ea4:	0800ba48 	.word	0x0800ba48
 8007ea8:	0800ba50 	.word	0x0800ba50
 8007eac:	6da3      	ldr	r3, [r4, #88]	@ 0x58
 8007eae:	f8dd a028 	ldr.w	sl, [sp, #40]	@ 0x28
 8007eb2:	4553      	cmp	r3, sl
 8007eb4:	bfa8      	it	ge
 8007eb6:	4653      	movge	r3, sl
 8007eb8:	2b00      	cmp	r3, #0
 8007eba:	4699      	mov	r9, r3
 8007ebc:	dc36      	bgt.n	8007f2c <_printf_float+0x360>
 8007ebe:	f04f 0b00 	mov.w	fp, #0
 8007ec2:	ea29 79e9 	bic.w	r9, r9, r9, asr #31
 8007ec6:	f104 021a 	add.w	r2, r4, #26
 8007eca:	6da3      	ldr	r3, [r4, #88]	@ 0x58
 8007ecc:	9306      	str	r3, [sp, #24]
 8007ece:	eba3 0309 	sub.w	r3, r3, r9
 8007ed2:	455b      	cmp	r3, fp
 8007ed4:	dc31      	bgt.n	8007f3a <_printf_float+0x36e>
 8007ed6:	9b09      	ldr	r3, [sp, #36]	@ 0x24
 8007ed8:	459a      	cmp	sl, r3
 8007eda:	dc3a      	bgt.n	8007f52 <_printf_float+0x386>
 8007edc:	6823      	ldr	r3, [r4, #0]
 8007ede:	07da      	lsls	r2, r3, #31
 8007ee0:	d437      	bmi.n	8007f52 <_printf_float+0x386>
 8007ee2:	9b09      	ldr	r3, [sp, #36]	@ 0x24
 8007ee4:	ebaa 0903 	sub.w	r9, sl, r3
 8007ee8:	9b06      	ldr	r3, [sp, #24]
 8007eea:	ebaa 0303 	sub.w	r3, sl, r3
 8007eee:	4599      	cmp	r9, r3
 8007ef0:	bfa8      	it	ge
 8007ef2:	4699      	movge	r9, r3
 8007ef4:	f1b9 0f00 	cmp.w	r9, #0
 8007ef8:	dc33      	bgt.n	8007f62 <_printf_float+0x396>
 8007efa:	f04f 0800 	mov.w	r8, #0
 8007efe:	ea29 79e9 	bic.w	r9, r9, r9, asr #31
 8007f02:	f104 0b1a 	add.w	fp, r4, #26
 8007f06:	9b09      	ldr	r3, [sp, #36]	@ 0x24
 8007f08:	ebaa 0303 	sub.w	r3, sl, r3
 8007f0c:	eba3 0309 	sub.w	r3, r3, r9
 8007f10:	4543      	cmp	r3, r8
 8007f12:	f77f af79 	ble.w	8007e08 <_printf_float+0x23c>
 8007f16:	2301      	movs	r3, #1
 8007f18:	465a      	mov	r2, fp
 8007f1a:	4631      	mov	r1, r6
 8007f1c:	4628      	mov	r0, r5
 8007f1e:	47b8      	blx	r7
 8007f20:	3001      	adds	r0, #1
 8007f22:	f43f aeae 	beq.w	8007c82 <_printf_float+0xb6>
 8007f26:	f108 0801 	add.w	r8, r8, #1
 8007f2a:	e7ec      	b.n	8007f06 <_printf_float+0x33a>
 8007f2c:	4642      	mov	r2, r8
 8007f2e:	4631      	mov	r1, r6
 8007f30:	4628      	mov	r0, r5
 8007f32:	47b8      	blx	r7
 8007f34:	3001      	adds	r0, #1
 8007f36:	d1c2      	bne.n	8007ebe <_printf_float+0x2f2>
 8007f38:	e6a3      	b.n	8007c82 <_printf_float+0xb6>
 8007f3a:	2301      	movs	r3, #1
 8007f3c:	4631      	mov	r1, r6
 8007f3e:	4628      	mov	r0, r5
 8007f40:	9206      	str	r2, [sp, #24]
 8007f42:	47b8      	blx	r7
 8007f44:	3001      	adds	r0, #1
 8007f46:	f43f ae9c 	beq.w	8007c82 <_printf_float+0xb6>
 8007f4a:	9a06      	ldr	r2, [sp, #24]
 8007f4c:	f10b 0b01 	add.w	fp, fp, #1
 8007f50:	e7bb      	b.n	8007eca <_printf_float+0x2fe>
 8007f52:	e9dd 2304 	ldrd	r2, r3, [sp, #16]
 8007f56:	4631      	mov	r1, r6
 8007f58:	4628      	mov	r0, r5
 8007f5a:	47b8      	blx	r7
 8007f5c:	3001      	adds	r0, #1
 8007f5e:	d1c0      	bne.n	8007ee2 <_printf_float+0x316>
 8007f60:	e68f      	b.n	8007c82 <_printf_float+0xb6>
 8007f62:	9a06      	ldr	r2, [sp, #24]
 8007f64:	464b      	mov	r3, r9
 8007f66:	4442      	add	r2, r8
 8007f68:	4631      	mov	r1, r6
 8007f6a:	4628      	mov	r0, r5
 8007f6c:	47b8      	blx	r7
 8007f6e:	3001      	adds	r0, #1
 8007f70:	d1c3      	bne.n	8007efa <_printf_float+0x32e>
 8007f72:	e686      	b.n	8007c82 <_printf_float+0xb6>
 8007f74:	f8dd a028 	ldr.w	sl, [sp, #40]	@ 0x28
 8007f78:	f1ba 0f01 	cmp.w	sl, #1
 8007f7c:	dc01      	bgt.n	8007f82 <_printf_float+0x3b6>
 8007f7e:	07db      	lsls	r3, r3, #31
 8007f80:	d536      	bpl.n	8007ff0 <_printf_float+0x424>
 8007f82:	2301      	movs	r3, #1
 8007f84:	4642      	mov	r2, r8
 8007f86:	4631      	mov	r1, r6
 8007f88:	4628      	mov	r0, r5
 8007f8a:	47b8      	blx	r7
 8007f8c:	3001      	adds	r0, #1
 8007f8e:	f43f ae78 	beq.w	8007c82 <_printf_float+0xb6>
 8007f92:	e9dd 2304 	ldrd	r2, r3, [sp, #16]
 8007f96:	4631      	mov	r1, r6
 8007f98:	4628      	mov	r0, r5
 8007f9a:	47b8      	blx	r7
 8007f9c:	3001      	adds	r0, #1
 8007f9e:	f43f ae70 	beq.w	8007c82 <_printf_float+0xb6>
 8007fa2:	e9d4 0112 	ldrd	r0, r1, [r4, #72]	@ 0x48
 8007fa6:	2200      	movs	r2, #0
 8007fa8:	2300      	movs	r3, #0
 8007faa:	f10a 3aff 	add.w	sl, sl, #4294967295	@ 0xffffffff
 8007fae:	f7f8 fdab 	bl	8000b08 <__aeabi_dcmpeq>
 8007fb2:	b9c0      	cbnz	r0, 8007fe6 <_printf_float+0x41a>
 8007fb4:	4653      	mov	r3, sl
 8007fb6:	f108 0201 	add.w	r2, r8, #1
 8007fba:	4631      	mov	r1, r6
 8007fbc:	4628      	mov	r0, r5
 8007fbe:	47b8      	blx	r7
 8007fc0:	3001      	adds	r0, #1
 8007fc2:	d10c      	bne.n	8007fde <_printf_float+0x412>
 8007fc4:	e65d      	b.n	8007c82 <_printf_float+0xb6>
 8007fc6:	2301      	movs	r3, #1
 8007fc8:	465a      	mov	r2, fp
 8007fca:	4631      	mov	r1, r6
 8007fcc:	4628      	mov	r0, r5
 8007fce:	47b8      	blx	r7
 8007fd0:	3001      	adds	r0, #1
 8007fd2:	f43f ae56 	beq.w	8007c82 <_printf_float+0xb6>
 8007fd6:	f108 0801 	add.w	r8, r8, #1
 8007fda:	45d0      	cmp	r8, sl
 8007fdc:	dbf3      	blt.n	8007fc6 <_printf_float+0x3fa>
 8007fde:	464b      	mov	r3, r9
 8007fe0:	f104 0250 	add.w	r2, r4, #80	@ 0x50
 8007fe4:	e6df      	b.n	8007da6 <_printf_float+0x1da>
 8007fe6:	f04f 0800 	mov.w	r8, #0
 8007fea:	f104 0b1a 	add.w	fp, r4, #26
 8007fee:	e7f4      	b.n	8007fda <_printf_float+0x40e>
 8007ff0:	2301      	movs	r3, #1
 8007ff2:	4642      	mov	r2, r8
 8007ff4:	e7e1      	b.n	8007fba <_printf_float+0x3ee>
 8007ff6:	2301      	movs	r3, #1
 8007ff8:	464a      	mov	r2, r9
 8007ffa:	4631      	mov	r1, r6
 8007ffc:	4628      	mov	r0, r5
 8007ffe:	47b8      	blx	r7
 8008000:	3001      	adds	r0, #1
 8008002:	f43f ae3e 	beq.w	8007c82 <_printf_float+0xb6>
 8008006:	f108 0801 	add.w	r8, r8, #1
 800800a:	68e3      	ldr	r3, [r4, #12]
 800800c:	990b      	ldr	r1, [sp, #44]	@ 0x2c
 800800e:	1a5b      	subs	r3, r3, r1
 8008010:	4543      	cmp	r3, r8
 8008012:	dcf0      	bgt.n	8007ff6 <_printf_float+0x42a>
 8008014:	e6fc      	b.n	8007e10 <_printf_float+0x244>
 8008016:	f04f 0800 	mov.w	r8, #0
 800801a:	f104 0919 	add.w	r9, r4, #25
 800801e:	e7f4      	b.n	800800a <_printf_float+0x43e>

08008020 <_printf_common>:
 8008020:	e92d 47f0 	stmdb	sp!, {r4, r5, r6, r7, r8, r9, sl, lr}
 8008024:	4616      	mov	r6, r2
 8008026:	4698      	mov	r8, r3
 8008028:	688a      	ldr	r2, [r1, #8]
 800802a:	690b      	ldr	r3, [r1, #16]
 800802c:	f8dd 9020 	ldr.w	r9, [sp, #32]
 8008030:	4293      	cmp	r3, r2
 8008032:	bfb8      	it	lt
 8008034:	4613      	movlt	r3, r2
 8008036:	6033      	str	r3, [r6, #0]
 8008038:	f891 2043 	ldrb.w	r2, [r1, #67]	@ 0x43
 800803c:	4607      	mov	r7, r0
 800803e:	460c      	mov	r4, r1
 8008040:	b10a      	cbz	r2, 8008046 <_printf_common+0x26>
 8008042:	3301      	adds	r3, #1
 8008044:	6033      	str	r3, [r6, #0]
 8008046:	6823      	ldr	r3, [r4, #0]
 8008048:	0699      	lsls	r1, r3, #26
 800804a:	bf42      	ittt	mi
 800804c:	6833      	ldrmi	r3, [r6, #0]
 800804e:	3302      	addmi	r3, #2
 8008050:	6033      	strmi	r3, [r6, #0]
 8008052:	6825      	ldr	r5, [r4, #0]
 8008054:	f015 0506 	ands.w	r5, r5, #6
 8008058:	d106      	bne.n	8008068 <_printf_common+0x48>
 800805a:	f104 0a19 	add.w	sl, r4, #25
 800805e:	68e3      	ldr	r3, [r4, #12]
 8008060:	6832      	ldr	r2, [r6, #0]
 8008062:	1a9b      	subs	r3, r3, r2
 8008064:	42ab      	cmp	r3, r5
 8008066:	dc26      	bgt.n	80080b6 <_printf_common+0x96>
 8008068:	f894 3043 	ldrb.w	r3, [r4, #67]	@ 0x43
 800806c:	6822      	ldr	r2, [r4, #0]
 800806e:	3b00      	subs	r3, #0
 8008070:	bf18      	it	ne
 8008072:	2301      	movne	r3, #1
 8008074:	0692      	lsls	r2, r2, #26
 8008076:	d42b      	bmi.n	80080d0 <_printf_common+0xb0>
 8008078:	f104 0243 	add.w	r2, r4, #67	@ 0x43
 800807c:	4641      	mov	r1, r8
 800807e:	4638      	mov	r0, r7
 8008080:	47c8      	blx	r9
 8008082:	3001      	adds	r0, #1
 8008084:	d01e      	beq.n	80080c4 <_printf_common+0xa4>
 8008086:	6823      	ldr	r3, [r4, #0]
 8008088:	6922      	ldr	r2, [r4, #16]
 800808a:	f003 0306 	and.w	r3, r3, #6
 800808e:	2b04      	cmp	r3, #4
 8008090:	bf02      	ittt	eq
 8008092:	68e5      	ldreq	r5, [r4, #12]
 8008094:	6833      	ldreq	r3, [r6, #0]
 8008096:	1aed      	subeq	r5, r5, r3
 8008098:	68a3      	ldr	r3, [r4, #8]
 800809a:	bf0c      	ite	eq
 800809c:	ea25 75e5 	biceq.w	r5, r5, r5, asr #31
 80080a0:	2500      	movne	r5, #0
 80080a2:	4293      	cmp	r3, r2
 80080a4:	bfc4      	itt	gt
 80080a6:	1a9b      	subgt	r3, r3, r2
 80080a8:	18ed      	addgt	r5, r5, r3
 80080aa:	2600      	movs	r6, #0
 80080ac:	341a      	adds	r4, #26
 80080ae:	42b5      	cmp	r5, r6
 80080b0:	d11a      	bne.n	80080e8 <_printf_common+0xc8>
 80080b2:	2000      	movs	r0, #0
 80080b4:	e008      	b.n	80080c8 <_printf_common+0xa8>
 80080b6:	2301      	movs	r3, #1
 80080b8:	4652      	mov	r2, sl
 80080ba:	4641      	mov	r1, r8
 80080bc:	4638      	mov	r0, r7
 80080be:	47c8      	blx	r9
 80080c0:	3001      	adds	r0, #1
 80080c2:	d103      	bne.n	80080cc <_printf_common+0xac>
 80080c4:	f04f 30ff 	mov.w	r0, #4294967295	@ 0xffffffff
 80080c8:	e8bd 87f0 	ldmia.w	sp!, {r4, r5, r6, r7, r8, r9, sl, pc}
 80080cc:	3501      	adds	r5, #1
 80080ce:	e7c6      	b.n	800805e <_printf_common+0x3e>
 80080d0:	18e1      	adds	r1, r4, r3
 80080d2:	1c5a      	adds	r2, r3, #1
 80080d4:	2030      	movs	r0, #48	@ 0x30
 80080d6:	f881 0043 	strb.w	r0, [r1, #67]	@ 0x43
 80080da:	4422      	add	r2, r4
 80080dc:	f894 1045 	ldrb.w	r1, [r4, #69]	@ 0x45
 80080e0:	f882 1043 	strb.w	r1, [r2, #67]	@ 0x43
 80080e4:	3302      	adds	r3, #2
 80080e6:	e7c7      	b.n	8008078 <_printf_common+0x58>
 80080e8:	2301      	movs	r3, #1
 80080ea:	4622      	mov	r2, r4
 80080ec:	4641      	mov	r1, r8
 80080ee:	4638      	mov	r0, r7
 80080f0:	47c8      	blx	r9
 80080f2:	3001      	adds	r0, #1
 80080f4:	d0e6      	beq.n	80080c4 <_printf_common+0xa4>
 80080f6:	3601      	adds	r6, #1
 80080f8:	e7d9      	b.n	80080ae <_printf_common+0x8e>
	...

080080fc <_printf_i>:
 80080fc:	e92d 47ff 	stmdb	sp!, {r0, r1, r2, r3, r4, r5, r6, r7, r8, r9, sl, lr}
 8008100:	7e0f      	ldrb	r7, [r1, #24]
 8008102:	9e0c      	ldr	r6, [sp, #48]	@ 0x30
 8008104:	2f78      	cmp	r7, #120	@ 0x78
 8008106:	4691      	mov	r9, r2
 8008108:	4680      	mov	r8, r0
 800810a:	460c      	mov	r4, r1
 800810c:	469a      	mov	sl, r3
 800810e:	f101 0243 	add.w	r2, r1, #67	@ 0x43
 8008112:	d807      	bhi.n	8008124 <_printf_i+0x28>
 8008114:	2f62      	cmp	r7, #98	@ 0x62
 8008116:	d80a      	bhi.n	800812e <_printf_i+0x32>
 8008118:	2f00      	cmp	r7, #0
 800811a:	f000 80d1 	beq.w	80082c0 <_printf_i+0x1c4>
 800811e:	2f58      	cmp	r7, #88	@ 0x58
 8008120:	f000 80b8 	beq.w	8008294 <_printf_i+0x198>
 8008124:	f104 0642 	add.w	r6, r4, #66	@ 0x42
 8008128:	f884 7042 	strb.w	r7, [r4, #66]	@ 0x42
 800812c:	e03a      	b.n	80081a4 <_printf_i+0xa8>
 800812e:	f1a7 0363 	sub.w	r3, r7, #99	@ 0x63
 8008132:	2b15      	cmp	r3, #21
 8008134:	d8f6      	bhi.n	8008124 <_printf_i+0x28>
 8008136:	a101      	add	r1, pc, #4	@ (adr r1, 800813c <_printf_i+0x40>)
 8008138:	f851 f023 	ldr.w	pc, [r1, r3, lsl #2]
 800813c:	08008195 	.word	0x08008195
 8008140:	080081a9 	.word	0x080081a9
 8008144:	08008125 	.word	0x08008125
 8008148:	08008125 	.word	0x08008125
 800814c:	08008125 	.word	0x08008125
 8008150:	08008125 	.word	0x08008125
 8008154:	080081a9 	.word	0x080081a9
 8008158:	08008125 	.word	0x08008125
 800815c:	08008125 	.word	0x08008125
 8008160:	08008125 	.word	0x08008125
 8008164:	08008125 	.word	0x08008125
 8008168:	080082a7 	.word	0x080082a7
 800816c:	080081d3 	.word	0x080081d3
 8008170:	08008261 	.word	0x08008261
 8008174:	08008125 	.word	0x08008125
 8008178:	08008125 	.word	0x08008125
 800817c:	080082c9 	.word	0x080082c9
 8008180:	08008125 	.word	0x08008125
 8008184:	080081d3 	.word	0x080081d3
 8008188:	08008125 	.word	0x08008125
 800818c:	08008125 	.word	0x08008125
 8008190:	08008269 	.word	0x08008269
 8008194:	6833      	ldr	r3, [r6, #0]
 8008196:	1d1a      	adds	r2, r3, #4
 8008198:	681b      	ldr	r3, [r3, #0]
 800819a:	6032      	str	r2, [r6, #0]
 800819c:	f104 0642 	add.w	r6, r4, #66	@ 0x42
 80081a0:	f884 3042 	strb.w	r3, [r4, #66]	@ 0x42
 80081a4:	2301      	movs	r3, #1
 80081a6:	e09c      	b.n	80082e2 <_printf_i+0x1e6>
 80081a8:	6833      	ldr	r3, [r6, #0]
 80081aa:	6820      	ldr	r0, [r4, #0]
 80081ac:	1d19      	adds	r1, r3, #4
 80081ae:	6031      	str	r1, [r6, #0]
 80081b0:	0606      	lsls	r6, r0, #24
 80081b2:	d501      	bpl.n	80081b8 <_printf_i+0xbc>
 80081b4:	681d      	ldr	r5, [r3, #0]
 80081b6:	e003      	b.n	80081c0 <_printf_i+0xc4>
 80081b8:	0645      	lsls	r5, r0, #25
 80081ba:	d5fb      	bpl.n	80081b4 <_printf_i+0xb8>
 80081bc:	f9b3 5000 	ldrsh.w	r5, [r3]
 80081c0:	2d00      	cmp	r5, #0
 80081c2:	da03      	bge.n	80081cc <_printf_i+0xd0>
 80081c4:	232d      	movs	r3, #45	@ 0x2d
 80081c6:	426d      	negs	r5, r5
 80081c8:	f884 3043 	strb.w	r3, [r4, #67]	@ 0x43
 80081cc:	4858      	ldr	r0, [pc, #352]	@ (8008330 <_printf_i+0x234>)
 80081ce:	230a      	movs	r3, #10
 80081d0:	e011      	b.n	80081f6 <_printf_i+0xfa>
 80081d2:	6821      	ldr	r1, [r4, #0]
 80081d4:	6833      	ldr	r3, [r6, #0]
 80081d6:	0608      	lsls	r0, r1, #24
 80081d8:	f853 5b04 	ldr.w	r5, [r3], #4
 80081dc:	d402      	bmi.n	80081e4 <_printf_i+0xe8>
 80081de:	0649      	lsls	r1, r1, #25
 80081e0:	bf48      	it	mi
 80081e2:	b2ad      	uxthmi	r5, r5
 80081e4:	2f6f      	cmp	r7, #111	@ 0x6f
 80081e6:	4852      	ldr	r0, [pc, #328]	@ (8008330 <_printf_i+0x234>)
 80081e8:	6033      	str	r3, [r6, #0]
 80081ea:	bf14      	ite	ne
 80081ec:	230a      	movne	r3, #10
 80081ee:	2308      	moveq	r3, #8
 80081f0:	2100      	movs	r1, #0
 80081f2:	f884 1043 	strb.w	r1, [r4, #67]	@ 0x43
 80081f6:	6866      	ldr	r6, [r4, #4]
 80081f8:	60a6      	str	r6, [r4, #8]
 80081fa:	2e00      	cmp	r6, #0
 80081fc:	db05      	blt.n	800820a <_printf_i+0x10e>
 80081fe:	6821      	ldr	r1, [r4, #0]
 8008200:	432e      	orrs	r6, r5
 8008202:	f021 0104 	bic.w	r1, r1, #4
 8008206:	6021      	str	r1, [r4, #0]
 8008208:	d04b      	beq.n	80082a2 <_printf_i+0x1a6>
 800820a:	4616      	mov	r6, r2
 800820c:	fbb5 f1f3 	udiv	r1, r5, r3
 8008210:	fb03 5711 	mls	r7, r3, r1, r5
 8008214:	5dc7      	ldrb	r7, [r0, r7]
 8008216:	f806 7d01 	strb.w	r7, [r6, #-1]!
 800821a:	462f      	mov	r7, r5
 800821c:	42bb      	cmp	r3, r7
 800821e:	460d      	mov	r5, r1
 8008220:	d9f4      	bls.n	800820c <_printf_i+0x110>
 8008222:	2b08      	cmp	r3, #8
 8008224:	d10b      	bne.n	800823e <_printf_i+0x142>
 8008226:	6823      	ldr	r3, [r4, #0]
 8008228:	07df      	lsls	r7, r3, #31
 800822a:	d508      	bpl.n	800823e <_printf_i+0x142>
 800822c:	6923      	ldr	r3, [r4, #16]
 800822e:	6861      	ldr	r1, [r4, #4]
 8008230:	4299      	cmp	r1, r3
 8008232:	bfde      	ittt	le
 8008234:	2330      	movle	r3, #48	@ 0x30
 8008236:	f806 3c01 	strble.w	r3, [r6, #-1]
 800823a:	f106 36ff 	addle.w	r6, r6, #4294967295	@ 0xffffffff
 800823e:	1b92      	subs	r2, r2, r6
 8008240:	6122      	str	r2, [r4, #16]
 8008242:	f8cd a000 	str.w	sl, [sp]
 8008246:	464b      	mov	r3, r9
 8008248:	aa03      	add	r2, sp, #12
 800824a:	4621      	mov	r1, r4
 800824c:	4640      	mov	r0, r8
 800824e:	f7ff fee7 	bl	8008020 <_printf_common>
 8008252:	3001      	adds	r0, #1
 8008254:	d14a      	bne.n	80082ec <_printf_i+0x1f0>
 8008256:	f04f 30ff 	mov.w	r0, #4294967295	@ 0xffffffff
 800825a:	b004      	add	sp, #16
 800825c:	e8bd 87f0 	ldmia.w	sp!, {r4, r5, r6, r7, r8, r9, sl, pc}
 8008260:	6823      	ldr	r3, [r4, #0]
 8008262:	f043 0320 	orr.w	r3, r3, #32
 8008266:	6023      	str	r3, [r4, #0]
 8008268:	4832      	ldr	r0, [pc, #200]	@ (8008334 <_printf_i+0x238>)
 800826a:	2778      	movs	r7, #120	@ 0x78
 800826c:	f884 7045 	strb.w	r7, [r4, #69]	@ 0x45
 8008270:	6823      	ldr	r3, [r4, #0]
 8008272:	6831      	ldr	r1, [r6, #0]
 8008274:	061f      	lsls	r7, r3, #24
 8008276:	f851 5b04 	ldr.w	r5, [r1], #4
 800827a:	d402      	bmi.n	8008282 <_printf_i+0x186>
 800827c:	065f      	lsls	r7, r3, #25
 800827e:	bf48      	it	mi
 8008280:	b2ad      	uxthmi	r5, r5
 8008282:	6031      	str	r1, [r6, #0]
 8008284:	07d9      	lsls	r1, r3, #31
 8008286:	bf44      	itt	mi
 8008288:	f043 0320 	orrmi.w	r3, r3, #32
 800828c:	6023      	strmi	r3, [r4, #0]
 800828e:	b11d      	cbz	r5, 8008298 <_printf_i+0x19c>
 8008290:	2310      	movs	r3, #16
 8008292:	e7ad      	b.n	80081f0 <_printf_i+0xf4>
 8008294:	4826      	ldr	r0, [pc, #152]	@ (8008330 <_printf_i+0x234>)
 8008296:	e7e9      	b.n	800826c <_printf_i+0x170>
 8008298:	6823      	ldr	r3, [r4, #0]
 800829a:	f023 0320 	bic.w	r3, r3, #32
 800829e:	6023      	str	r3, [r4, #0]
 80082a0:	e7f6      	b.n	8008290 <_printf_i+0x194>
 80082a2:	4616      	mov	r6, r2
 80082a4:	e7bd      	b.n	8008222 <_printf_i+0x126>
 80082a6:	6833      	ldr	r3, [r6, #0]
 80082a8:	6825      	ldr	r5, [r4, #0]
 80082aa:	6961      	ldr	r1, [r4, #20]
 80082ac:	1d18      	adds	r0, r3, #4
 80082ae:	6030      	str	r0, [r6, #0]
 80082b0:	062e      	lsls	r6, r5, #24
 80082b2:	681b      	ldr	r3, [r3, #0]
 80082b4:	d501      	bpl.n	80082ba <_printf_i+0x1be>
 80082b6:	6019      	str	r1, [r3, #0]
 80082b8:	e002      	b.n	80082c0 <_printf_i+0x1c4>
 80082ba:	0668      	lsls	r0, r5, #25
 80082bc:	d5fb      	bpl.n	80082b6 <_printf_i+0x1ba>
 80082be:	8019      	strh	r1, [r3, #0]
 80082c0:	2300      	movs	r3, #0
 80082c2:	6123      	str	r3, [r4, #16]
 80082c4:	4616      	mov	r6, r2
 80082c6:	e7bc      	b.n	8008242 <_printf_i+0x146>
 80082c8:	6833      	ldr	r3, [r6, #0]
 80082ca:	1d1a      	adds	r2, r3, #4
 80082cc:	6032      	str	r2, [r6, #0]
 80082ce:	681e      	ldr	r6, [r3, #0]
 80082d0:	6862      	ldr	r2, [r4, #4]
 80082d2:	2100      	movs	r1, #0
 80082d4:	4630      	mov	r0, r6
 80082d6:	f7f7 ff9b 	bl	8000210 <memchr>
 80082da:	b108      	cbz	r0, 80082e0 <_printf_i+0x1e4>
 80082dc:	1b80      	subs	r0, r0, r6
 80082de:	6060      	str	r0, [r4, #4]
 80082e0:	6863      	ldr	r3, [r4, #4]
 80082e2:	6123      	str	r3, [r4, #16]
 80082e4:	2300      	movs	r3, #0
 80082e6:	f884 3043 	strb.w	r3, [r4, #67]	@ 0x43
 80082ea:	e7aa      	b.n	8008242 <_printf_i+0x146>
 80082ec:	6923      	ldr	r3, [r4, #16]
 80082ee:	4632      	mov	r2, r6
 80082f0:	4649      	mov	r1, r9
 80082f2:	4640      	mov	r0, r8
 80082f4:	47d0      	blx	sl
 80082f6:	3001      	adds	r0, #1
 80082f8:	d0ad      	beq.n	8008256 <_printf_i+0x15a>
 80082fa:	6823      	ldr	r3, [r4, #0]
 80082fc:	079b      	lsls	r3, r3, #30
 80082fe:	d413      	bmi.n	8008328 <_printf_i+0x22c>
 8008300:	68e0      	ldr	r0, [r4, #12]
 8008302:	9b03      	ldr	r3, [sp, #12]
 8008304:	4298      	cmp	r0, r3
 8008306:	bfb8      	it	lt
 8008308:	4618      	movlt	r0, r3
 800830a:	e7a6      	b.n	800825a <_printf_i+0x15e>
 800830c:	2301      	movs	r3, #1
 800830e:	4632      	mov	r2, r6
 8008310:	4649      	mov	r1, r9
 8008312:	4640      	mov	r0, r8
 8008314:	47d0      	blx	sl
 8008316:	3001      	adds	r0, #1
 8008318:	d09d      	beq.n	8008256 <_printf_i+0x15a>
 800831a:	3501      	adds	r5, #1
 800831c:	68e3      	ldr	r3, [r4, #12]
 800831e:	9903      	ldr	r1, [sp, #12]
 8008320:	1a5b      	subs	r3, r3, r1
 8008322:	42ab      	cmp	r3, r5
 8008324:	dcf2      	bgt.n	800830c <_printf_i+0x210>
 8008326:	e7eb      	b.n	8008300 <_printf_i+0x204>
 8008328:	2500      	movs	r5, #0
 800832a:	f104 0619 	add.w	r6, r4, #25
 800832e:	e7f5      	b.n	800831c <_printf_i+0x220>
 8008330:	0800ba52 	.word	0x0800ba52
 8008334:	0800ba63 	.word	0x0800ba63

08008338 <std>:
 8008338:	2300      	movs	r3, #0
 800833a:	b510      	push	{r4, lr}
 800833c:	4604      	mov	r4, r0
 800833e:	e9c0 3300 	strd	r3, r3, [r0]
 8008342:	e9c0 3304 	strd	r3, r3, [r0, #16]
 8008346:	6083      	str	r3, [r0, #8]
 8008348:	8181      	strh	r1, [r0, #12]
 800834a:	6643      	str	r3, [r0, #100]	@ 0x64
 800834c:	81c2      	strh	r2, [r0, #14]
 800834e:	6183      	str	r3, [r0, #24]
 8008350:	4619      	mov	r1, r3
 8008352:	2208      	movs	r2, #8
 8008354:	305c      	adds	r0, #92	@ 0x5c
 8008356:	f000 ff31 	bl	80091bc <memset>
 800835a:	4b0d      	ldr	r3, [pc, #52]	@ (8008390 <std+0x58>)
 800835c:	6263      	str	r3, [r4, #36]	@ 0x24
 800835e:	4b0d      	ldr	r3, [pc, #52]	@ (8008394 <std+0x5c>)
 8008360:	62a3      	str	r3, [r4, #40]	@ 0x28
 8008362:	4b0d      	ldr	r3, [pc, #52]	@ (8008398 <std+0x60>)
 8008364:	62e3      	str	r3, [r4, #44]	@ 0x2c
 8008366:	4b0d      	ldr	r3, [pc, #52]	@ (800839c <std+0x64>)
 8008368:	6323      	str	r3, [r4, #48]	@ 0x30
 800836a:	4b0d      	ldr	r3, [pc, #52]	@ (80083a0 <std+0x68>)
 800836c:	6224      	str	r4, [r4, #32]
 800836e:	429c      	cmp	r4, r3
 8008370:	d006      	beq.n	8008380 <std+0x48>
 8008372:	f103 0268 	add.w	r2, r3, #104	@ 0x68
 8008376:	4294      	cmp	r4, r2
 8008378:	d002      	beq.n	8008380 <std+0x48>
 800837a:	33d0      	adds	r3, #208	@ 0xd0
 800837c:	429c      	cmp	r4, r3
 800837e:	d105      	bne.n	800838c <std+0x54>
 8008380:	f104 0058 	add.w	r0, r4, #88	@ 0x58
 8008384:	e8bd 4010 	ldmia.w	sp!, {r4, lr}
 8008388:	f000 bf5c 	b.w	8009244 <__retarget_lock_init_recursive>
 800838c:	bd10      	pop	{r4, pc}
 800838e:	bf00      	nop
 8008390:	0800b461 	.word	0x0800b461
 8008394:	0800b483 	.word	0x0800b483
 8008398:	0800b4bb 	.word	0x0800b4bb
 800839c:	0800b4df 	.word	0x0800b4df
 80083a0:	200051f8 	.word	0x200051f8

080083a4 <stdio_exit_handler>:
 80083a4:	4a02      	ldr	r2, [pc, #8]	@ (80083b0 <stdio_exit_handler+0xc>)
 80083a6:	4903      	ldr	r1, [pc, #12]	@ (80083b4 <stdio_exit_handler+0x10>)
 80083a8:	4803      	ldr	r0, [pc, #12]	@ (80083b8 <stdio_exit_handler+0x14>)
 80083aa:	f000 be79 	b.w	80090a0 <_fwalk_sglue>
 80083ae:	bf00      	nop
 80083b0:	20000010 	.word	0x20000010
 80083b4:	0800aaa5 	.word	0x0800aaa5
 80083b8:	2000018c 	.word	0x2000018c

080083bc <cleanup_stdio>:
 80083bc:	6841      	ldr	r1, [r0, #4]
 80083be:	4b0c      	ldr	r3, [pc, #48]	@ (80083f0 <cleanup_stdio+0x34>)
 80083c0:	4299      	cmp	r1, r3
 80083c2:	b510      	push	{r4, lr}
 80083c4:	4604      	mov	r4, r0
 80083c6:	d001      	beq.n	80083cc <cleanup_stdio+0x10>
 80083c8:	f002 fb6c 	bl	800aaa4 <_fflush_r>
 80083cc:	68a1      	ldr	r1, [r4, #8]
 80083ce:	4b09      	ldr	r3, [pc, #36]	@ (80083f4 <cleanup_stdio+0x38>)
 80083d0:	4299      	cmp	r1, r3
 80083d2:	d002      	beq.n	80083da <cleanup_stdio+0x1e>
 80083d4:	4620      	mov	r0, r4
 80083d6:	f002 fb65 	bl	800aaa4 <_fflush_r>
 80083da:	68e1      	ldr	r1, [r4, #12]
 80083dc:	4b06      	ldr	r3, [pc, #24]	@ (80083f8 <cleanup_stdio+0x3c>)
 80083de:	4299      	cmp	r1, r3
 80083e0:	d004      	beq.n	80083ec <cleanup_stdio+0x30>
 80083e2:	4620      	mov	r0, r4
 80083e4:	e8bd 4010 	ldmia.w	sp!, {r4, lr}
 80083e8:	f002 bb5c 	b.w	800aaa4 <_fflush_r>
 80083ec:	bd10      	pop	{r4, pc}
 80083ee:	bf00      	nop
 80083f0:	200051f8 	.word	0x200051f8
 80083f4:	20005260 	.word	0x20005260
 80083f8:	200052c8 	.word	0x200052c8

080083fc <global_stdio_init.part.0>:
 80083fc:	b510      	push	{r4, lr}
 80083fe:	4b0b      	ldr	r3, [pc, #44]	@ (800842c <global_stdio_init.part.0+0x30>)
 8008400:	4c0b      	ldr	r4, [pc, #44]	@ (8008430 <global_stdio_init.part.0+0x34>)
 8008402:	4a0c      	ldr	r2, [pc, #48]	@ (8008434 <global_stdio_init.part.0+0x38>)
 8008404:	601a      	str	r2, [r3, #0]
 8008406:	4620      	mov	r0, r4
 8008408:	2200      	movs	r2, #0
 800840a:	2104      	movs	r1, #4
 800840c:	f7ff ff94 	bl	8008338 <std>
 8008410:	f104 0068 	add.w	r0, r4, #104	@ 0x68
 8008414:	2201      	movs	r2, #1
 8008416:	2109      	movs	r1, #9
 8008418:	f7ff ff8e 	bl	8008338 <std>
 800841c:	f104 00d0 	add.w	r0, r4, #208	@ 0xd0
 8008420:	2202      	movs	r2, #2
 8008422:	e8bd 4010 	ldmia.w	sp!, {r4, lr}
 8008426:	2112      	movs	r1, #18
 8008428:	f7ff bf86 	b.w	8008338 <std>
 800842c:	20005330 	.word	0x20005330
 8008430:	200051f8 	.word	0x200051f8
 8008434:	080083a5 	.word	0x080083a5

08008438 <__sfp_lock_acquire>:
 8008438:	4801      	ldr	r0, [pc, #4]	@ (8008440 <__sfp_lock_acquire+0x8>)
 800843a:	f000 bf04 	b.w	8009246 <__retarget_lock_acquire_recursive>
 800843e:	bf00      	nop
 8008440:	20005335 	.word	0x20005335

08008444 <__sfp_lock_release>:
 8008444:	4801      	ldr	r0, [pc, #4]	@ (800844c <__sfp_lock_release+0x8>)
 8008446:	f000 beff 	b.w	8009248 <__retarget_lock_release_recursive>
 800844a:	bf00      	nop
 800844c:	20005335 	.word	0x20005335

08008450 <__sinit>:
 8008450:	b510      	push	{r4, lr}
 8008452:	4604      	mov	r4, r0
 8008454:	f7ff fff0 	bl	8008438 <__sfp_lock_acquire>
 8008458:	6a23      	ldr	r3, [r4, #32]
 800845a:	b11b      	cbz	r3, 8008464 <__sinit+0x14>
 800845c:	e8bd 4010 	ldmia.w	sp!, {r4, lr}
 8008460:	f7ff bff0 	b.w	8008444 <__sfp_lock_release>
 8008464:	4b04      	ldr	r3, [pc, #16]	@ (8008478 <__sinit+0x28>)
 8008466:	6223      	str	r3, [r4, #32]
 8008468:	4b04      	ldr	r3, [pc, #16]	@ (800847c <__sinit+0x2c>)
 800846a:	681b      	ldr	r3, [r3, #0]
 800846c:	2b00      	cmp	r3, #0
 800846e:	d1f5      	bne.n	800845c <__sinit+0xc>
 8008470:	f7ff ffc4 	bl	80083fc <global_stdio_init.part.0>
 8008474:	e7f2      	b.n	800845c <__sinit+0xc>
 8008476:	bf00      	nop
 8008478:	080083bd 	.word	0x080083bd
 800847c:	20005330 	.word	0x20005330

08008480 <sulp>:
 8008480:	b570      	push	{r4, r5, r6, lr}
 8008482:	4604      	mov	r4, r0
 8008484:	460d      	mov	r5, r1
 8008486:	ec45 4b10 	vmov	d0, r4, r5
 800848a:	4616      	mov	r6, r2
 800848c:	f002 feaa 	bl	800b1e4 <__ulp>
 8008490:	ec51 0b10 	vmov	r0, r1, d0
 8008494:	b17e      	cbz	r6, 80084b6 <sulp+0x36>
 8008496:	f3c5 530a 	ubfx	r3, r5, #20, #11
 800849a:	f1c3 036b 	rsb	r3, r3, #107	@ 0x6b
 800849e:	2b00      	cmp	r3, #0
 80084a0:	dd09      	ble.n	80084b6 <sulp+0x36>
 80084a2:	051b      	lsls	r3, r3, #20
 80084a4:	f103 557f 	add.w	r5, r3, #1069547520	@ 0x3fc00000
 80084a8:	2400      	movs	r4, #0
 80084aa:	f505 1540 	add.w	r5, r5, #3145728	@ 0x300000
 80084ae:	4622      	mov	r2, r4
 80084b0:	462b      	mov	r3, r5
 80084b2:	f7f8 f8c1 	bl	8000638 <__aeabi_dmul>
 80084b6:	ec41 0b10 	vmov	d0, r0, r1
 80084ba:	bd70      	pop	{r4, r5, r6, pc}
 80084bc:	0000      	movs	r0, r0
	...

080084c0 <_strtod_l>:
 80084c0:	e92d 4ff0 	stmdb	sp!, {r4, r5, r6, r7, r8, r9, sl, fp, lr}
 80084c4:	b09f      	sub	sp, #124	@ 0x7c
 80084c6:	460c      	mov	r4, r1
 80084c8:	9217      	str	r2, [sp, #92]	@ 0x5c
 80084ca:	2200      	movs	r2, #0
 80084cc:	921a      	str	r2, [sp, #104]	@ 0x68
 80084ce:	9005      	str	r0, [sp, #20]
 80084d0:	f04f 0a00 	mov.w	sl, #0
 80084d4:	f04f 0b00 	mov.w	fp, #0
 80084d8:	460a      	mov	r2, r1
 80084da:	9219      	str	r2, [sp, #100]	@ 0x64
 80084dc:	7811      	ldrb	r1, [r2, #0]
 80084de:	292b      	cmp	r1, #43	@ 0x2b
 80084e0:	d04a      	beq.n	8008578 <_strtod_l+0xb8>
 80084e2:	d838      	bhi.n	8008556 <_strtod_l+0x96>
 80084e4:	290d      	cmp	r1, #13
 80084e6:	d832      	bhi.n	800854e <_strtod_l+0x8e>
 80084e8:	2908      	cmp	r1, #8
 80084ea:	d832      	bhi.n	8008552 <_strtod_l+0x92>
 80084ec:	2900      	cmp	r1, #0
 80084ee:	d03b      	beq.n	8008568 <_strtod_l+0xa8>
 80084f0:	2200      	movs	r2, #0
 80084f2:	920e      	str	r2, [sp, #56]	@ 0x38
 80084f4:	9d19      	ldr	r5, [sp, #100]	@ 0x64
 80084f6:	782a      	ldrb	r2, [r5, #0]
 80084f8:	2a30      	cmp	r2, #48	@ 0x30
 80084fa:	f040 80b2 	bne.w	8008662 <_strtod_l+0x1a2>
 80084fe:	786a      	ldrb	r2, [r5, #1]
 8008500:	f002 02df 	and.w	r2, r2, #223	@ 0xdf
 8008504:	2a58      	cmp	r2, #88	@ 0x58
 8008506:	d16e      	bne.n	80085e6 <_strtod_l+0x126>
 8008508:	9302      	str	r3, [sp, #8]
 800850a:	9b0e      	ldr	r3, [sp, #56]	@ 0x38
 800850c:	9301      	str	r3, [sp, #4]
 800850e:	ab1a      	add	r3, sp, #104	@ 0x68
 8008510:	9300      	str	r3, [sp, #0]
 8008512:	4a8f      	ldr	r2, [pc, #572]	@ (8008750 <_strtod_l+0x290>)
 8008514:	9805      	ldr	r0, [sp, #20]
 8008516:	ab1b      	add	r3, sp, #108	@ 0x6c
 8008518:	a919      	add	r1, sp, #100	@ 0x64
 800851a:	f001 fd71 	bl	800a000 <__gethex>
 800851e:	f010 060f 	ands.w	r6, r0, #15
 8008522:	4604      	mov	r4, r0
 8008524:	d005      	beq.n	8008532 <_strtod_l+0x72>
 8008526:	2e06      	cmp	r6, #6
 8008528:	d128      	bne.n	800857c <_strtod_l+0xbc>
 800852a:	3501      	adds	r5, #1
 800852c:	2300      	movs	r3, #0
 800852e:	9519      	str	r5, [sp, #100]	@ 0x64
 8008530:	930e      	str	r3, [sp, #56]	@ 0x38
 8008532:	9b17      	ldr	r3, [sp, #92]	@ 0x5c
 8008534:	2b00      	cmp	r3, #0
 8008536:	f040 858e 	bne.w	8009056 <_strtod_l+0xb96>
 800853a:	9b0e      	ldr	r3, [sp, #56]	@ 0x38
 800853c:	b1cb      	cbz	r3, 8008572 <_strtod_l+0xb2>
 800853e:	4652      	mov	r2, sl
 8008540:	f10b 4300 	add.w	r3, fp, #2147483648	@ 0x80000000
 8008544:	ec43 2b10 	vmov	d0, r2, r3
 8008548:	b01f      	add	sp, #124	@ 0x7c
 800854a:	e8bd 8ff0 	ldmia.w	sp!, {r4, r5, r6, r7, r8, r9, sl, fp, pc}
 800854e:	2920      	cmp	r1, #32
 8008550:	d1ce      	bne.n	80084f0 <_strtod_l+0x30>
 8008552:	3201      	adds	r2, #1
 8008554:	e7c1      	b.n	80084da <_strtod_l+0x1a>
 8008556:	292d      	cmp	r1, #45	@ 0x2d
 8008558:	d1ca      	bne.n	80084f0 <_strtod_l+0x30>
 800855a:	2101      	movs	r1, #1
 800855c:	910e      	str	r1, [sp, #56]	@ 0x38
 800855e:	1c51      	adds	r1, r2, #1
 8008560:	9119      	str	r1, [sp, #100]	@ 0x64
 8008562:	7852      	ldrb	r2, [r2, #1]
 8008564:	2a00      	cmp	r2, #0
 8008566:	d1c5      	bne.n	80084f4 <_strtod_l+0x34>
 8008568:	9b17      	ldr	r3, [sp, #92]	@ 0x5c
 800856a:	9419      	str	r4, [sp, #100]	@ 0x64
 800856c:	2b00      	cmp	r3, #0
 800856e:	f040 8570 	bne.w	8009052 <_strtod_l+0xb92>
 8008572:	4652      	mov	r2, sl
 8008574:	465b      	mov	r3, fp
 8008576:	e7e5      	b.n	8008544 <_strtod_l+0x84>
 8008578:	2100      	movs	r1, #0
 800857a:	e7ef      	b.n	800855c <_strtod_l+0x9c>
 800857c:	9a1a      	ldr	r2, [sp, #104]	@ 0x68
 800857e:	b13a      	cbz	r2, 8008590 <_strtod_l+0xd0>
 8008580:	2135      	movs	r1, #53	@ 0x35
 8008582:	a81c      	add	r0, sp, #112	@ 0x70
 8008584:	f002 ff28 	bl	800b3d8 <__copybits>
 8008588:	991a      	ldr	r1, [sp, #104]	@ 0x68
 800858a:	9805      	ldr	r0, [sp, #20]
 800858c:	f002 fafe 	bl	800ab8c <_Bfree>
 8008590:	3e01      	subs	r6, #1
 8008592:	9a1b      	ldr	r2, [sp, #108]	@ 0x6c
 8008594:	2e04      	cmp	r6, #4
 8008596:	d806      	bhi.n	80085a6 <_strtod_l+0xe6>
 8008598:	e8df f006 	tbb	[pc, r6]
 800859c:	201d0314 	.word	0x201d0314
 80085a0:	14          	.byte	0x14
 80085a1:	00          	.byte	0x00
 80085a2:	e9dd ab1c 	ldrd	sl, fp, [sp, #112]	@ 0x70
 80085a6:	05e1      	lsls	r1, r4, #23
 80085a8:	bf48      	it	mi
 80085aa:	f04b 4b00 	orrmi.w	fp, fp, #2147483648	@ 0x80000000
 80085ae:	f02b 4300 	bic.w	r3, fp, #2147483648	@ 0x80000000
 80085b2:	0d1b      	lsrs	r3, r3, #20
 80085b4:	051b      	lsls	r3, r3, #20
 80085b6:	2b00      	cmp	r3, #0
 80085b8:	d1bb      	bne.n	8008532 <_strtod_l+0x72>
 80085ba:	f000 fe19 	bl	80091f0 <__errno>
 80085be:	2322      	movs	r3, #34	@ 0x22
 80085c0:	6003      	str	r3, [r0, #0]
 80085c2:	e7b6      	b.n	8008532 <_strtod_l+0x72>
 80085c4:	e9dd a31c 	ldrd	sl, r3, [sp, #112]	@ 0x70
 80085c8:	f202 4233 	addw	r2, r2, #1075	@ 0x433
 80085cc:	f423 1380 	bic.w	r3, r3, #1048576	@ 0x100000
 80085d0:	ea43 5b02 	orr.w	fp, r3, r2, lsl #20
 80085d4:	e7e7      	b.n	80085a6 <_strtod_l+0xe6>
 80085d6:	f8df b180 	ldr.w	fp, [pc, #384]	@ 8008758 <_strtod_l+0x298>
 80085da:	e7e4      	b.n	80085a6 <_strtod_l+0xe6>
 80085dc:	f06f 4b00 	mvn.w	fp, #2147483648	@ 0x80000000
 80085e0:	f04f 3aff 	mov.w	sl, #4294967295	@ 0xffffffff
 80085e4:	e7df      	b.n	80085a6 <_strtod_l+0xe6>
 80085e6:	9b19      	ldr	r3, [sp, #100]	@ 0x64
 80085e8:	1c5a      	adds	r2, r3, #1
 80085ea:	9219      	str	r2, [sp, #100]	@ 0x64
 80085ec:	785b      	ldrb	r3, [r3, #1]
 80085ee:	2b30      	cmp	r3, #48	@ 0x30
 80085f0:	d0f9      	beq.n	80085e6 <_strtod_l+0x126>
 80085f2:	2b00      	cmp	r3, #0
 80085f4:	d09d      	beq.n	8008532 <_strtod_l+0x72>
 80085f6:	2301      	movs	r3, #1
 80085f8:	2700      	movs	r7, #0
 80085fa:	9308      	str	r3, [sp, #32]
 80085fc:	9b19      	ldr	r3, [sp, #100]	@ 0x64
 80085fe:	930c      	str	r3, [sp, #48]	@ 0x30
 8008600:	970b      	str	r7, [sp, #44]	@ 0x2c
 8008602:	46b9      	mov	r9, r7
 8008604:	220a      	movs	r2, #10
 8008606:	9819      	ldr	r0, [sp, #100]	@ 0x64
 8008608:	7805      	ldrb	r5, [r0, #0]
 800860a:	f1a5 0330 	sub.w	r3, r5, #48	@ 0x30
 800860e:	b2d9      	uxtb	r1, r3
 8008610:	2909      	cmp	r1, #9
 8008612:	d928      	bls.n	8008666 <_strtod_l+0x1a6>
 8008614:	494f      	ldr	r1, [pc, #316]	@ (8008754 <_strtod_l+0x294>)
 8008616:	2201      	movs	r2, #1
 8008618:	f000 fdd8 	bl	80091cc <strncmp>
 800861c:	2800      	cmp	r0, #0
 800861e:	d032      	beq.n	8008686 <_strtod_l+0x1c6>
 8008620:	2000      	movs	r0, #0
 8008622:	462a      	mov	r2, r5
 8008624:	900a      	str	r0, [sp, #40]	@ 0x28
 8008626:	464d      	mov	r5, r9
 8008628:	4603      	mov	r3, r0
 800862a:	2a65      	cmp	r2, #101	@ 0x65
 800862c:	d001      	beq.n	8008632 <_strtod_l+0x172>
 800862e:	2a45      	cmp	r2, #69	@ 0x45
 8008630:	d114      	bne.n	800865c <_strtod_l+0x19c>
 8008632:	b91d      	cbnz	r5, 800863c <_strtod_l+0x17c>
 8008634:	9a08      	ldr	r2, [sp, #32]
 8008636:	4302      	orrs	r2, r0
 8008638:	d096      	beq.n	8008568 <_strtod_l+0xa8>
 800863a:	2500      	movs	r5, #0
 800863c:	9c19      	ldr	r4, [sp, #100]	@ 0x64
 800863e:	1c62      	adds	r2, r4, #1
 8008640:	9219      	str	r2, [sp, #100]	@ 0x64
 8008642:	7862      	ldrb	r2, [r4, #1]
 8008644:	2a2b      	cmp	r2, #43	@ 0x2b
 8008646:	d07a      	beq.n	800873e <_strtod_l+0x27e>
 8008648:	2a2d      	cmp	r2, #45	@ 0x2d
 800864a:	d07e      	beq.n	800874a <_strtod_l+0x28a>
 800864c:	f04f 0c00 	mov.w	ip, #0
 8008650:	f1a2 0130 	sub.w	r1, r2, #48	@ 0x30
 8008654:	2909      	cmp	r1, #9
 8008656:	f240 8085 	bls.w	8008764 <_strtod_l+0x2a4>
 800865a:	9419      	str	r4, [sp, #100]	@ 0x64
 800865c:	f04f 0800 	mov.w	r8, #0
 8008660:	e0a5      	b.n	80087ae <_strtod_l+0x2ee>
 8008662:	2300      	movs	r3, #0
 8008664:	e7c8      	b.n	80085f8 <_strtod_l+0x138>
 8008666:	f1b9 0f08 	cmp.w	r9, #8
 800866a:	bfd8      	it	le
 800866c:	990b      	ldrle	r1, [sp, #44]	@ 0x2c
 800866e:	f100 0001 	add.w	r0, r0, #1
 8008672:	bfda      	itte	le
 8008674:	fb02 3301 	mlale	r3, r2, r1, r3
 8008678:	930b      	strle	r3, [sp, #44]	@ 0x2c
 800867a:	fb02 3707 	mlagt	r7, r2, r7, r3
 800867e:	f109 0901 	add.w	r9, r9, #1
 8008682:	9019      	str	r0, [sp, #100]	@ 0x64
 8008684:	e7bf      	b.n	8008606 <_strtod_l+0x146>
 8008686:	9b19      	ldr	r3, [sp, #100]	@ 0x64
 8008688:	1c5a      	adds	r2, r3, #1
 800868a:	9219      	str	r2, [sp, #100]	@ 0x64
 800868c:	785a      	ldrb	r2, [r3, #1]
 800868e:	f1b9 0f00 	cmp.w	r9, #0
 8008692:	d03b      	beq.n	800870c <_strtod_l+0x24c>
 8008694:	900a      	str	r0, [sp, #40]	@ 0x28
 8008696:	464d      	mov	r5, r9
 8008698:	f1a2 0330 	sub.w	r3, r2, #48	@ 0x30
 800869c:	2b09      	cmp	r3, #9
 800869e:	d912      	bls.n	80086c6 <_strtod_l+0x206>
 80086a0:	2301      	movs	r3, #1
 80086a2:	e7c2      	b.n	800862a <_strtod_l+0x16a>
 80086a4:	9b19      	ldr	r3, [sp, #100]	@ 0x64
 80086a6:	1c5a      	adds	r2, r3, #1
 80086a8:	9219      	str	r2, [sp, #100]	@ 0x64
 80086aa:	785a      	ldrb	r2, [r3, #1]
 80086ac:	3001      	adds	r0, #1
 80086ae:	2a30      	cmp	r2, #48	@ 0x30
 80086b0:	d0f8      	beq.n	80086a4 <_strtod_l+0x1e4>
 80086b2:	f1a2 0331 	sub.w	r3, r2, #49	@ 0x31
 80086b6:	2b08      	cmp	r3, #8
 80086b8:	f200 84d2 	bhi.w	8009060 <_strtod_l+0xba0>
 80086bc:	9b19      	ldr	r3, [sp, #100]	@ 0x64
 80086be:	900a      	str	r0, [sp, #40]	@ 0x28
 80086c0:	2000      	movs	r0, #0
 80086c2:	930c      	str	r3, [sp, #48]	@ 0x30
 80086c4:	4605      	mov	r5, r0
 80086c6:	3a30      	subs	r2, #48	@ 0x30
 80086c8:	f100 0301 	add.w	r3, r0, #1
 80086cc:	d018      	beq.n	8008700 <_strtod_l+0x240>
 80086ce:	990a      	ldr	r1, [sp, #40]	@ 0x28
 80086d0:	4419      	add	r1, r3
 80086d2:	910a      	str	r1, [sp, #40]	@ 0x28
 80086d4:	462e      	mov	r6, r5
 80086d6:	f04f 0e0a 	mov.w	lr, #10
 80086da:	1c71      	adds	r1, r6, #1
 80086dc:	eba1 0c05 	sub.w	ip, r1, r5
 80086e0:	4563      	cmp	r3, ip
 80086e2:	dc15      	bgt.n	8008710 <_strtod_l+0x250>
 80086e4:	ea20 70e0 	bic.w	r0, r0, r0, asr #31
 80086e8:	182b      	adds	r3, r5, r0
 80086ea:	2b08      	cmp	r3, #8
 80086ec:	f105 0501 	add.w	r5, r5, #1
 80086f0:	4405      	add	r5, r0
 80086f2:	dc1a      	bgt.n	800872a <_strtod_l+0x26a>
 80086f4:	990b      	ldr	r1, [sp, #44]	@ 0x2c
 80086f6:	230a      	movs	r3, #10
 80086f8:	fb03 2301 	mla	r3, r3, r1, r2
 80086fc:	930b      	str	r3, [sp, #44]	@ 0x2c
 80086fe:	2300      	movs	r3, #0
 8008700:	9a19      	ldr	r2, [sp, #100]	@ 0x64
 8008702:	1c51      	adds	r1, r2, #1
 8008704:	9119      	str	r1, [sp, #100]	@ 0x64
 8008706:	7852      	ldrb	r2, [r2, #1]
 8008708:	4618      	mov	r0, r3
 800870a:	e7c5      	b.n	8008698 <_strtod_l+0x1d8>
 800870c:	4648      	mov	r0, r9
 800870e:	e7ce      	b.n	80086ae <_strtod_l+0x1ee>
 8008710:	2e08      	cmp	r6, #8
 8008712:	dc05      	bgt.n	8008720 <_strtod_l+0x260>
 8008714:	9e0b      	ldr	r6, [sp, #44]	@ 0x2c
 8008716:	fb0e f606 	mul.w	r6, lr, r6
 800871a:	960b      	str	r6, [sp, #44]	@ 0x2c
 800871c:	460e      	mov	r6, r1
 800871e:	e7dc      	b.n	80086da <_strtod_l+0x21a>
 8008720:	2910      	cmp	r1, #16
 8008722:	bfd8      	it	le
 8008724:	fb0e f707 	mulle.w	r7, lr, r7
 8008728:	e7f8      	b.n	800871c <_strtod_l+0x25c>
 800872a:	2b0f      	cmp	r3, #15
 800872c:	bfdc      	itt	le
 800872e:	230a      	movle	r3, #10
 8008730:	fb03 2707 	mlale	r7, r3, r7, r2
 8008734:	e7e3      	b.n	80086fe <_strtod_l+0x23e>
 8008736:	2300      	movs	r3, #0
 8008738:	930a      	str	r3, [sp, #40]	@ 0x28
 800873a:	2301      	movs	r3, #1
 800873c:	e77a      	b.n	8008634 <_strtod_l+0x174>
 800873e:	f04f 0c00 	mov.w	ip, #0
 8008742:	1ca2      	adds	r2, r4, #2
 8008744:	9219      	str	r2, [sp, #100]	@ 0x64
 8008746:	78a2      	ldrb	r2, [r4, #2]
 8008748:	e782      	b.n	8008650 <_strtod_l+0x190>
 800874a:	f04f 0c01 	mov.w	ip, #1
 800874e:	e7f8      	b.n	8008742 <_strtod_l+0x282>
 8008750:	0800bc28 	.word	0x0800bc28
 8008754:	0800ba74 	.word	0x0800ba74
 8008758:	7ff00000 	.word	0x7ff00000
 800875c:	9a19      	ldr	r2, [sp, #100]	@ 0x64
 800875e:	1c51      	adds	r1, r2, #1
 8008760:	9119      	str	r1, [sp, #100]	@ 0x64
 8008762:	7852      	ldrb	r2, [r2, #1]
 8008764:	2a30      	cmp	r2, #48	@ 0x30
 8008766:	d0f9      	beq.n	800875c <_strtod_l+0x29c>
 8008768:	f1a2 0131 	sub.w	r1, r2, #49	@ 0x31
 800876c:	2908      	cmp	r1, #8
 800876e:	f63f af75 	bhi.w	800865c <_strtod_l+0x19c>
 8008772:	3a30      	subs	r2, #48	@ 0x30
 8008774:	9209      	str	r2, [sp, #36]	@ 0x24
 8008776:	9a19      	ldr	r2, [sp, #100]	@ 0x64
 8008778:	920f      	str	r2, [sp, #60]	@ 0x3c
 800877a:	f04f 080a 	mov.w	r8, #10
 800877e:	9a19      	ldr	r2, [sp, #100]	@ 0x64
 8008780:	1c56      	adds	r6, r2, #1
 8008782:	9619      	str	r6, [sp, #100]	@ 0x64
 8008784:	7852      	ldrb	r2, [r2, #1]
 8008786:	f1a2 0e30 	sub.w	lr, r2, #48	@ 0x30
 800878a:	f1be 0f09 	cmp.w	lr, #9
 800878e:	d939      	bls.n	8008804 <_strtod_l+0x344>
 8008790:	990f      	ldr	r1, [sp, #60]	@ 0x3c
 8008792:	1a76      	subs	r6, r6, r1
 8008794:	2e08      	cmp	r6, #8
 8008796:	f644 681f 	movw	r8, #19999	@ 0x4e1f
 800879a:	dc03      	bgt.n	80087a4 <_strtod_l+0x2e4>
 800879c:	9909      	ldr	r1, [sp, #36]	@ 0x24
 800879e:	4588      	cmp	r8, r1
 80087a0:	bfa8      	it	ge
 80087a2:	4688      	movge	r8, r1
 80087a4:	f1bc 0f00 	cmp.w	ip, #0
 80087a8:	d001      	beq.n	80087ae <_strtod_l+0x2ee>
 80087aa:	f1c8 0800 	rsb	r8, r8, #0
 80087ae:	2d00      	cmp	r5, #0
 80087b0:	d14e      	bne.n	8008850 <_strtod_l+0x390>
 80087b2:	9908      	ldr	r1, [sp, #32]
 80087b4:	4308      	orrs	r0, r1
 80087b6:	f47f aebc 	bne.w	8008532 <_strtod_l+0x72>
 80087ba:	2b00      	cmp	r3, #0
 80087bc:	f47f aed4 	bne.w	8008568 <_strtod_l+0xa8>
 80087c0:	2a69      	cmp	r2, #105	@ 0x69
 80087c2:	d028      	beq.n	8008816 <_strtod_l+0x356>
 80087c4:	dc25      	bgt.n	8008812 <_strtod_l+0x352>
 80087c6:	2a49      	cmp	r2, #73	@ 0x49
 80087c8:	d025      	beq.n	8008816 <_strtod_l+0x356>
 80087ca:	2a4e      	cmp	r2, #78	@ 0x4e
 80087cc:	f47f aecc 	bne.w	8008568 <_strtod_l+0xa8>
 80087d0:	499a      	ldr	r1, [pc, #616]	@ (8008a3c <_strtod_l+0x57c>)
 80087d2:	a819      	add	r0, sp, #100	@ 0x64
 80087d4:	f001 fe36 	bl	800a444 <__match>
 80087d8:	2800      	cmp	r0, #0
 80087da:	f43f aec5 	beq.w	8008568 <_strtod_l+0xa8>
 80087de:	9b19      	ldr	r3, [sp, #100]	@ 0x64
 80087e0:	781b      	ldrb	r3, [r3, #0]
 80087e2:	2b28      	cmp	r3, #40	@ 0x28
 80087e4:	d12e      	bne.n	8008844 <_strtod_l+0x384>
 80087e6:	4996      	ldr	r1, [pc, #600]	@ (8008a40 <_strtod_l+0x580>)
 80087e8:	aa1c      	add	r2, sp, #112	@ 0x70
 80087ea:	a819      	add	r0, sp, #100	@ 0x64
 80087ec:	f001 fe3e 	bl	800a46c <__hexnan>
 80087f0:	2805      	cmp	r0, #5
 80087f2:	d127      	bne.n	8008844 <_strtod_l+0x384>
 80087f4:	9b1d      	ldr	r3, [sp, #116]	@ 0x74
 80087f6:	f8dd a070 	ldr.w	sl, [sp, #112]	@ 0x70
 80087fa:	f043 4bff 	orr.w	fp, r3, #2139095040	@ 0x7f800000
 80087fe:	f44b 0be0 	orr.w	fp, fp, #7340032	@ 0x700000
 8008802:	e696      	b.n	8008532 <_strtod_l+0x72>
 8008804:	9909      	ldr	r1, [sp, #36]	@ 0x24
 8008806:	fb08 2101 	mla	r1, r8, r1, r2
 800880a:	f1a1 0230 	sub.w	r2, r1, #48	@ 0x30
 800880e:	9209      	str	r2, [sp, #36]	@ 0x24
 8008810:	e7b5      	b.n	800877e <_strtod_l+0x2be>
 8008812:	2a6e      	cmp	r2, #110	@ 0x6e
 8008814:	e7da      	b.n	80087cc <_strtod_l+0x30c>
 8008816:	498b      	ldr	r1, [pc, #556]	@ (8008a44 <_strtod_l+0x584>)
 8008818:	a819      	add	r0, sp, #100	@ 0x64
 800881a:	f001 fe13 	bl	800a444 <__match>
 800881e:	2800      	cmp	r0, #0
 8008820:	f43f aea2 	beq.w	8008568 <_strtod_l+0xa8>
 8008824:	9b19      	ldr	r3, [sp, #100]	@ 0x64
 8008826:	4988      	ldr	r1, [pc, #544]	@ (8008a48 <_strtod_l+0x588>)
 8008828:	3b01      	subs	r3, #1
 800882a:	a819      	add	r0, sp, #100	@ 0x64
 800882c:	9319      	str	r3, [sp, #100]	@ 0x64
 800882e:	f001 fe09 	bl	800a444 <__match>
 8008832:	b910      	cbnz	r0, 800883a <_strtod_l+0x37a>
 8008834:	9b19      	ldr	r3, [sp, #100]	@ 0x64
 8008836:	3301      	adds	r3, #1
 8008838:	9319      	str	r3, [sp, #100]	@ 0x64
 800883a:	f8df b21c 	ldr.w	fp, [pc, #540]	@ 8008a58 <_strtod_l+0x598>
 800883e:	f04f 0a00 	mov.w	sl, #0
 8008842:	e676      	b.n	8008532 <_strtod_l+0x72>
 8008844:	4881      	ldr	r0, [pc, #516]	@ (8008a4c <_strtod_l+0x58c>)
 8008846:	f000 fd13 	bl	8009270 <nan>
 800884a:	ec5b ab10 	vmov	sl, fp, d0
 800884e:	e670      	b.n	8008532 <_strtod_l+0x72>
 8008850:	9b0a      	ldr	r3, [sp, #40]	@ 0x28
 8008852:	980b      	ldr	r0, [sp, #44]	@ 0x2c
 8008854:	eba8 0303 	sub.w	r3, r8, r3
 8008858:	f1b9 0f00 	cmp.w	r9, #0
 800885c:	bf08      	it	eq
 800885e:	46a9      	moveq	r9, r5
 8008860:	2d10      	cmp	r5, #16
 8008862:	9309      	str	r3, [sp, #36]	@ 0x24
 8008864:	462c      	mov	r4, r5
 8008866:	bfa8      	it	ge
 8008868:	2410      	movge	r4, #16
 800886a:	f7f7 fe6b 	bl	8000544 <__aeabi_ui2d>
 800886e:	2d09      	cmp	r5, #9
 8008870:	4682      	mov	sl, r0
 8008872:	468b      	mov	fp, r1
 8008874:	dc13      	bgt.n	800889e <_strtod_l+0x3de>
 8008876:	9b09      	ldr	r3, [sp, #36]	@ 0x24
 8008878:	2b00      	cmp	r3, #0
 800887a:	f43f ae5a 	beq.w	8008532 <_strtod_l+0x72>
 800887e:	9b09      	ldr	r3, [sp, #36]	@ 0x24
 8008880:	dd78      	ble.n	8008974 <_strtod_l+0x4b4>
 8008882:	2b16      	cmp	r3, #22
 8008884:	dc5f      	bgt.n	8008946 <_strtod_l+0x486>
 8008886:	4972      	ldr	r1, [pc, #456]	@ (8008a50 <_strtod_l+0x590>)
 8008888:	eb01 01c3 	add.w	r1, r1, r3, lsl #3
 800888c:	e9d1 0100 	ldrd	r0, r1, [r1]
 8008890:	4652      	mov	r2, sl
 8008892:	465b      	mov	r3, fp
 8008894:	f7f7 fed0 	bl	8000638 <__aeabi_dmul>
 8008898:	4682      	mov	sl, r0
 800889a:	468b      	mov	fp, r1
 800889c:	e649      	b.n	8008532 <_strtod_l+0x72>
 800889e:	4b6c      	ldr	r3, [pc, #432]	@ (8008a50 <_strtod_l+0x590>)
 80088a0:	eb03 03c4 	add.w	r3, r3, r4, lsl #3
 80088a4:	e953 2312 	ldrd	r2, r3, [r3, #-72]	@ 0x48
 80088a8:	f7f7 fec6 	bl	8000638 <__aeabi_dmul>
 80088ac:	4682      	mov	sl, r0
 80088ae:	4638      	mov	r0, r7
 80088b0:	468b      	mov	fp, r1
 80088b2:	f7f7 fe47 	bl	8000544 <__aeabi_ui2d>
 80088b6:	4602      	mov	r2, r0
 80088b8:	460b      	mov	r3, r1
 80088ba:	4650      	mov	r0, sl
 80088bc:	4659      	mov	r1, fp
 80088be:	f7f7 fd05 	bl	80002cc <__adddf3>
 80088c2:	2d0f      	cmp	r5, #15
 80088c4:	4682      	mov	sl, r0
 80088c6:	468b      	mov	fp, r1
 80088c8:	ddd5      	ble.n	8008876 <_strtod_l+0x3b6>
 80088ca:	9b09      	ldr	r3, [sp, #36]	@ 0x24
 80088cc:	1b2c      	subs	r4, r5, r4
 80088ce:	441c      	add	r4, r3
 80088d0:	2c00      	cmp	r4, #0
 80088d2:	f340 8093 	ble.w	80089fc <_strtod_l+0x53c>
 80088d6:	f014 030f 	ands.w	r3, r4, #15
 80088da:	d00a      	beq.n	80088f2 <_strtod_l+0x432>
 80088dc:	495c      	ldr	r1, [pc, #368]	@ (8008a50 <_strtod_l+0x590>)
 80088de:	eb01 01c3 	add.w	r1, r1, r3, lsl #3
 80088e2:	4652      	mov	r2, sl
 80088e4:	465b      	mov	r3, fp
 80088e6:	e9d1 0100 	ldrd	r0, r1, [r1]
 80088ea:	f7f7 fea5 	bl	8000638 <__aeabi_dmul>
 80088ee:	4682      	mov	sl, r0
 80088f0:	468b      	mov	fp, r1
 80088f2:	f034 040f 	bics.w	r4, r4, #15
 80088f6:	d073      	beq.n	80089e0 <_strtod_l+0x520>
 80088f8:	f5b4 7f9a 	cmp.w	r4, #308	@ 0x134
 80088fc:	dd49      	ble.n	8008992 <_strtod_l+0x4d2>
 80088fe:	2400      	movs	r4, #0
 8008900:	46a0      	mov	r8, r4
 8008902:	940b      	str	r4, [sp, #44]	@ 0x2c
 8008904:	46a1      	mov	r9, r4
 8008906:	9a05      	ldr	r2, [sp, #20]
 8008908:	f8df b14c 	ldr.w	fp, [pc, #332]	@ 8008a58 <_strtod_l+0x598>
 800890c:	2322      	movs	r3, #34	@ 0x22
 800890e:	6013      	str	r3, [r2, #0]
 8008910:	f04f 0a00 	mov.w	sl, #0
 8008914:	9b0b      	ldr	r3, [sp, #44]	@ 0x2c
 8008916:	2b00      	cmp	r3, #0
 8008918:	f43f ae0b 	beq.w	8008532 <_strtod_l+0x72>
 800891c:	991a      	ldr	r1, [sp, #104]	@ 0x68
 800891e:	9805      	ldr	r0, [sp, #20]
 8008920:	f002 f934 	bl	800ab8c <_Bfree>
 8008924:	9805      	ldr	r0, [sp, #20]
 8008926:	4649      	mov	r1, r9
 8008928:	f002 f930 	bl	800ab8c <_Bfree>
 800892c:	9805      	ldr	r0, [sp, #20]
 800892e:	4641      	mov	r1, r8
 8008930:	f002 f92c 	bl	800ab8c <_Bfree>
 8008934:	990b      	ldr	r1, [sp, #44]	@ 0x2c
 8008936:	9805      	ldr	r0, [sp, #20]
 8008938:	f002 f928 	bl	800ab8c <_Bfree>
 800893c:	9805      	ldr	r0, [sp, #20]
 800893e:	4621      	mov	r1, r4
 8008940:	f002 f924 	bl	800ab8c <_Bfree>
 8008944:	e5f5      	b.n	8008532 <_strtod_l+0x72>
 8008946:	9a09      	ldr	r2, [sp, #36]	@ 0x24
 8008948:	f1c5 0325 	rsb	r3, r5, #37	@ 0x25
 800894c:	4293      	cmp	r3, r2
 800894e:	dbbc      	blt.n	80088ca <_strtod_l+0x40a>
 8008950:	4c3f      	ldr	r4, [pc, #252]	@ (8008a50 <_strtod_l+0x590>)
 8008952:	f1c5 050f 	rsb	r5, r5, #15
 8008956:	eb04 01c5 	add.w	r1, r4, r5, lsl #3
 800895a:	4652      	mov	r2, sl
 800895c:	465b      	mov	r3, fp
 800895e:	e9d1 0100 	ldrd	r0, r1, [r1]
 8008962:	f7f7 fe69 	bl	8000638 <__aeabi_dmul>
 8008966:	9b09      	ldr	r3, [sp, #36]	@ 0x24
 8008968:	1b5d      	subs	r5, r3, r5
 800896a:	eb04 04c5 	add.w	r4, r4, r5, lsl #3
 800896e:	e9d4 2300 	ldrd	r2, r3, [r4]
 8008972:	e78f      	b.n	8008894 <_strtod_l+0x3d4>
 8008974:	3316      	adds	r3, #22
 8008976:	dba8      	blt.n	80088ca <_strtod_l+0x40a>
 8008978:	9b0a      	ldr	r3, [sp, #40]	@ 0x28
 800897a:	eba3 0808 	sub.w	r8, r3, r8
 800897e:	4b34      	ldr	r3, [pc, #208]	@ (8008a50 <_strtod_l+0x590>)
 8008980:	eb03 08c8 	add.w	r8, r3, r8, lsl #3
 8008984:	e9d8 2300 	ldrd	r2, r3, [r8]
 8008988:	4650      	mov	r0, sl
 800898a:	4659      	mov	r1, fp
 800898c:	f7f7 ff7e 	bl	800088c <__aeabi_ddiv>
 8008990:	e782      	b.n	8008898 <_strtod_l+0x3d8>
 8008992:	2300      	movs	r3, #0
 8008994:	4f2f      	ldr	r7, [pc, #188]	@ (8008a54 <_strtod_l+0x594>)
 8008996:	1124      	asrs	r4, r4, #4
 8008998:	4650      	mov	r0, sl
 800899a:	4659      	mov	r1, fp
 800899c:	461e      	mov	r6, r3
 800899e:	2c01      	cmp	r4, #1
 80089a0:	dc21      	bgt.n	80089e6 <_strtod_l+0x526>
 80089a2:	b10b      	cbz	r3, 80089a8 <_strtod_l+0x4e8>
 80089a4:	4682      	mov	sl, r0
 80089a6:	468b      	mov	fp, r1
 80089a8:	492a      	ldr	r1, [pc, #168]	@ (8008a54 <_strtod_l+0x594>)
 80089aa:	f1ab 7b54 	sub.w	fp, fp, #55574528	@ 0x3500000
 80089ae:	eb01 01c6 	add.w	r1, r1, r6, lsl #3
 80089b2:	4652      	mov	r2, sl
 80089b4:	465b      	mov	r3, fp
 80089b6:	e9d1 0100 	ldrd	r0, r1, [r1]
 80089ba:	f7f7 fe3d 	bl	8000638 <__aeabi_dmul>
 80089be:	4b26      	ldr	r3, [pc, #152]	@ (8008a58 <_strtod_l+0x598>)
 80089c0:	460a      	mov	r2, r1
 80089c2:	400b      	ands	r3, r1
 80089c4:	4925      	ldr	r1, [pc, #148]	@ (8008a5c <_strtod_l+0x59c>)
 80089c6:	428b      	cmp	r3, r1
 80089c8:	4682      	mov	sl, r0
 80089ca:	d898      	bhi.n	80088fe <_strtod_l+0x43e>
 80089cc:	f5a1 1180 	sub.w	r1, r1, #1048576	@ 0x100000
 80089d0:	428b      	cmp	r3, r1
 80089d2:	bf86      	itte	hi
 80089d4:	f8df b088 	ldrhi.w	fp, [pc, #136]	@ 8008a60 <_strtod_l+0x5a0>
 80089d8:	f04f 3aff 	movhi.w	sl, #4294967295	@ 0xffffffff
 80089dc:	f102 7b54 	addls.w	fp, r2, #55574528	@ 0x3500000
 80089e0:	2300      	movs	r3, #0
 80089e2:	9308      	str	r3, [sp, #32]
 80089e4:	e076      	b.n	8008ad4 <_strtod_l+0x614>
 80089e6:	07e2      	lsls	r2, r4, #31
 80089e8:	d504      	bpl.n	80089f4 <_strtod_l+0x534>
 80089ea:	e9d7 2300 	ldrd	r2, r3, [r7]
 80089ee:	f7f7 fe23 	bl	8000638 <__aeabi_dmul>
 80089f2:	2301      	movs	r3, #1
 80089f4:	3601      	adds	r6, #1
 80089f6:	1064      	asrs	r4, r4, #1
 80089f8:	3708      	adds	r7, #8
 80089fa:	e7d0      	b.n	800899e <_strtod_l+0x4de>
 80089fc:	d0f0      	beq.n	80089e0 <_strtod_l+0x520>
 80089fe:	4264      	negs	r4, r4
 8008a00:	f014 020f 	ands.w	r2, r4, #15
 8008a04:	d00a      	beq.n	8008a1c <_strtod_l+0x55c>
 8008a06:	4b12      	ldr	r3, [pc, #72]	@ (8008a50 <_strtod_l+0x590>)
 8008a08:	eb03 03c2 	add.w	r3, r3, r2, lsl #3
 8008a0c:	4650      	mov	r0, sl
 8008a0e:	4659      	mov	r1, fp
 8008a10:	e9d3 2300 	ldrd	r2, r3, [r3]
 8008a14:	f7f7 ff3a 	bl	800088c <__aeabi_ddiv>
 8008a18:	4682      	mov	sl, r0
 8008a1a:	468b      	mov	fp, r1
 8008a1c:	1124      	asrs	r4, r4, #4
 8008a1e:	d0df      	beq.n	80089e0 <_strtod_l+0x520>
 8008a20:	2c1f      	cmp	r4, #31
 8008a22:	dd1f      	ble.n	8008a64 <_strtod_l+0x5a4>
 8008a24:	2400      	movs	r4, #0
 8008a26:	46a0      	mov	r8, r4
 8008a28:	940b      	str	r4, [sp, #44]	@ 0x2c
 8008a2a:	46a1      	mov	r9, r4
 8008a2c:	9a05      	ldr	r2, [sp, #20]
 8008a2e:	2322      	movs	r3, #34	@ 0x22
 8008a30:	f04f 0a00 	mov.w	sl, #0
 8008a34:	f04f 0b00 	mov.w	fp, #0
 8008a38:	6013      	str	r3, [r2, #0]
 8008a3a:	e76b      	b.n	8008914 <_strtod_l+0x454>
 8008a3c:	0800ba4d 	.word	0x0800ba4d
 8008a40:	0800bc14 	.word	0x0800bc14
 8008a44:	0800ba45 	.word	0x0800ba45
 8008a48:	0800ba81 	.word	0x0800ba81
 8008a4c:	0800bc10 	.word	0x0800bc10
 8008a50:	0800bda0 	.word	0x0800bda0
 8008a54:	0800bd78 	.word	0x0800bd78
 8008a58:	7ff00000 	.word	0x7ff00000
 8008a5c:	7ca00000 	.word	0x7ca00000
 8008a60:	7fefffff 	.word	0x7fefffff
 8008a64:	f014 0310 	ands.w	r3, r4, #16
 8008a68:	bf18      	it	ne
 8008a6a:	236a      	movne	r3, #106	@ 0x6a
 8008a6c:	4ea9      	ldr	r6, [pc, #676]	@ (8008d14 <_strtod_l+0x854>)
 8008a6e:	9308      	str	r3, [sp, #32]
 8008a70:	4650      	mov	r0, sl
 8008a72:	4659      	mov	r1, fp
 8008a74:	2300      	movs	r3, #0
 8008a76:	07e7      	lsls	r7, r4, #31
 8008a78:	d504      	bpl.n	8008a84 <_strtod_l+0x5c4>
 8008a7a:	e9d6 2300 	ldrd	r2, r3, [r6]
 8008a7e:	f7f7 fddb 	bl	8000638 <__aeabi_dmul>
 8008a82:	2301      	movs	r3, #1
 8008a84:	1064      	asrs	r4, r4, #1
 8008a86:	f106 0608 	add.w	r6, r6, #8
 8008a8a:	d1f4      	bne.n	8008a76 <_strtod_l+0x5b6>
 8008a8c:	b10b      	cbz	r3, 8008a92 <_strtod_l+0x5d2>
 8008a8e:	4682      	mov	sl, r0
 8008a90:	468b      	mov	fp, r1
 8008a92:	9b08      	ldr	r3, [sp, #32]
 8008a94:	b1b3      	cbz	r3, 8008ac4 <_strtod_l+0x604>
 8008a96:	f3cb 520a 	ubfx	r2, fp, #20, #11
 8008a9a:	f1c2 036b 	rsb	r3, r2, #107	@ 0x6b
 8008a9e:	2b00      	cmp	r3, #0
 8008aa0:	4659      	mov	r1, fp
 8008aa2:	dd0f      	ble.n	8008ac4 <_strtod_l+0x604>
 8008aa4:	2b1f      	cmp	r3, #31
 8008aa6:	dd56      	ble.n	8008b56 <_strtod_l+0x696>
 8008aa8:	2b34      	cmp	r3, #52	@ 0x34
 8008aaa:	bfde      	ittt	le
 8008aac:	f04f 33ff 	movle.w	r3, #4294967295	@ 0xffffffff
 8008ab0:	f1c2 024b 	rsble	r2, r2, #75	@ 0x4b
 8008ab4:	4093      	lslle	r3, r2
 8008ab6:	f04f 0a00 	mov.w	sl, #0
 8008aba:	bfcc      	ite	gt
 8008abc:	f04f 7b5c 	movgt.w	fp, #57671680	@ 0x3700000
 8008ac0:	ea03 0b01 	andle.w	fp, r3, r1
 8008ac4:	2200      	movs	r2, #0
 8008ac6:	2300      	movs	r3, #0
 8008ac8:	4650      	mov	r0, sl
 8008aca:	4659      	mov	r1, fp
 8008acc:	f7f8 f81c 	bl	8000b08 <__aeabi_dcmpeq>
 8008ad0:	2800      	cmp	r0, #0
 8008ad2:	d1a7      	bne.n	8008a24 <_strtod_l+0x564>
 8008ad4:	9b0b      	ldr	r3, [sp, #44]	@ 0x2c
 8008ad6:	9300      	str	r3, [sp, #0]
 8008ad8:	990c      	ldr	r1, [sp, #48]	@ 0x30
 8008ada:	9805      	ldr	r0, [sp, #20]
 8008adc:	462b      	mov	r3, r5
 8008ade:	464a      	mov	r2, r9
 8008ae0:	f002 f8bc 	bl	800ac5c <__s2b>
 8008ae4:	900b      	str	r0, [sp, #44]	@ 0x2c
 8008ae6:	2800      	cmp	r0, #0
 8008ae8:	f43f af09 	beq.w	80088fe <_strtod_l+0x43e>
 8008aec:	9a09      	ldr	r2, [sp, #36]	@ 0x24
 8008aee:	9b0a      	ldr	r3, [sp, #40]	@ 0x28
 8008af0:	2a00      	cmp	r2, #0
 8008af2:	eba3 0308 	sub.w	r3, r3, r8
 8008af6:	bfa8      	it	ge
 8008af8:	2300      	movge	r3, #0
 8008afa:	9312      	str	r3, [sp, #72]	@ 0x48
 8008afc:	2400      	movs	r4, #0
 8008afe:	ea22 73e2 	bic.w	r3, r2, r2, asr #31
 8008b02:	9316      	str	r3, [sp, #88]	@ 0x58
 8008b04:	46a0      	mov	r8, r4
 8008b06:	9b0b      	ldr	r3, [sp, #44]	@ 0x2c
 8008b08:	9805      	ldr	r0, [sp, #20]
 8008b0a:	6859      	ldr	r1, [r3, #4]
 8008b0c:	f001 fffe 	bl	800ab0c <_Balloc>
 8008b10:	4681      	mov	r9, r0
 8008b12:	2800      	cmp	r0, #0
 8008b14:	f43f aef7 	beq.w	8008906 <_strtod_l+0x446>
 8008b18:	9b0b      	ldr	r3, [sp, #44]	@ 0x2c
 8008b1a:	691a      	ldr	r2, [r3, #16]
 8008b1c:	3202      	adds	r2, #2
 8008b1e:	f103 010c 	add.w	r1, r3, #12
 8008b22:	0092      	lsls	r2, r2, #2
 8008b24:	300c      	adds	r0, #12
 8008b26:	f000 fb95 	bl	8009254 <memcpy>
 8008b2a:	ec4b ab10 	vmov	d0, sl, fp
 8008b2e:	9805      	ldr	r0, [sp, #20]
 8008b30:	aa1c      	add	r2, sp, #112	@ 0x70
 8008b32:	a91b      	add	r1, sp, #108	@ 0x6c
 8008b34:	e9cd ab0c 	strd	sl, fp, [sp, #48]	@ 0x30
 8008b38:	f002 fbc4 	bl	800b2c4 <__d2b>
 8008b3c:	901a      	str	r0, [sp, #104]	@ 0x68
 8008b3e:	2800      	cmp	r0, #0
 8008b40:	f43f aee1 	beq.w	8008906 <_strtod_l+0x446>
 8008b44:	9805      	ldr	r0, [sp, #20]
 8008b46:	2101      	movs	r1, #1
 8008b48:	f002 f91e 	bl	800ad88 <__i2b>
 8008b4c:	4680      	mov	r8, r0
 8008b4e:	b948      	cbnz	r0, 8008b64 <_strtod_l+0x6a4>
 8008b50:	f04f 0800 	mov.w	r8, #0
 8008b54:	e6d7      	b.n	8008906 <_strtod_l+0x446>
 8008b56:	f04f 32ff 	mov.w	r2, #4294967295	@ 0xffffffff
 8008b5a:	fa02 f303 	lsl.w	r3, r2, r3
 8008b5e:	ea03 0a0a 	and.w	sl, r3, sl
 8008b62:	e7af      	b.n	8008ac4 <_strtod_l+0x604>
 8008b64:	9d1b      	ldr	r5, [sp, #108]	@ 0x6c
 8008b66:	9a1c      	ldr	r2, [sp, #112]	@ 0x70
 8008b68:	2d00      	cmp	r5, #0
 8008b6a:	bfab      	itete	ge
 8008b6c:	9b12      	ldrge	r3, [sp, #72]	@ 0x48
 8008b6e:	9b16      	ldrlt	r3, [sp, #88]	@ 0x58
 8008b70:	9e16      	ldrge	r6, [sp, #88]	@ 0x58
 8008b72:	9f12      	ldrlt	r7, [sp, #72]	@ 0x48
 8008b74:	bfac      	ite	ge
 8008b76:	18ef      	addge	r7, r5, r3
 8008b78:	1b5e      	sublt	r6, r3, r5
 8008b7a:	9b08      	ldr	r3, [sp, #32]
 8008b7c:	1aed      	subs	r5, r5, r3
 8008b7e:	4415      	add	r5, r2
 8008b80:	4b65      	ldr	r3, [pc, #404]	@ (8008d18 <_strtod_l+0x858>)
 8008b82:	3d01      	subs	r5, #1
 8008b84:	429d      	cmp	r5, r3
 8008b86:	f1c2 0236 	rsb	r2, r2, #54	@ 0x36
 8008b8a:	da50      	bge.n	8008c2e <_strtod_l+0x76e>
 8008b8c:	1b5b      	subs	r3, r3, r5
 8008b8e:	2b1f      	cmp	r3, #31
 8008b90:	eba2 0203 	sub.w	r2, r2, r3
 8008b94:	f04f 0101 	mov.w	r1, #1
 8008b98:	dc3d      	bgt.n	8008c16 <_strtod_l+0x756>
 8008b9a:	fa01 f303 	lsl.w	r3, r1, r3
 8008b9e:	9313      	str	r3, [sp, #76]	@ 0x4c
 8008ba0:	2300      	movs	r3, #0
 8008ba2:	9310      	str	r3, [sp, #64]	@ 0x40
 8008ba4:	18bd      	adds	r5, r7, r2
 8008ba6:	9b08      	ldr	r3, [sp, #32]
 8008ba8:	42af      	cmp	r7, r5
 8008baa:	4416      	add	r6, r2
 8008bac:	441e      	add	r6, r3
 8008bae:	463b      	mov	r3, r7
 8008bb0:	bfa8      	it	ge
 8008bb2:	462b      	movge	r3, r5
 8008bb4:	42b3      	cmp	r3, r6
 8008bb6:	bfa8      	it	ge
 8008bb8:	4633      	movge	r3, r6
 8008bba:	2b00      	cmp	r3, #0
 8008bbc:	bfc2      	ittt	gt
 8008bbe:	1aed      	subgt	r5, r5, r3
 8008bc0:	1af6      	subgt	r6, r6, r3
 8008bc2:	1aff      	subgt	r7, r7, r3
 8008bc4:	9b12      	ldr	r3, [sp, #72]	@ 0x48
 8008bc6:	2b00      	cmp	r3, #0
 8008bc8:	dd16      	ble.n	8008bf8 <_strtod_l+0x738>
 8008bca:	4641      	mov	r1, r8
 8008bcc:	9805      	ldr	r0, [sp, #20]
 8008bce:	461a      	mov	r2, r3
 8008bd0:	f002 f992 	bl	800aef8 <__pow5mult>
 8008bd4:	4680      	mov	r8, r0
 8008bd6:	2800      	cmp	r0, #0
 8008bd8:	d0ba      	beq.n	8008b50 <_strtod_l+0x690>
 8008bda:	4601      	mov	r1, r0
 8008bdc:	9a1a      	ldr	r2, [sp, #104]	@ 0x68
 8008bde:	9805      	ldr	r0, [sp, #20]
 8008be0:	f002 f8e8 	bl	800adb4 <__multiply>
 8008be4:	900a      	str	r0, [sp, #40]	@ 0x28
 8008be6:	2800      	cmp	r0, #0
 8008be8:	f43f ae8d 	beq.w	8008906 <_strtod_l+0x446>
 8008bec:	991a      	ldr	r1, [sp, #104]	@ 0x68
 8008bee:	9805      	ldr	r0, [sp, #20]
 8008bf0:	f001 ffcc 	bl	800ab8c <_Bfree>
 8008bf4:	9b0a      	ldr	r3, [sp, #40]	@ 0x28
 8008bf6:	931a      	str	r3, [sp, #104]	@ 0x68
 8008bf8:	2d00      	cmp	r5, #0
 8008bfa:	dc1d      	bgt.n	8008c38 <_strtod_l+0x778>
 8008bfc:	9b09      	ldr	r3, [sp, #36]	@ 0x24
 8008bfe:	2b00      	cmp	r3, #0
 8008c00:	dd23      	ble.n	8008c4a <_strtod_l+0x78a>
 8008c02:	4649      	mov	r1, r9
 8008c04:	9a16      	ldr	r2, [sp, #88]	@ 0x58
 8008c06:	9805      	ldr	r0, [sp, #20]
 8008c08:	f002 f976 	bl	800aef8 <__pow5mult>
 8008c0c:	4681      	mov	r9, r0
 8008c0e:	b9e0      	cbnz	r0, 8008c4a <_strtod_l+0x78a>
 8008c10:	f04f 0900 	mov.w	r9, #0
 8008c14:	e677      	b.n	8008906 <_strtod_l+0x446>
 8008c16:	f1c5 457f 	rsb	r5, r5, #4278190080	@ 0xff000000
 8008c1a:	f505 057f 	add.w	r5, r5, #16711680	@ 0xff0000
 8008c1e:	f505 457b 	add.w	r5, r5, #64256	@ 0xfb00
 8008c22:	35e2      	adds	r5, #226	@ 0xe2
 8008c24:	fa01 f305 	lsl.w	r3, r1, r5
 8008c28:	9310      	str	r3, [sp, #64]	@ 0x40
 8008c2a:	9113      	str	r1, [sp, #76]	@ 0x4c
 8008c2c:	e7ba      	b.n	8008ba4 <_strtod_l+0x6e4>
 8008c2e:	2300      	movs	r3, #0
 8008c30:	9310      	str	r3, [sp, #64]	@ 0x40
 8008c32:	2301      	movs	r3, #1
 8008c34:	9313      	str	r3, [sp, #76]	@ 0x4c
 8008c36:	e7b5      	b.n	8008ba4 <_strtod_l+0x6e4>
 8008c38:	991a      	ldr	r1, [sp, #104]	@ 0x68
 8008c3a:	9805      	ldr	r0, [sp, #20]
 8008c3c:	462a      	mov	r2, r5
 8008c3e:	f002 f9b5 	bl	800afac <__lshift>
 8008c42:	901a      	str	r0, [sp, #104]	@ 0x68
 8008c44:	2800      	cmp	r0, #0
 8008c46:	d1d9      	bne.n	8008bfc <_strtod_l+0x73c>
 8008c48:	e65d      	b.n	8008906 <_strtod_l+0x446>
 8008c4a:	2e00      	cmp	r6, #0
 8008c4c:	dd07      	ble.n	8008c5e <_strtod_l+0x79e>
 8008c4e:	4649      	mov	r1, r9
 8008c50:	9805      	ldr	r0, [sp, #20]
 8008c52:	4632      	mov	r2, r6
 8008c54:	f002 f9aa 	bl	800afac <__lshift>
 8008c58:	4681      	mov	r9, r0
 8008c5a:	2800      	cmp	r0, #0
 8008c5c:	d0d8      	beq.n	8008c10 <_strtod_l+0x750>
 8008c5e:	2f00      	cmp	r7, #0
 8008c60:	dd08      	ble.n	8008c74 <_strtod_l+0x7b4>
 8008c62:	4641      	mov	r1, r8
 8008c64:	9805      	ldr	r0, [sp, #20]
 8008c66:	463a      	mov	r2, r7
 8008c68:	f002 f9a0 	bl	800afac <__lshift>
 8008c6c:	4680      	mov	r8, r0
 8008c6e:	2800      	cmp	r0, #0
 8008c70:	f43f ae49 	beq.w	8008906 <_strtod_l+0x446>
 8008c74:	991a      	ldr	r1, [sp, #104]	@ 0x68
 8008c76:	9805      	ldr	r0, [sp, #20]
 8008c78:	464a      	mov	r2, r9
 8008c7a:	f002 fa1f 	bl	800b0bc <__mdiff>
 8008c7e:	4604      	mov	r4, r0
 8008c80:	2800      	cmp	r0, #0
 8008c82:	f43f ae40 	beq.w	8008906 <_strtod_l+0x446>
 8008c86:	68c3      	ldr	r3, [r0, #12]
 8008c88:	930f      	str	r3, [sp, #60]	@ 0x3c
 8008c8a:	2300      	movs	r3, #0
 8008c8c:	60c3      	str	r3, [r0, #12]
 8008c8e:	4641      	mov	r1, r8
 8008c90:	f002 f9f8 	bl	800b084 <__mcmp>
 8008c94:	2800      	cmp	r0, #0
 8008c96:	da45      	bge.n	8008d24 <_strtod_l+0x864>
 8008c98:	9b0f      	ldr	r3, [sp, #60]	@ 0x3c
 8008c9a:	ea53 030a 	orrs.w	r3, r3, sl
 8008c9e:	d16b      	bne.n	8008d78 <_strtod_l+0x8b8>
 8008ca0:	f3cb 0313 	ubfx	r3, fp, #0, #20
 8008ca4:	2b00      	cmp	r3, #0
 8008ca6:	d167      	bne.n	8008d78 <_strtod_l+0x8b8>
 8008ca8:	f02b 4300 	bic.w	r3, fp, #2147483648	@ 0x80000000
 8008cac:	0d1b      	lsrs	r3, r3, #20
 8008cae:	051b      	lsls	r3, r3, #20
 8008cb0:	f1b3 6fd6 	cmp.w	r3, #112197632	@ 0x6b00000
 8008cb4:	d960      	bls.n	8008d78 <_strtod_l+0x8b8>
 8008cb6:	6963      	ldr	r3, [r4, #20]
 8008cb8:	b913      	cbnz	r3, 8008cc0 <_strtod_l+0x800>
 8008cba:	6923      	ldr	r3, [r4, #16]
 8008cbc:	2b01      	cmp	r3, #1
 8008cbe:	dd5b      	ble.n	8008d78 <_strtod_l+0x8b8>
 8008cc0:	4621      	mov	r1, r4
 8008cc2:	2201      	movs	r2, #1
 8008cc4:	9805      	ldr	r0, [sp, #20]
 8008cc6:	f002 f971 	bl	800afac <__lshift>
 8008cca:	4641      	mov	r1, r8
 8008ccc:	4604      	mov	r4, r0
 8008cce:	f002 f9d9 	bl	800b084 <__mcmp>
 8008cd2:	2800      	cmp	r0, #0
 8008cd4:	dd50      	ble.n	8008d78 <_strtod_l+0x8b8>
 8008cd6:	f02b 4300 	bic.w	r3, fp, #2147483648	@ 0x80000000
 8008cda:	9a08      	ldr	r2, [sp, #32]
 8008cdc:	0d1b      	lsrs	r3, r3, #20
 8008cde:	051b      	lsls	r3, r3, #20
 8008ce0:	2a00      	cmp	r2, #0
 8008ce2:	d06a      	beq.n	8008dba <_strtod_l+0x8fa>
 8008ce4:	f1b3 6fd6 	cmp.w	r3, #112197632	@ 0x6b00000
 8008ce8:	d867      	bhi.n	8008dba <_strtod_l+0x8fa>
 8008cea:	f1b3 7f5c 	cmp.w	r3, #57671680	@ 0x3700000
 8008cee:	f67f ae9d 	bls.w	8008a2c <_strtod_l+0x56c>
 8008cf2:	4b0a      	ldr	r3, [pc, #40]	@ (8008d1c <_strtod_l+0x85c>)
 8008cf4:	4650      	mov	r0, sl
 8008cf6:	4659      	mov	r1, fp
 8008cf8:	2200      	movs	r2, #0
 8008cfa:	f7f7 fc9d 	bl	8000638 <__aeabi_dmul>
 8008cfe:	4b08      	ldr	r3, [pc, #32]	@ (8008d20 <_strtod_l+0x860>)
 8008d00:	400b      	ands	r3, r1
 8008d02:	4682      	mov	sl, r0
 8008d04:	468b      	mov	fp, r1
 8008d06:	2b00      	cmp	r3, #0
 8008d08:	f47f ae08 	bne.w	800891c <_strtod_l+0x45c>
 8008d0c:	9a05      	ldr	r2, [sp, #20]
 8008d0e:	2322      	movs	r3, #34	@ 0x22
 8008d10:	6013      	str	r3, [r2, #0]
 8008d12:	e603      	b.n	800891c <_strtod_l+0x45c>
 8008d14:	0800bc40 	.word	0x0800bc40
 8008d18:	fffffc02 	.word	0xfffffc02
 8008d1c:	39500000 	.word	0x39500000
 8008d20:	7ff00000 	.word	0x7ff00000
 8008d24:	f8cd b028 	str.w	fp, [sp, #40]	@ 0x28
 8008d28:	d165      	bne.n	8008df6 <_strtod_l+0x936>
 8008d2a:	9a0f      	ldr	r2, [sp, #60]	@ 0x3c
 8008d2c:	f3cb 0313 	ubfx	r3, fp, #0, #20
 8008d30:	b35a      	cbz	r2, 8008d8a <_strtod_l+0x8ca>
 8008d32:	4a9f      	ldr	r2, [pc, #636]	@ (8008fb0 <_strtod_l+0xaf0>)
 8008d34:	4293      	cmp	r3, r2
 8008d36:	d12b      	bne.n	8008d90 <_strtod_l+0x8d0>
 8008d38:	9b08      	ldr	r3, [sp, #32]
 8008d3a:	4651      	mov	r1, sl
 8008d3c:	b303      	cbz	r3, 8008d80 <_strtod_l+0x8c0>
 8008d3e:	4b9d      	ldr	r3, [pc, #628]	@ (8008fb4 <_strtod_l+0xaf4>)
 8008d40:	465a      	mov	r2, fp
 8008d42:	4013      	ands	r3, r2
 8008d44:	f1b3 6fd4 	cmp.w	r3, #111149056	@ 0x6a00000
 8008d48:	f04f 32ff 	mov.w	r2, #4294967295	@ 0xffffffff
 8008d4c:	d81b      	bhi.n	8008d86 <_strtod_l+0x8c6>
 8008d4e:	0d1b      	lsrs	r3, r3, #20
 8008d50:	f1c3 036b 	rsb	r3, r3, #107	@ 0x6b
 8008d54:	fa02 f303 	lsl.w	r3, r2, r3
 8008d58:	4299      	cmp	r1, r3
 8008d5a:	d119      	bne.n	8008d90 <_strtod_l+0x8d0>
 8008d5c:	4b96      	ldr	r3, [pc, #600]	@ (8008fb8 <_strtod_l+0xaf8>)
 8008d5e:	9a0a      	ldr	r2, [sp, #40]	@ 0x28
 8008d60:	429a      	cmp	r2, r3
 8008d62:	d102      	bne.n	8008d6a <_strtod_l+0x8aa>
 8008d64:	3101      	adds	r1, #1
 8008d66:	f43f adce 	beq.w	8008906 <_strtod_l+0x446>
 8008d6a:	4b92      	ldr	r3, [pc, #584]	@ (8008fb4 <_strtod_l+0xaf4>)
 8008d6c:	9a0a      	ldr	r2, [sp, #40]	@ 0x28
 8008d6e:	401a      	ands	r2, r3
 8008d70:	f502 1b80 	add.w	fp, r2, #1048576	@ 0x100000
 8008d74:	f04f 0a00 	mov.w	sl, #0
 8008d78:	9b08      	ldr	r3, [sp, #32]
 8008d7a:	2b00      	cmp	r3, #0
 8008d7c:	d1b9      	bne.n	8008cf2 <_strtod_l+0x832>
 8008d7e:	e5cd      	b.n	800891c <_strtod_l+0x45c>
 8008d80:	f04f 33ff 	mov.w	r3, #4294967295	@ 0xffffffff
 8008d84:	e7e8      	b.n	8008d58 <_strtod_l+0x898>
 8008d86:	4613      	mov	r3, r2
 8008d88:	e7e6      	b.n	8008d58 <_strtod_l+0x898>
 8008d8a:	ea53 030a 	orrs.w	r3, r3, sl
 8008d8e:	d0a2      	beq.n	8008cd6 <_strtod_l+0x816>
 8008d90:	9b10      	ldr	r3, [sp, #64]	@ 0x40
 8008d92:	b1db      	cbz	r3, 8008dcc <_strtod_l+0x90c>
 8008d94:	9a0a      	ldr	r2, [sp, #40]	@ 0x28
 8008d96:	4213      	tst	r3, r2
 8008d98:	d0ee      	beq.n	8008d78 <_strtod_l+0x8b8>
 8008d9a:	9b0f      	ldr	r3, [sp, #60]	@ 0x3c
 8008d9c:	9a08      	ldr	r2, [sp, #32]
 8008d9e:	4650      	mov	r0, sl
 8008da0:	4659      	mov	r1, fp
 8008da2:	b1bb      	cbz	r3, 8008dd4 <_strtod_l+0x914>
 8008da4:	f7ff fb6c 	bl	8008480 <sulp>
 8008da8:	e9dd 010c 	ldrd	r0, r1, [sp, #48]	@ 0x30
 8008dac:	ec53 2b10 	vmov	r2, r3, d0
 8008db0:	f7f7 fa8c 	bl	80002cc <__adddf3>
 8008db4:	4682      	mov	sl, r0
 8008db6:	468b      	mov	fp, r1
 8008db8:	e7de      	b.n	8008d78 <_strtod_l+0x8b8>
 8008dba:	f5a3 1380 	sub.w	r3, r3, #1048576	@ 0x100000
 8008dbe:	ea6f 5b13 	mvn.w	fp, r3, lsr #20
 8008dc2:	ea6f 5b0b 	mvn.w	fp, fp, lsl #20
 8008dc6:	f04f 3aff 	mov.w	sl, #4294967295	@ 0xffffffff
 8008dca:	e7d5      	b.n	8008d78 <_strtod_l+0x8b8>
 8008dcc:	9b13      	ldr	r3, [sp, #76]	@ 0x4c
 8008dce:	ea13 0f0a 	tst.w	r3, sl
 8008dd2:	e7e1      	b.n	8008d98 <_strtod_l+0x8d8>
 8008dd4:	f7ff fb54 	bl	8008480 <sulp>
 8008dd8:	e9dd 010c 	ldrd	r0, r1, [sp, #48]	@ 0x30
 8008ddc:	ec53 2b10 	vmov	r2, r3, d0
 8008de0:	f7f7 fa72 	bl	80002c8 <__aeabi_dsub>
 8008de4:	2200      	movs	r2, #0
 8008de6:	2300      	movs	r3, #0
 8008de8:	4682      	mov	sl, r0
 8008dea:	468b      	mov	fp, r1
 8008dec:	f7f7 fe8c 	bl	8000b08 <__aeabi_dcmpeq>
 8008df0:	2800      	cmp	r0, #0
 8008df2:	d0c1      	beq.n	8008d78 <_strtod_l+0x8b8>
 8008df4:	e61a      	b.n	8008a2c <_strtod_l+0x56c>
 8008df6:	4641      	mov	r1, r8
 8008df8:	4620      	mov	r0, r4
 8008dfa:	f002 fabb 	bl	800b374 <__ratio>
 8008dfe:	ec57 6b10 	vmov	r6, r7, d0
 8008e02:	2200      	movs	r2, #0
 8008e04:	f04f 4380 	mov.w	r3, #1073741824	@ 0x40000000
 8008e08:	4630      	mov	r0, r6
 8008e0a:	4639      	mov	r1, r7
 8008e0c:	f7f7 fe90 	bl	8000b30 <__aeabi_dcmple>
 8008e10:	2800      	cmp	r0, #0
 8008e12:	d06f      	beq.n	8008ef4 <_strtod_l+0xa34>
 8008e14:	9b0f      	ldr	r3, [sp, #60]	@ 0x3c
 8008e16:	2b00      	cmp	r3, #0
 8008e18:	d17a      	bne.n	8008f10 <_strtod_l+0xa50>
 8008e1a:	f1ba 0f00 	cmp.w	sl, #0
 8008e1e:	d158      	bne.n	8008ed2 <_strtod_l+0xa12>
 8008e20:	9b0a      	ldr	r3, [sp, #40]	@ 0x28
 8008e22:	f3c3 0313 	ubfx	r3, r3, #0, #20
 8008e26:	2b00      	cmp	r3, #0
 8008e28:	d15a      	bne.n	8008ee0 <_strtod_l+0xa20>
 8008e2a:	4b64      	ldr	r3, [pc, #400]	@ (8008fbc <_strtod_l+0xafc>)
 8008e2c:	2200      	movs	r2, #0
 8008e2e:	4630      	mov	r0, r6
 8008e30:	4639      	mov	r1, r7
 8008e32:	f7f7 fe73 	bl	8000b1c <__aeabi_dcmplt>
 8008e36:	2800      	cmp	r0, #0
 8008e38:	d159      	bne.n	8008eee <_strtod_l+0xa2e>
 8008e3a:	4630      	mov	r0, r6
 8008e3c:	4639      	mov	r1, r7
 8008e3e:	4b60      	ldr	r3, [pc, #384]	@ (8008fc0 <_strtod_l+0xb00>)
 8008e40:	2200      	movs	r2, #0
 8008e42:	f7f7 fbf9 	bl	8000638 <__aeabi_dmul>
 8008e46:	4606      	mov	r6, r0
 8008e48:	460f      	mov	r7, r1
 8008e4a:	f107 4300 	add.w	r3, r7, #2147483648	@ 0x80000000
 8008e4e:	9606      	str	r6, [sp, #24]
 8008e50:	9307      	str	r3, [sp, #28]
 8008e52:	e9dd 2306 	ldrd	r2, r3, [sp, #24]
 8008e56:	4d57      	ldr	r5, [pc, #348]	@ (8008fb4 <_strtod_l+0xaf4>)
 8008e58:	e9cd 2310 	strd	r2, r3, [sp, #64]	@ 0x40
 8008e5c:	9b0a      	ldr	r3, [sp, #40]	@ 0x28
 8008e5e:	401d      	ands	r5, r3
 8008e60:	4b58      	ldr	r3, [pc, #352]	@ (8008fc4 <_strtod_l+0xb04>)
 8008e62:	429d      	cmp	r5, r3
 8008e64:	f040 80b2 	bne.w	8008fcc <_strtod_l+0xb0c>
 8008e68:	9b0a      	ldr	r3, [sp, #40]	@ 0x28
 8008e6a:	f1a3 7b54 	sub.w	fp, r3, #55574528	@ 0x3500000
 8008e6e:	ec4b ab10 	vmov	d0, sl, fp
 8008e72:	f002 f9b7 	bl	800b1e4 <__ulp>
 8008e76:	e9dd 2306 	ldrd	r2, r3, [sp, #24]
 8008e7a:	ec51 0b10 	vmov	r0, r1, d0
 8008e7e:	f7f7 fbdb 	bl	8000638 <__aeabi_dmul>
 8008e82:	4652      	mov	r2, sl
 8008e84:	465b      	mov	r3, fp
 8008e86:	f7f7 fa21 	bl	80002cc <__adddf3>
 8008e8a:	460b      	mov	r3, r1
 8008e8c:	4949      	ldr	r1, [pc, #292]	@ (8008fb4 <_strtod_l+0xaf4>)
 8008e8e:	4a4e      	ldr	r2, [pc, #312]	@ (8008fc8 <_strtod_l+0xb08>)
 8008e90:	4019      	ands	r1, r3
 8008e92:	4291      	cmp	r1, r2
 8008e94:	4682      	mov	sl, r0
 8008e96:	d942      	bls.n	8008f1e <_strtod_l+0xa5e>
 8008e98:	9a0d      	ldr	r2, [sp, #52]	@ 0x34
 8008e9a:	4b47      	ldr	r3, [pc, #284]	@ (8008fb8 <_strtod_l+0xaf8>)
 8008e9c:	429a      	cmp	r2, r3
 8008e9e:	d103      	bne.n	8008ea8 <_strtod_l+0x9e8>
 8008ea0:	9b0c      	ldr	r3, [sp, #48]	@ 0x30
 8008ea2:	3301      	adds	r3, #1
 8008ea4:	f43f ad2f 	beq.w	8008906 <_strtod_l+0x446>
 8008ea8:	f8df b10c 	ldr.w	fp, [pc, #268]	@ 8008fb8 <_strtod_l+0xaf8>
 8008eac:	f04f 3aff 	mov.w	sl, #4294967295	@ 0xffffffff
 8008eb0:	991a      	ldr	r1, [sp, #104]	@ 0x68
 8008eb2:	9805      	ldr	r0, [sp, #20]
 8008eb4:	f001 fe6a 	bl	800ab8c <_Bfree>
 8008eb8:	9805      	ldr	r0, [sp, #20]
 8008eba:	4649      	mov	r1, r9
 8008ebc:	f001 fe66 	bl	800ab8c <_Bfree>
 8008ec0:	9805      	ldr	r0, [sp, #20]
 8008ec2:	4641      	mov	r1, r8
 8008ec4:	f001 fe62 	bl	800ab8c <_Bfree>
 8008ec8:	9805      	ldr	r0, [sp, #20]
 8008eca:	4621      	mov	r1, r4
 8008ecc:	f001 fe5e 	bl	800ab8c <_Bfree>
 8008ed0:	e619      	b.n	8008b06 <_strtod_l+0x646>
 8008ed2:	f1ba 0f01 	cmp.w	sl, #1
 8008ed6:	d103      	bne.n	8008ee0 <_strtod_l+0xa20>
 8008ed8:	9b0a      	ldr	r3, [sp, #40]	@ 0x28
 8008eda:	2b00      	cmp	r3, #0
 8008edc:	f43f ada6 	beq.w	8008a2c <_strtod_l+0x56c>
 8008ee0:	ed9f 7b2b 	vldr	d7, [pc, #172]	@ 8008f90 <_strtod_l+0xad0>
 8008ee4:	4f35      	ldr	r7, [pc, #212]	@ (8008fbc <_strtod_l+0xafc>)
 8008ee6:	ed8d 7b06 	vstr	d7, [sp, #24]
 8008eea:	2600      	movs	r6, #0
 8008eec:	e7b1      	b.n	8008e52 <_strtod_l+0x992>
 8008eee:	4f34      	ldr	r7, [pc, #208]	@ (8008fc0 <_strtod_l+0xb00>)
 8008ef0:	2600      	movs	r6, #0
 8008ef2:	e7aa      	b.n	8008e4a <_strtod_l+0x98a>
 8008ef4:	4b32      	ldr	r3, [pc, #200]	@ (8008fc0 <_strtod_l+0xb00>)
 8008ef6:	4630      	mov	r0, r6
 8008ef8:	4639      	mov	r1, r7
 8008efa:	2200      	movs	r2, #0
 8008efc:	f7f7 fb9c 	bl	8000638 <__aeabi_dmul>
 8008f00:	9b0f      	ldr	r3, [sp, #60]	@ 0x3c
 8008f02:	4606      	mov	r6, r0
 8008f04:	460f      	mov	r7, r1
 8008f06:	2b00      	cmp	r3, #0
 8008f08:	d09f      	beq.n	8008e4a <_strtod_l+0x98a>
 8008f0a:	e9cd 6706 	strd	r6, r7, [sp, #24]
 8008f0e:	e7a0      	b.n	8008e52 <_strtod_l+0x992>
 8008f10:	ed9f 7b21 	vldr	d7, [pc, #132]	@ 8008f98 <_strtod_l+0xad8>
 8008f14:	ed8d 7b06 	vstr	d7, [sp, #24]
 8008f18:	ec57 6b17 	vmov	r6, r7, d7
 8008f1c:	e799      	b.n	8008e52 <_strtod_l+0x992>
 8008f1e:	f103 7b54 	add.w	fp, r3, #55574528	@ 0x3500000
 8008f22:	9b08      	ldr	r3, [sp, #32]
 8008f24:	f8cd b028 	str.w	fp, [sp, #40]	@ 0x28
 8008f28:	2b00      	cmp	r3, #0
 8008f2a:	d1c1      	bne.n	8008eb0 <_strtod_l+0x9f0>
 8008f2c:	f02b 4300 	bic.w	r3, fp, #2147483648	@ 0x80000000
 8008f30:	0d1b      	lsrs	r3, r3, #20
 8008f32:	051b      	lsls	r3, r3, #20
 8008f34:	429d      	cmp	r5, r3
 8008f36:	d1bb      	bne.n	8008eb0 <_strtod_l+0x9f0>
 8008f38:	4630      	mov	r0, r6
 8008f3a:	4639      	mov	r1, r7
 8008f3c:	f7f7 fedc 	bl	8000cf8 <__aeabi_d2lz>
 8008f40:	f7f7 fb4c 	bl	80005dc <__aeabi_l2d>
 8008f44:	4602      	mov	r2, r0
 8008f46:	460b      	mov	r3, r1
 8008f48:	4630      	mov	r0, r6
 8008f4a:	4639      	mov	r1, r7
 8008f4c:	f7f7 f9bc 	bl	80002c8 <__aeabi_dsub>
 8008f50:	460b      	mov	r3, r1
 8008f52:	4602      	mov	r2, r0
 8008f54:	e9cd 230c 	strd	r2, r3, [sp, #48]	@ 0x30
 8008f58:	f3cb 0613 	ubfx	r6, fp, #0, #20
 8008f5c:	9b0f      	ldr	r3, [sp, #60]	@ 0x3c
 8008f5e:	ea46 060a 	orr.w	r6, r6, sl
 8008f62:	431e      	orrs	r6, r3
 8008f64:	d06f      	beq.n	8009046 <_strtod_l+0xb86>
 8008f66:	a30e      	add	r3, pc, #56	@ (adr r3, 8008fa0 <_strtod_l+0xae0>)
 8008f68:	e9d3 2300 	ldrd	r2, r3, [r3]
 8008f6c:	f7f7 fdd6 	bl	8000b1c <__aeabi_dcmplt>
 8008f70:	2800      	cmp	r0, #0
 8008f72:	f47f acd3 	bne.w	800891c <_strtod_l+0x45c>
 8008f76:	a30c      	add	r3, pc, #48	@ (adr r3, 8008fa8 <_strtod_l+0xae8>)
 8008f78:	e9d3 2300 	ldrd	r2, r3, [r3]
 8008f7c:	e9dd 010c 	ldrd	r0, r1, [sp, #48]	@ 0x30
 8008f80:	f7f7 fdea 	bl	8000b58 <__aeabi_dcmpgt>
 8008f84:	2800      	cmp	r0, #0
 8008f86:	d093      	beq.n	8008eb0 <_strtod_l+0x9f0>
 8008f88:	e4c8      	b.n	800891c <_strtod_l+0x45c>
 8008f8a:	bf00      	nop
 8008f8c:	f3af 8000 	nop.w
 8008f90:	00000000 	.word	0x00000000
 8008f94:	bff00000 	.word	0xbff00000
 8008f98:	00000000 	.word	0x00000000
 8008f9c:	3ff00000 	.word	0x3ff00000
 8008fa0:	94a03595 	.word	0x94a03595
 8008fa4:	3fdfffff 	.word	0x3fdfffff
 8008fa8:	35afe535 	.word	0x35afe535
 8008fac:	3fe00000 	.word	0x3fe00000
 8008fb0:	000fffff 	.word	0x000fffff
 8008fb4:	7ff00000 	.word	0x7ff00000
 8008fb8:	7fefffff 	.word	0x7fefffff
 8008fbc:	3ff00000 	.word	0x3ff00000
 8008fc0:	3fe00000 	.word	0x3fe00000
 8008fc4:	7fe00000 	.word	0x7fe00000
 8008fc8:	7c9fffff 	.word	0x7c9fffff
 8008fcc:	9b08      	ldr	r3, [sp, #32]
 8008fce:	b323      	cbz	r3, 800901a <_strtod_l+0xb5a>
 8008fd0:	f1b5 6fd4 	cmp.w	r5, #111149056	@ 0x6a00000
 8008fd4:	d821      	bhi.n	800901a <_strtod_l+0xb5a>
 8008fd6:	a328      	add	r3, pc, #160	@ (adr r3, 8009078 <_strtod_l+0xbb8>)
 8008fd8:	e9d3 2300 	ldrd	r2, r3, [r3]
 8008fdc:	4630      	mov	r0, r6
 8008fde:	4639      	mov	r1, r7
 8008fe0:	f7f7 fda6 	bl	8000b30 <__aeabi_dcmple>
 8008fe4:	b1a0      	cbz	r0, 8009010 <_strtod_l+0xb50>
 8008fe6:	4639      	mov	r1, r7
 8008fe8:	4630      	mov	r0, r6
 8008fea:	f7f7 fdfd 	bl	8000be8 <__aeabi_d2uiz>
 8008fee:	2801      	cmp	r0, #1
 8008ff0:	bf38      	it	cc
 8008ff2:	2001      	movcc	r0, #1
 8008ff4:	f7f7 faa6 	bl	8000544 <__aeabi_ui2d>
 8008ff8:	9b0f      	ldr	r3, [sp, #60]	@ 0x3c
 8008ffa:	4606      	mov	r6, r0
 8008ffc:	460f      	mov	r7, r1
 8008ffe:	b9fb      	cbnz	r3, 8009040 <_strtod_l+0xb80>
 8009000:	f101 4300 	add.w	r3, r1, #2147483648	@ 0x80000000
 8009004:	9014      	str	r0, [sp, #80]	@ 0x50
 8009006:	9315      	str	r3, [sp, #84]	@ 0x54
 8009008:	e9dd 2314 	ldrd	r2, r3, [sp, #80]	@ 0x50
 800900c:	e9cd 2310 	strd	r2, r3, [sp, #64]	@ 0x40
 8009010:	9b11      	ldr	r3, [sp, #68]	@ 0x44
 8009012:	f103 63d6 	add.w	r3, r3, #112197632	@ 0x6b00000
 8009016:	1b5b      	subs	r3, r3, r5
 8009018:	9311      	str	r3, [sp, #68]	@ 0x44
 800901a:	ed9d 0b0c 	vldr	d0, [sp, #48]	@ 0x30
 800901e:	e9dd ab10 	ldrd	sl, fp, [sp, #64]	@ 0x40
 8009022:	f002 f8df 	bl	800b1e4 <__ulp>
 8009026:	4650      	mov	r0, sl
 8009028:	ec53 2b10 	vmov	r2, r3, d0
 800902c:	4659      	mov	r1, fp
 800902e:	f7f7 fb03 	bl	8000638 <__aeabi_dmul>
 8009032:	e9dd 230c 	ldrd	r2, r3, [sp, #48]	@ 0x30
 8009036:	f7f7 f949 	bl	80002cc <__adddf3>
 800903a:	4682      	mov	sl, r0
 800903c:	468b      	mov	fp, r1
 800903e:	e770      	b.n	8008f22 <_strtod_l+0xa62>
 8009040:	e9cd 6714 	strd	r6, r7, [sp, #80]	@ 0x50
 8009044:	e7e0      	b.n	8009008 <_strtod_l+0xb48>
 8009046:	a30e      	add	r3, pc, #56	@ (adr r3, 8009080 <_strtod_l+0xbc0>)
 8009048:	e9d3 2300 	ldrd	r2, r3, [r3]
 800904c:	f7f7 fd66 	bl	8000b1c <__aeabi_dcmplt>
 8009050:	e798      	b.n	8008f84 <_strtod_l+0xac4>
 8009052:	2300      	movs	r3, #0
 8009054:	930e      	str	r3, [sp, #56]	@ 0x38
 8009056:	9a17      	ldr	r2, [sp, #92]	@ 0x5c
 8009058:	9b19      	ldr	r3, [sp, #100]	@ 0x64
 800905a:	6013      	str	r3, [r2, #0]
 800905c:	f7ff ba6d 	b.w	800853a <_strtod_l+0x7a>
 8009060:	2a65      	cmp	r2, #101	@ 0x65
 8009062:	f43f ab68 	beq.w	8008736 <_strtod_l+0x276>
 8009066:	2a45      	cmp	r2, #69	@ 0x45
 8009068:	f43f ab65 	beq.w	8008736 <_strtod_l+0x276>
 800906c:	2301      	movs	r3, #1
 800906e:	f7ff bba0 	b.w	80087b2 <_strtod_l+0x2f2>
 8009072:	bf00      	nop
 8009074:	f3af 8000 	nop.w
 8009078:	ffc00000 	.word	0xffc00000
 800907c:	41dfffff 	.word	0x41dfffff
 8009080:	94a03595 	.word	0x94a03595
 8009084:	3fcfffff 	.word	0x3fcfffff

08009088 <strtod>:
 8009088:	460a      	mov	r2, r1
 800908a:	4601      	mov	r1, r0
 800908c:	4802      	ldr	r0, [pc, #8]	@ (8009098 <strtod+0x10>)
 800908e:	4b03      	ldr	r3, [pc, #12]	@ (800909c <strtod+0x14>)
 8009090:	6800      	ldr	r0, [r0, #0]
 8009092:	f7ff ba15 	b.w	80084c0 <_strtod_l>
 8009096:	bf00      	nop
 8009098:	20000188 	.word	0x20000188
 800909c:	2000001c 	.word	0x2000001c

080090a0 <_fwalk_sglue>:
 80090a0:	e92d 43f8 	stmdb	sp!, {r3, r4, r5, r6, r7, r8, r9, lr}
 80090a4:	4607      	mov	r7, r0
 80090a6:	4688      	mov	r8, r1
 80090a8:	4614      	mov	r4, r2
 80090aa:	2600      	movs	r6, #0
 80090ac:	e9d4 9501 	ldrd	r9, r5, [r4, #4]
 80090b0:	f1b9 0901 	subs.w	r9, r9, #1
 80090b4:	d505      	bpl.n	80090c2 <_fwalk_sglue+0x22>
 80090b6:	6824      	ldr	r4, [r4, #0]
 80090b8:	2c00      	cmp	r4, #0
 80090ba:	d1f7      	bne.n	80090ac <_fwalk_sglue+0xc>
 80090bc:	4630      	mov	r0, r6
 80090be:	e8bd 83f8 	ldmia.w	sp!, {r3, r4, r5, r6, r7, r8, r9, pc}
 80090c2:	89ab      	ldrh	r3, [r5, #12]
 80090c4:	2b01      	cmp	r3, #1
 80090c6:	d907      	bls.n	80090d8 <_fwalk_sglue+0x38>
 80090c8:	f9b5 300e 	ldrsh.w	r3, [r5, #14]
 80090cc:	3301      	adds	r3, #1
 80090ce:	d003      	beq.n	80090d8 <_fwalk_sglue+0x38>
 80090d0:	4629      	mov	r1, r5
 80090d2:	4638      	mov	r0, r7
 80090d4:	47c0      	blx	r8
 80090d6:	4306      	orrs	r6, r0
 80090d8:	3568      	adds	r5, #104	@ 0x68
 80090da:	e7e9      	b.n	80090b0 <_fwalk_sglue+0x10>

080090dc <iprintf>:
 80090dc:	b40f      	push	{r0, r1, r2, r3}
 80090de:	b507      	push	{r0, r1, r2, lr}
 80090e0:	4906      	ldr	r1, [pc, #24]	@ (80090fc <iprintf+0x20>)
 80090e2:	ab04      	add	r3, sp, #16
 80090e4:	6808      	ldr	r0, [r1, #0]
 80090e6:	f853 2b04 	ldr.w	r2, [r3], #4
 80090ea:	6881      	ldr	r1, [r0, #8]
 80090ec:	9301      	str	r3, [sp, #4]
 80090ee:	f001 fa81 	bl	800a5f4 <_vfiprintf_r>
 80090f2:	b003      	add	sp, #12
 80090f4:	f85d eb04 	ldr.w	lr, [sp], #4
 80090f8:	b004      	add	sp, #16
 80090fa:	4770      	bx	lr
 80090fc:	20000188 	.word	0x20000188

08009100 <_puts_r>:
 8009100:	6a03      	ldr	r3, [r0, #32]
 8009102:	b570      	push	{r4, r5, r6, lr}
 8009104:	6884      	ldr	r4, [r0, #8]
 8009106:	4605      	mov	r5, r0
 8009108:	460e      	mov	r6, r1
 800910a:	b90b      	cbnz	r3, 8009110 <_puts_r+0x10>
 800910c:	f7ff f9a0 	bl	8008450 <__sinit>
 8009110:	6e63      	ldr	r3, [r4, #100]	@ 0x64
 8009112:	07db      	lsls	r3, r3, #31
 8009114:	d405      	bmi.n	8009122 <_puts_r+0x22>
 8009116:	89a3      	ldrh	r3, [r4, #12]
 8009118:	0598      	lsls	r0, r3, #22
 800911a:	d402      	bmi.n	8009122 <_puts_r+0x22>
 800911c:	6da0      	ldr	r0, [r4, #88]	@ 0x58
 800911e:	f000 f892 	bl	8009246 <__retarget_lock_acquire_recursive>
 8009122:	89a3      	ldrh	r3, [r4, #12]
 8009124:	0719      	lsls	r1, r3, #28
 8009126:	d502      	bpl.n	800912e <_puts_r+0x2e>
 8009128:	6923      	ldr	r3, [r4, #16]
 800912a:	2b00      	cmp	r3, #0
 800912c:	d135      	bne.n	800919a <_puts_r+0x9a>
 800912e:	4621      	mov	r1, r4
 8009130:	4628      	mov	r0, r5
 8009132:	f002 fa17 	bl	800b564 <__swsetup_r>
 8009136:	b380      	cbz	r0, 800919a <_puts_r+0x9a>
 8009138:	f04f 35ff 	mov.w	r5, #4294967295	@ 0xffffffff
 800913c:	6e63      	ldr	r3, [r4, #100]	@ 0x64
 800913e:	07da      	lsls	r2, r3, #31
 8009140:	d405      	bmi.n	800914e <_puts_r+0x4e>
 8009142:	89a3      	ldrh	r3, [r4, #12]
 8009144:	059b      	lsls	r3, r3, #22
 8009146:	d402      	bmi.n	800914e <_puts_r+0x4e>
 8009148:	6da0      	ldr	r0, [r4, #88]	@ 0x58
 800914a:	f000 f87d 	bl	8009248 <__retarget_lock_release_recursive>
 800914e:	4628      	mov	r0, r5
 8009150:	bd70      	pop	{r4, r5, r6, pc}
 8009152:	2b00      	cmp	r3, #0
 8009154:	da04      	bge.n	8009160 <_puts_r+0x60>
 8009156:	69a2      	ldr	r2, [r4, #24]
 8009158:	429a      	cmp	r2, r3
 800915a:	dc17      	bgt.n	800918c <_puts_r+0x8c>
 800915c:	290a      	cmp	r1, #10
 800915e:	d015      	beq.n	800918c <_puts_r+0x8c>
 8009160:	6823      	ldr	r3, [r4, #0]
 8009162:	1c5a      	adds	r2, r3, #1
 8009164:	6022      	str	r2, [r4, #0]
 8009166:	7019      	strb	r1, [r3, #0]
 8009168:	68a3      	ldr	r3, [r4, #8]
 800916a:	f816 1f01 	ldrb.w	r1, [r6, #1]!
 800916e:	3b01      	subs	r3, #1
 8009170:	60a3      	str	r3, [r4, #8]
 8009172:	2900      	cmp	r1, #0
 8009174:	d1ed      	bne.n	8009152 <_puts_r+0x52>
 8009176:	2b00      	cmp	r3, #0
 8009178:	da11      	bge.n	800919e <_puts_r+0x9e>
 800917a:	4622      	mov	r2, r4
 800917c:	210a      	movs	r1, #10
 800917e:	4628      	mov	r0, r5
 8009180:	f002 f9b1 	bl	800b4e6 <__swbuf_r>
 8009184:	3001      	adds	r0, #1
 8009186:	d0d7      	beq.n	8009138 <_puts_r+0x38>
 8009188:	250a      	movs	r5, #10
 800918a:	e7d7      	b.n	800913c <_puts_r+0x3c>
 800918c:	4622      	mov	r2, r4
 800918e:	4628      	mov	r0, r5
 8009190:	f002 f9a9 	bl	800b4e6 <__swbuf_r>
 8009194:	3001      	adds	r0, #1
 8009196:	d1e7      	bne.n	8009168 <_puts_r+0x68>
 8009198:	e7ce      	b.n	8009138 <_puts_r+0x38>
 800919a:	3e01      	subs	r6, #1
 800919c:	e7e4      	b.n	8009168 <_puts_r+0x68>
 800919e:	6823      	ldr	r3, [r4, #0]
 80091a0:	1c5a      	adds	r2, r3, #1
 80091a2:	6022      	str	r2, [r4, #0]
 80091a4:	220a      	movs	r2, #10
 80091a6:	701a      	strb	r2, [r3, #0]
 80091a8:	e7ee      	b.n	8009188 <_puts_r+0x88>
	...

080091ac <puts>:
 80091ac:	4b02      	ldr	r3, [pc, #8]	@ (80091b8 <puts+0xc>)
 80091ae:	4601      	mov	r1, r0
 80091b0:	6818      	ldr	r0, [r3, #0]
 80091b2:	f7ff bfa5 	b.w	8009100 <_puts_r>
 80091b6:	bf00      	nop
 80091b8:	20000188 	.word	0x20000188

080091bc <memset>:
 80091bc:	4402      	add	r2, r0
 80091be:	4603      	mov	r3, r0
 80091c0:	4293      	cmp	r3, r2
 80091c2:	d100      	bne.n	80091c6 <memset+0xa>
 80091c4:	4770      	bx	lr
 80091c6:	f803 1b01 	strb.w	r1, [r3], #1
 80091ca:	e7f9      	b.n	80091c0 <memset+0x4>

080091cc <strncmp>:
 80091cc:	b510      	push	{r4, lr}
 80091ce:	b16a      	cbz	r2, 80091ec <strncmp+0x20>
 80091d0:	3901      	subs	r1, #1
 80091d2:	1884      	adds	r4, r0, r2
 80091d4:	f810 2b01 	ldrb.w	r2, [r0], #1
 80091d8:	f811 3f01 	ldrb.w	r3, [r1, #1]!
 80091dc:	429a      	cmp	r2, r3
 80091de:	d103      	bne.n	80091e8 <strncmp+0x1c>
 80091e0:	42a0      	cmp	r0, r4
 80091e2:	d001      	beq.n	80091e8 <strncmp+0x1c>
 80091e4:	2a00      	cmp	r2, #0
 80091e6:	d1f5      	bne.n	80091d4 <strncmp+0x8>
 80091e8:	1ad0      	subs	r0, r2, r3
 80091ea:	bd10      	pop	{r4, pc}
 80091ec:	4610      	mov	r0, r2
 80091ee:	e7fc      	b.n	80091ea <strncmp+0x1e>

080091f0 <__errno>:
 80091f0:	4b01      	ldr	r3, [pc, #4]	@ (80091f8 <__errno+0x8>)
 80091f2:	6818      	ldr	r0, [r3, #0]
 80091f4:	4770      	bx	lr
 80091f6:	bf00      	nop
 80091f8:	20000188 	.word	0x20000188

080091fc <__libc_init_array>:
 80091fc:	b570      	push	{r4, r5, r6, lr}
 80091fe:	4d0d      	ldr	r5, [pc, #52]	@ (8009234 <__libc_init_array+0x38>)
 8009200:	4c0d      	ldr	r4, [pc, #52]	@ (8009238 <__libc_init_array+0x3c>)
 8009202:	1b64      	subs	r4, r4, r5
 8009204:	10a4      	asrs	r4, r4, #2
 8009206:	2600      	movs	r6, #0
 8009208:	42a6      	cmp	r6, r4
 800920a:	d109      	bne.n	8009220 <__libc_init_array+0x24>
 800920c:	4d0b      	ldr	r5, [pc, #44]	@ (800923c <__libc_init_array+0x40>)
 800920e:	4c0c      	ldr	r4, [pc, #48]	@ (8009240 <__libc_init_array+0x44>)
 8009210:	f002 fbc0 	bl	800b994 <_init>
 8009214:	1b64      	subs	r4, r4, r5
 8009216:	10a4      	asrs	r4, r4, #2
 8009218:	2600      	movs	r6, #0
 800921a:	42a6      	cmp	r6, r4
 800921c:	d105      	bne.n	800922a <__libc_init_array+0x2e>
 800921e:	bd70      	pop	{r4, r5, r6, pc}
 8009220:	f855 3b04 	ldr.w	r3, [r5], #4
 8009224:	4798      	blx	r3
 8009226:	3601      	adds	r6, #1
 8009228:	e7ee      	b.n	8009208 <__libc_init_array+0xc>
 800922a:	f855 3b04 	ldr.w	r3, [r5], #4
 800922e:	4798      	blx	r3
 8009230:	3601      	adds	r6, #1
 8009232:	e7f2      	b.n	800921a <__libc_init_array+0x1e>
 8009234:	0800be70 	.word	0x0800be70
 8009238:	0800be70 	.word	0x0800be70
 800923c:	0800be70 	.word	0x0800be70
 8009240:	0800be74 	.word	0x0800be74

08009244 <__retarget_lock_init_recursive>:
 8009244:	4770      	bx	lr

08009246 <__retarget_lock_acquire_recursive>:
 8009246:	4770      	bx	lr

08009248 <__retarget_lock_release_recursive>:
 8009248:	4770      	bx	lr
	...

0800924c <_localeconv_r>:
 800924c:	4800      	ldr	r0, [pc, #0]	@ (8009250 <_localeconv_r+0x4>)
 800924e:	4770      	bx	lr
 8009250:	2000010c 	.word	0x2000010c

08009254 <memcpy>:
 8009254:	440a      	add	r2, r1
 8009256:	4291      	cmp	r1, r2
 8009258:	f100 33ff 	add.w	r3, r0, #4294967295	@ 0xffffffff
 800925c:	d100      	bne.n	8009260 <memcpy+0xc>
 800925e:	4770      	bx	lr
 8009260:	b510      	push	{r4, lr}
 8009262:	f811 4b01 	ldrb.w	r4, [r1], #1
 8009266:	f803 4f01 	strb.w	r4, [r3, #1]!
 800926a:	4291      	cmp	r1, r2
 800926c:	d1f9      	bne.n	8009262 <memcpy+0xe>
 800926e:	bd10      	pop	{r4, pc}

08009270 <nan>:
 8009270:	ed9f 0b01 	vldr	d0, [pc, #4]	@ 8009278 <nan+0x8>
 8009274:	4770      	bx	lr
 8009276:	bf00      	nop
 8009278:	00000000 	.word	0x00000000
 800927c:	7ff80000 	.word	0x7ff80000

08009280 <quorem>:
 8009280:	e92d 4ff7 	stmdb	sp!, {r0, r1, r2, r4, r5, r6, r7, r8, r9, sl, fp, lr}
 8009284:	6903      	ldr	r3, [r0, #16]
 8009286:	690c      	ldr	r4, [r1, #16]
 8009288:	42a3      	cmp	r3, r4
 800928a:	4607      	mov	r7, r0
 800928c:	db7e      	blt.n	800938c <quorem+0x10c>
 800928e:	3c01      	subs	r4, #1
 8009290:	f101 0814 	add.w	r8, r1, #20
 8009294:	00a3      	lsls	r3, r4, #2
 8009296:	f100 0514 	add.w	r5, r0, #20
 800929a:	9300      	str	r3, [sp, #0]
 800929c:	eb05 0384 	add.w	r3, r5, r4, lsl #2
 80092a0:	9301      	str	r3, [sp, #4]
 80092a2:	f858 3024 	ldr.w	r3, [r8, r4, lsl #2]
 80092a6:	f855 2024 	ldr.w	r2, [r5, r4, lsl #2]
 80092aa:	3301      	adds	r3, #1
 80092ac:	429a      	cmp	r2, r3
 80092ae:	eb08 0984 	add.w	r9, r8, r4, lsl #2
 80092b2:	fbb2 f6f3 	udiv	r6, r2, r3
 80092b6:	d32e      	bcc.n	8009316 <quorem+0x96>
 80092b8:	f04f 0a00 	mov.w	sl, #0
 80092bc:	46c4      	mov	ip, r8
 80092be:	46ae      	mov	lr, r5
 80092c0:	46d3      	mov	fp, sl
 80092c2:	f85c 3b04 	ldr.w	r3, [ip], #4
 80092c6:	b298      	uxth	r0, r3
 80092c8:	fb06 a000 	mla	r0, r6, r0, sl
 80092cc:	0c02      	lsrs	r2, r0, #16
 80092ce:	0c1b      	lsrs	r3, r3, #16
 80092d0:	fb06 2303 	mla	r3, r6, r3, r2
 80092d4:	f8de 2000 	ldr.w	r2, [lr]
 80092d8:	b280      	uxth	r0, r0
 80092da:	b292      	uxth	r2, r2
 80092dc:	1a12      	subs	r2, r2, r0
 80092de:	445a      	add	r2, fp
 80092e0:	f8de 0000 	ldr.w	r0, [lr]
 80092e4:	ea4f 4a13 	mov.w	sl, r3, lsr #16
 80092e8:	b29b      	uxth	r3, r3
 80092ea:	ebc3 4322 	rsb	r3, r3, r2, asr #16
 80092ee:	eb03 4310 	add.w	r3, r3, r0, lsr #16
 80092f2:	b292      	uxth	r2, r2
 80092f4:	ea42 4203 	orr.w	r2, r2, r3, lsl #16
 80092f8:	45e1      	cmp	r9, ip
 80092fa:	f84e 2b04 	str.w	r2, [lr], #4
 80092fe:	ea4f 4b23 	mov.w	fp, r3, asr #16
 8009302:	d2de      	bcs.n	80092c2 <quorem+0x42>
 8009304:	9b00      	ldr	r3, [sp, #0]
 8009306:	58eb      	ldr	r3, [r5, r3]
 8009308:	b92b      	cbnz	r3, 8009316 <quorem+0x96>
 800930a:	9b01      	ldr	r3, [sp, #4]
 800930c:	3b04      	subs	r3, #4
 800930e:	429d      	cmp	r5, r3
 8009310:	461a      	mov	r2, r3
 8009312:	d32f      	bcc.n	8009374 <quorem+0xf4>
 8009314:	613c      	str	r4, [r7, #16]
 8009316:	4638      	mov	r0, r7
 8009318:	f001 feb4 	bl	800b084 <__mcmp>
 800931c:	2800      	cmp	r0, #0
 800931e:	db25      	blt.n	800936c <quorem+0xec>
 8009320:	4629      	mov	r1, r5
 8009322:	2000      	movs	r0, #0
 8009324:	f858 2b04 	ldr.w	r2, [r8], #4
 8009328:	f8d1 c000 	ldr.w	ip, [r1]
 800932c:	fa1f fe82 	uxth.w	lr, r2
 8009330:	fa1f f38c 	uxth.w	r3, ip
 8009334:	eba3 030e 	sub.w	r3, r3, lr
 8009338:	4403      	add	r3, r0
 800933a:	0c12      	lsrs	r2, r2, #16
 800933c:	ebc2 4223 	rsb	r2, r2, r3, asr #16
 8009340:	eb02 421c 	add.w	r2, r2, ip, lsr #16
 8009344:	b29b      	uxth	r3, r3
 8009346:	ea43 4302 	orr.w	r3, r3, r2, lsl #16
 800934a:	45c1      	cmp	r9, r8
 800934c:	f841 3b04 	str.w	r3, [r1], #4
 8009350:	ea4f 4022 	mov.w	r0, r2, asr #16
 8009354:	d2e6      	bcs.n	8009324 <quorem+0xa4>
 8009356:	f855 2024 	ldr.w	r2, [r5, r4, lsl #2]
 800935a:	eb05 0384 	add.w	r3, r5, r4, lsl #2
 800935e:	b922      	cbnz	r2, 800936a <quorem+0xea>
 8009360:	3b04      	subs	r3, #4
 8009362:	429d      	cmp	r5, r3
 8009364:	461a      	mov	r2, r3
 8009366:	d30b      	bcc.n	8009380 <quorem+0x100>
 8009368:	613c      	str	r4, [r7, #16]
 800936a:	3601      	adds	r6, #1
 800936c:	4630      	mov	r0, r6
 800936e:	b003      	add	sp, #12
 8009370:	e8bd 8ff0 	ldmia.w	sp!, {r4, r5, r6, r7, r8, r9, sl, fp, pc}
 8009374:	6812      	ldr	r2, [r2, #0]
 8009376:	3b04      	subs	r3, #4
 8009378:	2a00      	cmp	r2, #0
 800937a:	d1cb      	bne.n	8009314 <quorem+0x94>
 800937c:	3c01      	subs	r4, #1
 800937e:	e7c6      	b.n	800930e <quorem+0x8e>
 8009380:	6812      	ldr	r2, [r2, #0]
 8009382:	3b04      	subs	r3, #4
 8009384:	2a00      	cmp	r2, #0
 8009386:	d1ef      	bne.n	8009368 <quorem+0xe8>
 8009388:	3c01      	subs	r4, #1
 800938a:	e7ea      	b.n	8009362 <quorem+0xe2>
 800938c:	2000      	movs	r0, #0
 800938e:	e7ee      	b.n	800936e <quorem+0xee>

08009390 <_dtoa_r>:
 8009390:	e92d 4ff0 	stmdb	sp!, {r4, r5, r6, r7, r8, r9, sl, fp, lr}
 8009394:	69c7      	ldr	r7, [r0, #28]
 8009396:	b097      	sub	sp, #92	@ 0x5c
 8009398:	ed8d 0b04 	vstr	d0, [sp, #16]
 800939c:	ec55 4b10 	vmov	r4, r5, d0
 80093a0:	9e20      	ldr	r6, [sp, #128]	@ 0x80
 80093a2:	9107      	str	r1, [sp, #28]
 80093a4:	4681      	mov	r9, r0
 80093a6:	920c      	str	r2, [sp, #48]	@ 0x30
 80093a8:	9311      	str	r3, [sp, #68]	@ 0x44
 80093aa:	b97f      	cbnz	r7, 80093cc <_dtoa_r+0x3c>
 80093ac:	2010      	movs	r0, #16
 80093ae:	f001 fa39 	bl	800a824 <malloc>
 80093b2:	4602      	mov	r2, r0
 80093b4:	f8c9 001c 	str.w	r0, [r9, #28]
 80093b8:	b920      	cbnz	r0, 80093c4 <_dtoa_r+0x34>
 80093ba:	4ba9      	ldr	r3, [pc, #676]	@ (8009660 <_dtoa_r+0x2d0>)
 80093bc:	21ef      	movs	r1, #239	@ 0xef
 80093be:	48a9      	ldr	r0, [pc, #676]	@ (8009664 <_dtoa_r+0x2d4>)
 80093c0:	f002 fa0e 	bl	800b7e0 <__assert_func>
 80093c4:	e9c0 7701 	strd	r7, r7, [r0, #4]
 80093c8:	6007      	str	r7, [r0, #0]
 80093ca:	60c7      	str	r7, [r0, #12]
 80093cc:	f8d9 301c 	ldr.w	r3, [r9, #28]
 80093d0:	6819      	ldr	r1, [r3, #0]
 80093d2:	b159      	cbz	r1, 80093ec <_dtoa_r+0x5c>
 80093d4:	685a      	ldr	r2, [r3, #4]
 80093d6:	604a      	str	r2, [r1, #4]
 80093d8:	2301      	movs	r3, #1
 80093da:	4093      	lsls	r3, r2
 80093dc:	608b      	str	r3, [r1, #8]
 80093de:	4648      	mov	r0, r9
 80093e0:	f001 fbd4 	bl	800ab8c <_Bfree>
 80093e4:	f8d9 301c 	ldr.w	r3, [r9, #28]
 80093e8:	2200      	movs	r2, #0
 80093ea:	601a      	str	r2, [r3, #0]
 80093ec:	1e2b      	subs	r3, r5, #0
 80093ee:	bfb9      	ittee	lt
 80093f0:	f023 4300 	biclt.w	r3, r3, #2147483648	@ 0x80000000
 80093f4:	9305      	strlt	r3, [sp, #20]
 80093f6:	2300      	movge	r3, #0
 80093f8:	6033      	strge	r3, [r6, #0]
 80093fa:	9f05      	ldr	r7, [sp, #20]
 80093fc:	4b9a      	ldr	r3, [pc, #616]	@ (8009668 <_dtoa_r+0x2d8>)
 80093fe:	bfbc      	itt	lt
 8009400:	2201      	movlt	r2, #1
 8009402:	6032      	strlt	r2, [r6, #0]
 8009404:	43bb      	bics	r3, r7
 8009406:	d112      	bne.n	800942e <_dtoa_r+0x9e>
 8009408:	9a11      	ldr	r2, [sp, #68]	@ 0x44
 800940a:	f242 730f 	movw	r3, #9999	@ 0x270f
 800940e:	6013      	str	r3, [r2, #0]
 8009410:	f3c7 0313 	ubfx	r3, r7, #0, #20
 8009414:	4323      	orrs	r3, r4
 8009416:	f000 855a 	beq.w	8009ece <_dtoa_r+0xb3e>
 800941a:	9b21      	ldr	r3, [sp, #132]	@ 0x84
 800941c:	f8df a25c 	ldr.w	sl, [pc, #604]	@ 800967c <_dtoa_r+0x2ec>
 8009420:	2b00      	cmp	r3, #0
 8009422:	f000 855c 	beq.w	8009ede <_dtoa_r+0xb4e>
 8009426:	f10a 0303 	add.w	r3, sl, #3
 800942a:	f000 bd56 	b.w	8009eda <_dtoa_r+0xb4a>
 800942e:	ed9d 7b04 	vldr	d7, [sp, #16]
 8009432:	2200      	movs	r2, #0
 8009434:	ec51 0b17 	vmov	r0, r1, d7
 8009438:	2300      	movs	r3, #0
 800943a:	ed8d 7b0a 	vstr	d7, [sp, #40]	@ 0x28
 800943e:	f7f7 fb63 	bl	8000b08 <__aeabi_dcmpeq>
 8009442:	4680      	mov	r8, r0
 8009444:	b158      	cbz	r0, 800945e <_dtoa_r+0xce>
 8009446:	9a11      	ldr	r2, [sp, #68]	@ 0x44
 8009448:	2301      	movs	r3, #1
 800944a:	6013      	str	r3, [r2, #0]
 800944c:	9b21      	ldr	r3, [sp, #132]	@ 0x84
 800944e:	b113      	cbz	r3, 8009456 <_dtoa_r+0xc6>
 8009450:	9a21      	ldr	r2, [sp, #132]	@ 0x84
 8009452:	4b86      	ldr	r3, [pc, #536]	@ (800966c <_dtoa_r+0x2dc>)
 8009454:	6013      	str	r3, [r2, #0]
 8009456:	f8df a228 	ldr.w	sl, [pc, #552]	@ 8009680 <_dtoa_r+0x2f0>
 800945a:	f000 bd40 	b.w	8009ede <_dtoa_r+0xb4e>
 800945e:	ed9d 0b0a 	vldr	d0, [sp, #40]	@ 0x28
 8009462:	aa14      	add	r2, sp, #80	@ 0x50
 8009464:	a915      	add	r1, sp, #84	@ 0x54
 8009466:	4648      	mov	r0, r9
 8009468:	f001 ff2c 	bl	800b2c4 <__d2b>
 800946c:	f3c7 560a 	ubfx	r6, r7, #20, #11
 8009470:	9002      	str	r0, [sp, #8]
 8009472:	2e00      	cmp	r6, #0
 8009474:	d078      	beq.n	8009568 <_dtoa_r+0x1d8>
 8009476:	9b0b      	ldr	r3, [sp, #44]	@ 0x2c
 8009478:	f8cd 8048 	str.w	r8, [sp, #72]	@ 0x48
 800947c:	f3c3 0313 	ubfx	r3, r3, #0, #20
 8009480:	e9dd 010a 	ldrd	r0, r1, [sp, #40]	@ 0x28
 8009484:	f043 537f 	orr.w	r3, r3, #1069547520	@ 0x3fc00000
 8009488:	f443 1340 	orr.w	r3, r3, #3145728	@ 0x300000
 800948c:	f2a6 36ff 	subw	r6, r6, #1023	@ 0x3ff
 8009490:	4619      	mov	r1, r3
 8009492:	2200      	movs	r2, #0
 8009494:	4b76      	ldr	r3, [pc, #472]	@ (8009670 <_dtoa_r+0x2e0>)
 8009496:	f7f6 ff17 	bl	80002c8 <__aeabi_dsub>
 800949a:	a36b      	add	r3, pc, #428	@ (adr r3, 8009648 <_dtoa_r+0x2b8>)
 800949c:	e9d3 2300 	ldrd	r2, r3, [r3]
 80094a0:	f7f7 f8ca 	bl	8000638 <__aeabi_dmul>
 80094a4:	a36a      	add	r3, pc, #424	@ (adr r3, 8009650 <_dtoa_r+0x2c0>)
 80094a6:	e9d3 2300 	ldrd	r2, r3, [r3]
 80094aa:	f7f6 ff0f 	bl	80002cc <__adddf3>
 80094ae:	4604      	mov	r4, r0
 80094b0:	4630      	mov	r0, r6
 80094b2:	460d      	mov	r5, r1
 80094b4:	f7f7 f856 	bl	8000564 <__aeabi_i2d>
 80094b8:	a367      	add	r3, pc, #412	@ (adr r3, 8009658 <_dtoa_r+0x2c8>)
 80094ba:	e9d3 2300 	ldrd	r2, r3, [r3]
 80094be:	f7f7 f8bb 	bl	8000638 <__aeabi_dmul>
 80094c2:	4602      	mov	r2, r0
 80094c4:	460b      	mov	r3, r1
 80094c6:	4620      	mov	r0, r4
 80094c8:	4629      	mov	r1, r5
 80094ca:	f7f6 feff 	bl	80002cc <__adddf3>
 80094ce:	4604      	mov	r4, r0
 80094d0:	460d      	mov	r5, r1
 80094d2:	f7f7 fb61 	bl	8000b98 <__aeabi_d2iz>
 80094d6:	2200      	movs	r2, #0
 80094d8:	4607      	mov	r7, r0
 80094da:	2300      	movs	r3, #0
 80094dc:	4620      	mov	r0, r4
 80094de:	4629      	mov	r1, r5
 80094e0:	f7f7 fb1c 	bl	8000b1c <__aeabi_dcmplt>
 80094e4:	b140      	cbz	r0, 80094f8 <_dtoa_r+0x168>
 80094e6:	4638      	mov	r0, r7
 80094e8:	f7f7 f83c 	bl	8000564 <__aeabi_i2d>
 80094ec:	4622      	mov	r2, r4
 80094ee:	462b      	mov	r3, r5
 80094f0:	f7f7 fb0a 	bl	8000b08 <__aeabi_dcmpeq>
 80094f4:	b900      	cbnz	r0, 80094f8 <_dtoa_r+0x168>
 80094f6:	3f01      	subs	r7, #1
 80094f8:	2f16      	cmp	r7, #22
 80094fa:	d852      	bhi.n	80095a2 <_dtoa_r+0x212>
 80094fc:	4b5d      	ldr	r3, [pc, #372]	@ (8009674 <_dtoa_r+0x2e4>)
 80094fe:	eb03 03c7 	add.w	r3, r3, r7, lsl #3
 8009502:	e9d3 2300 	ldrd	r2, r3, [r3]
 8009506:	e9dd 010a 	ldrd	r0, r1, [sp, #40]	@ 0x28
 800950a:	f7f7 fb07 	bl	8000b1c <__aeabi_dcmplt>
 800950e:	2800      	cmp	r0, #0
 8009510:	d049      	beq.n	80095a6 <_dtoa_r+0x216>
 8009512:	3f01      	subs	r7, #1
 8009514:	2300      	movs	r3, #0
 8009516:	9310      	str	r3, [sp, #64]	@ 0x40
 8009518:	9b14      	ldr	r3, [sp, #80]	@ 0x50
 800951a:	1b9b      	subs	r3, r3, r6
 800951c:	1e5a      	subs	r2, r3, #1
 800951e:	bf45      	ittet	mi
 8009520:	f1c3 0301 	rsbmi	r3, r3, #1
 8009524:	9300      	strmi	r3, [sp, #0]
 8009526:	2300      	movpl	r3, #0
 8009528:	2300      	movmi	r3, #0
 800952a:	9206      	str	r2, [sp, #24]
 800952c:	bf54      	ite	pl
 800952e:	9300      	strpl	r3, [sp, #0]
 8009530:	9306      	strmi	r3, [sp, #24]
 8009532:	2f00      	cmp	r7, #0
 8009534:	db39      	blt.n	80095aa <_dtoa_r+0x21a>
 8009536:	9b06      	ldr	r3, [sp, #24]
 8009538:	970d      	str	r7, [sp, #52]	@ 0x34
 800953a:	443b      	add	r3, r7
 800953c:	9306      	str	r3, [sp, #24]
 800953e:	2300      	movs	r3, #0
 8009540:	9308      	str	r3, [sp, #32]
 8009542:	9b07      	ldr	r3, [sp, #28]
 8009544:	2b09      	cmp	r3, #9
 8009546:	d863      	bhi.n	8009610 <_dtoa_r+0x280>
 8009548:	2b05      	cmp	r3, #5
 800954a:	bfc4      	itt	gt
 800954c:	3b04      	subgt	r3, #4
 800954e:	9307      	strgt	r3, [sp, #28]
 8009550:	9b07      	ldr	r3, [sp, #28]
 8009552:	f1a3 0302 	sub.w	r3, r3, #2
 8009556:	bfcc      	ite	gt
 8009558:	2400      	movgt	r4, #0
 800955a:	2401      	movle	r4, #1
 800955c:	2b03      	cmp	r3, #3
 800955e:	d863      	bhi.n	8009628 <_dtoa_r+0x298>
 8009560:	e8df f003 	tbb	[pc, r3]
 8009564:	2b375452 	.word	0x2b375452
 8009568:	e9dd 6314 	ldrd	r6, r3, [sp, #80]	@ 0x50
 800956c:	441e      	add	r6, r3
 800956e:	f206 4332 	addw	r3, r6, #1074	@ 0x432
 8009572:	2b20      	cmp	r3, #32
 8009574:	bfc1      	itttt	gt
 8009576:	f1c3 0340 	rsbgt	r3, r3, #64	@ 0x40
 800957a:	409f      	lslgt	r7, r3
 800957c:	f206 4312 	addwgt	r3, r6, #1042	@ 0x412
 8009580:	fa24 f303 	lsrgt.w	r3, r4, r3
 8009584:	bfd6      	itet	le
 8009586:	f1c3 0320 	rsble	r3, r3, #32
 800958a:	ea47 0003 	orrgt.w	r0, r7, r3
 800958e:	fa04 f003 	lslle.w	r0, r4, r3
 8009592:	f7f6 ffd7 	bl	8000544 <__aeabi_ui2d>
 8009596:	2201      	movs	r2, #1
 8009598:	f1a1 73f8 	sub.w	r3, r1, #32505856	@ 0x1f00000
 800959c:	3e01      	subs	r6, #1
 800959e:	9212      	str	r2, [sp, #72]	@ 0x48
 80095a0:	e776      	b.n	8009490 <_dtoa_r+0x100>
 80095a2:	2301      	movs	r3, #1
 80095a4:	e7b7      	b.n	8009516 <_dtoa_r+0x186>
 80095a6:	9010      	str	r0, [sp, #64]	@ 0x40
 80095a8:	e7b6      	b.n	8009518 <_dtoa_r+0x188>
 80095aa:	9b00      	ldr	r3, [sp, #0]
 80095ac:	1bdb      	subs	r3, r3, r7
 80095ae:	9300      	str	r3, [sp, #0]
 80095b0:	427b      	negs	r3, r7
 80095b2:	9308      	str	r3, [sp, #32]
 80095b4:	2300      	movs	r3, #0
 80095b6:	930d      	str	r3, [sp, #52]	@ 0x34
 80095b8:	e7c3      	b.n	8009542 <_dtoa_r+0x1b2>
 80095ba:	2301      	movs	r3, #1
 80095bc:	9309      	str	r3, [sp, #36]	@ 0x24
 80095be:	9b0c      	ldr	r3, [sp, #48]	@ 0x30
 80095c0:	eb07 0b03 	add.w	fp, r7, r3
 80095c4:	f10b 0301 	add.w	r3, fp, #1
 80095c8:	2b01      	cmp	r3, #1
 80095ca:	9303      	str	r3, [sp, #12]
 80095cc:	bfb8      	it	lt
 80095ce:	2301      	movlt	r3, #1
 80095d0:	e006      	b.n	80095e0 <_dtoa_r+0x250>
 80095d2:	2301      	movs	r3, #1
 80095d4:	9309      	str	r3, [sp, #36]	@ 0x24
 80095d6:	9b0c      	ldr	r3, [sp, #48]	@ 0x30
 80095d8:	2b00      	cmp	r3, #0
 80095da:	dd28      	ble.n	800962e <_dtoa_r+0x29e>
 80095dc:	469b      	mov	fp, r3
 80095de:	9303      	str	r3, [sp, #12]
 80095e0:	f8d9 001c 	ldr.w	r0, [r9, #28]
 80095e4:	2100      	movs	r1, #0
 80095e6:	2204      	movs	r2, #4
 80095e8:	f102 0514 	add.w	r5, r2, #20
 80095ec:	429d      	cmp	r5, r3
 80095ee:	d926      	bls.n	800963e <_dtoa_r+0x2ae>
 80095f0:	6041      	str	r1, [r0, #4]
 80095f2:	4648      	mov	r0, r9
 80095f4:	f001 fa8a 	bl	800ab0c <_Balloc>
 80095f8:	4682      	mov	sl, r0
 80095fa:	2800      	cmp	r0, #0
 80095fc:	d142      	bne.n	8009684 <_dtoa_r+0x2f4>
 80095fe:	4b1e      	ldr	r3, [pc, #120]	@ (8009678 <_dtoa_r+0x2e8>)
 8009600:	4602      	mov	r2, r0
 8009602:	f240 11af 	movw	r1, #431	@ 0x1af
 8009606:	e6da      	b.n	80093be <_dtoa_r+0x2e>
 8009608:	2300      	movs	r3, #0
 800960a:	e7e3      	b.n	80095d4 <_dtoa_r+0x244>
 800960c:	2300      	movs	r3, #0
 800960e:	e7d5      	b.n	80095bc <_dtoa_r+0x22c>
 8009610:	2401      	movs	r4, #1
 8009612:	2300      	movs	r3, #0
 8009614:	9307      	str	r3, [sp, #28]
 8009616:	9409      	str	r4, [sp, #36]	@ 0x24
 8009618:	f04f 3bff 	mov.w	fp, #4294967295	@ 0xffffffff
 800961c:	2200      	movs	r2, #0
 800961e:	f8cd b00c 	str.w	fp, [sp, #12]
 8009622:	2312      	movs	r3, #18
 8009624:	920c      	str	r2, [sp, #48]	@ 0x30
 8009626:	e7db      	b.n	80095e0 <_dtoa_r+0x250>
 8009628:	2301      	movs	r3, #1
 800962a:	9309      	str	r3, [sp, #36]	@ 0x24
 800962c:	e7f4      	b.n	8009618 <_dtoa_r+0x288>
 800962e:	f04f 0b01 	mov.w	fp, #1
 8009632:	f8cd b00c 	str.w	fp, [sp, #12]
 8009636:	465b      	mov	r3, fp
 8009638:	f8cd b030 	str.w	fp, [sp, #48]	@ 0x30
 800963c:	e7d0      	b.n	80095e0 <_dtoa_r+0x250>
 800963e:	3101      	adds	r1, #1
 8009640:	0052      	lsls	r2, r2, #1
 8009642:	e7d1      	b.n	80095e8 <_dtoa_r+0x258>
 8009644:	f3af 8000 	nop.w
 8009648:	636f4361 	.word	0x636f4361
 800964c:	3fd287a7 	.word	0x3fd287a7
 8009650:	8b60c8b3 	.word	0x8b60c8b3
 8009654:	3fc68a28 	.word	0x3fc68a28
 8009658:	509f79fb 	.word	0x509f79fb
 800965c:	3fd34413 	.word	0x3fd34413
 8009660:	0800ba8b 	.word	0x0800ba8b
 8009664:	0800baa2 	.word	0x0800baa2
 8009668:	7ff00000 	.word	0x7ff00000
 800966c:	0800ba51 	.word	0x0800ba51
 8009670:	3ff80000 	.word	0x3ff80000
 8009674:	0800bda0 	.word	0x0800bda0
 8009678:	0800bafa 	.word	0x0800bafa
 800967c:	0800ba87 	.word	0x0800ba87
 8009680:	0800ba50 	.word	0x0800ba50
 8009684:	f8d9 301c 	ldr.w	r3, [r9, #28]
 8009688:	6018      	str	r0, [r3, #0]
 800968a:	9b03      	ldr	r3, [sp, #12]
 800968c:	2b0e      	cmp	r3, #14
 800968e:	f200 80a1 	bhi.w	80097d4 <_dtoa_r+0x444>
 8009692:	2c00      	cmp	r4, #0
 8009694:	f000 809e 	beq.w	80097d4 <_dtoa_r+0x444>
 8009698:	2f00      	cmp	r7, #0
 800969a:	dd33      	ble.n	8009704 <_dtoa_r+0x374>
 800969c:	4b9c      	ldr	r3, [pc, #624]	@ (8009910 <_dtoa_r+0x580>)
 800969e:	f007 020f 	and.w	r2, r7, #15
 80096a2:	eb03 03c2 	add.w	r3, r3, r2, lsl #3
 80096a6:	ed93 7b00 	vldr	d7, [r3]
 80096aa:	05f8      	lsls	r0, r7, #23
 80096ac:	ed8d 7b0e 	vstr	d7, [sp, #56]	@ 0x38
 80096b0:	ea4f 1427 	mov.w	r4, r7, asr #4
 80096b4:	d516      	bpl.n	80096e4 <_dtoa_r+0x354>
 80096b6:	4b97      	ldr	r3, [pc, #604]	@ (8009914 <_dtoa_r+0x584>)
 80096b8:	e9dd 010a 	ldrd	r0, r1, [sp, #40]	@ 0x28
 80096bc:	e9d3 2308 	ldrd	r2, r3, [r3, #32]
 80096c0:	f7f7 f8e4 	bl	800088c <__aeabi_ddiv>
 80096c4:	e9cd 0104 	strd	r0, r1, [sp, #16]
 80096c8:	f004 040f 	and.w	r4, r4, #15
 80096cc:	2603      	movs	r6, #3
 80096ce:	4d91      	ldr	r5, [pc, #580]	@ (8009914 <_dtoa_r+0x584>)
 80096d0:	b954      	cbnz	r4, 80096e8 <_dtoa_r+0x358>
 80096d2:	e9dd 230e 	ldrd	r2, r3, [sp, #56]	@ 0x38
 80096d6:	e9dd 0104 	ldrd	r0, r1, [sp, #16]
 80096da:	f7f7 f8d7 	bl	800088c <__aeabi_ddiv>
 80096de:	e9cd 0104 	strd	r0, r1, [sp, #16]
 80096e2:	e028      	b.n	8009736 <_dtoa_r+0x3a6>
 80096e4:	2602      	movs	r6, #2
 80096e6:	e7f2      	b.n	80096ce <_dtoa_r+0x33e>
 80096e8:	07e1      	lsls	r1, r4, #31
 80096ea:	d508      	bpl.n	80096fe <_dtoa_r+0x36e>
 80096ec:	e9dd 010e 	ldrd	r0, r1, [sp, #56]	@ 0x38
 80096f0:	e9d5 2300 	ldrd	r2, r3, [r5]
 80096f4:	f7f6 ffa0 	bl	8000638 <__aeabi_dmul>
 80096f8:	e9cd 010e 	strd	r0, r1, [sp, #56]	@ 0x38
 80096fc:	3601      	adds	r6, #1
 80096fe:	1064      	asrs	r4, r4, #1
 8009700:	3508      	adds	r5, #8
 8009702:	e7e5      	b.n	80096d0 <_dtoa_r+0x340>
 8009704:	f000 80af 	beq.w	8009866 <_dtoa_r+0x4d6>
 8009708:	427c      	negs	r4, r7
 800970a:	4b81      	ldr	r3, [pc, #516]	@ (8009910 <_dtoa_r+0x580>)
 800970c:	4d81      	ldr	r5, [pc, #516]	@ (8009914 <_dtoa_r+0x584>)
 800970e:	f004 020f 	and.w	r2, r4, #15
 8009712:	eb03 03c2 	add.w	r3, r3, r2, lsl #3
 8009716:	e9d3 2300 	ldrd	r2, r3, [r3]
 800971a:	e9dd 010a 	ldrd	r0, r1, [sp, #40]	@ 0x28
 800971e:	f7f6 ff8b 	bl	8000638 <__aeabi_dmul>
 8009722:	e9cd 0104 	strd	r0, r1, [sp, #16]
 8009726:	1124      	asrs	r4, r4, #4
 8009728:	2300      	movs	r3, #0
 800972a:	2602      	movs	r6, #2
 800972c:	2c00      	cmp	r4, #0
 800972e:	f040 808f 	bne.w	8009850 <_dtoa_r+0x4c0>
 8009732:	2b00      	cmp	r3, #0
 8009734:	d1d3      	bne.n	80096de <_dtoa_r+0x34e>
 8009736:	9b10      	ldr	r3, [sp, #64]	@ 0x40
 8009738:	e9dd 4504 	ldrd	r4, r5, [sp, #16]
 800973c:	2b00      	cmp	r3, #0
 800973e:	f000 8094 	beq.w	800986a <_dtoa_r+0x4da>
 8009742:	4b75      	ldr	r3, [pc, #468]	@ (8009918 <_dtoa_r+0x588>)
 8009744:	2200      	movs	r2, #0
 8009746:	4620      	mov	r0, r4
 8009748:	4629      	mov	r1, r5
 800974a:	f7f7 f9e7 	bl	8000b1c <__aeabi_dcmplt>
 800974e:	2800      	cmp	r0, #0
 8009750:	f000 808b 	beq.w	800986a <_dtoa_r+0x4da>
 8009754:	9b03      	ldr	r3, [sp, #12]
 8009756:	2b00      	cmp	r3, #0
 8009758:	f000 8087 	beq.w	800986a <_dtoa_r+0x4da>
 800975c:	f1bb 0f00 	cmp.w	fp, #0
 8009760:	dd34      	ble.n	80097cc <_dtoa_r+0x43c>
 8009762:	4620      	mov	r0, r4
 8009764:	4b6d      	ldr	r3, [pc, #436]	@ (800991c <_dtoa_r+0x58c>)
 8009766:	2200      	movs	r2, #0
 8009768:	4629      	mov	r1, r5
 800976a:	f7f6 ff65 	bl	8000638 <__aeabi_dmul>
 800976e:	e9cd 0104 	strd	r0, r1, [sp, #16]
 8009772:	f107 38ff 	add.w	r8, r7, #4294967295	@ 0xffffffff
 8009776:	3601      	adds	r6, #1
 8009778:	465c      	mov	r4, fp
 800977a:	4630      	mov	r0, r6
 800977c:	f7f6 fef2 	bl	8000564 <__aeabi_i2d>
 8009780:	e9dd 2304 	ldrd	r2, r3, [sp, #16]
 8009784:	f7f6 ff58 	bl	8000638 <__aeabi_dmul>
 8009788:	4b65      	ldr	r3, [pc, #404]	@ (8009920 <_dtoa_r+0x590>)
 800978a:	2200      	movs	r2, #0
 800978c:	f7f6 fd9e 	bl	80002cc <__adddf3>
 8009790:	4605      	mov	r5, r0
 8009792:	f1a1 7650 	sub.w	r6, r1, #54525952	@ 0x3400000
 8009796:	2c00      	cmp	r4, #0
 8009798:	d16a      	bne.n	8009870 <_dtoa_r+0x4e0>
 800979a:	e9dd 0104 	ldrd	r0, r1, [sp, #16]
 800979e:	4b61      	ldr	r3, [pc, #388]	@ (8009924 <_dtoa_r+0x594>)
 80097a0:	2200      	movs	r2, #0
 80097a2:	f7f6 fd91 	bl	80002c8 <__aeabi_dsub>
 80097a6:	4602      	mov	r2, r0
 80097a8:	460b      	mov	r3, r1
 80097aa:	e9cd 2304 	strd	r2, r3, [sp, #16]
 80097ae:	462a      	mov	r2, r5
 80097b0:	4633      	mov	r3, r6
 80097b2:	f7f7 f9d1 	bl	8000b58 <__aeabi_dcmpgt>
 80097b6:	2800      	cmp	r0, #0
 80097b8:	f040 8298 	bne.w	8009cec <_dtoa_r+0x95c>
 80097bc:	e9dd 0104 	ldrd	r0, r1, [sp, #16]
 80097c0:	462a      	mov	r2, r5
 80097c2:	f106 4300 	add.w	r3, r6, #2147483648	@ 0x80000000
 80097c6:	f7f7 f9a9 	bl	8000b1c <__aeabi_dcmplt>
 80097ca:	bb38      	cbnz	r0, 800981c <_dtoa_r+0x48c>
 80097cc:	e9dd 340a 	ldrd	r3, r4, [sp, #40]	@ 0x28
 80097d0:	e9cd 3404 	strd	r3, r4, [sp, #16]
 80097d4:	9b15      	ldr	r3, [sp, #84]	@ 0x54
 80097d6:	2b00      	cmp	r3, #0
 80097d8:	f2c0 8157 	blt.w	8009a8a <_dtoa_r+0x6fa>
 80097dc:	2f0e      	cmp	r7, #14
 80097de:	f300 8154 	bgt.w	8009a8a <_dtoa_r+0x6fa>
 80097e2:	4b4b      	ldr	r3, [pc, #300]	@ (8009910 <_dtoa_r+0x580>)
 80097e4:	eb03 03c7 	add.w	r3, r3, r7, lsl #3
 80097e8:	ed93 7b00 	vldr	d7, [r3]
 80097ec:	9b0c      	ldr	r3, [sp, #48]	@ 0x30
 80097ee:	2b00      	cmp	r3, #0
 80097f0:	ed8d 7b00 	vstr	d7, [sp]
 80097f4:	f280 80e5 	bge.w	80099c2 <_dtoa_r+0x632>
 80097f8:	9b03      	ldr	r3, [sp, #12]
 80097fa:	2b00      	cmp	r3, #0
 80097fc:	f300 80e1 	bgt.w	80099c2 <_dtoa_r+0x632>
 8009800:	d10c      	bne.n	800981c <_dtoa_r+0x48c>
 8009802:	4b48      	ldr	r3, [pc, #288]	@ (8009924 <_dtoa_r+0x594>)
 8009804:	2200      	movs	r2, #0
 8009806:	ec51 0b17 	vmov	r0, r1, d7
 800980a:	f7f6 ff15 	bl	8000638 <__aeabi_dmul>
 800980e:	e9dd 2304 	ldrd	r2, r3, [sp, #16]
 8009812:	f7f7 f997 	bl	8000b44 <__aeabi_dcmpge>
 8009816:	2800      	cmp	r0, #0
 8009818:	f000 8266 	beq.w	8009ce8 <_dtoa_r+0x958>
 800981c:	2400      	movs	r4, #0
 800981e:	4625      	mov	r5, r4
 8009820:	9b0c      	ldr	r3, [sp, #48]	@ 0x30
 8009822:	4656      	mov	r6, sl
 8009824:	ea6f 0803 	mvn.w	r8, r3
 8009828:	2700      	movs	r7, #0
 800982a:	4621      	mov	r1, r4
 800982c:	4648      	mov	r0, r9
 800982e:	f001 f9ad 	bl	800ab8c <_Bfree>
 8009832:	2d00      	cmp	r5, #0
 8009834:	f000 80bd 	beq.w	80099b2 <_dtoa_r+0x622>
 8009838:	b12f      	cbz	r7, 8009846 <_dtoa_r+0x4b6>
 800983a:	42af      	cmp	r7, r5
 800983c:	d003      	beq.n	8009846 <_dtoa_r+0x4b6>
 800983e:	4639      	mov	r1, r7
 8009840:	4648      	mov	r0, r9
 8009842:	f001 f9a3 	bl	800ab8c <_Bfree>
 8009846:	4629      	mov	r1, r5
 8009848:	4648      	mov	r0, r9
 800984a:	f001 f99f 	bl	800ab8c <_Bfree>
 800984e:	e0b0      	b.n	80099b2 <_dtoa_r+0x622>
 8009850:	07e2      	lsls	r2, r4, #31
 8009852:	d505      	bpl.n	8009860 <_dtoa_r+0x4d0>
 8009854:	e9d5 2300 	ldrd	r2, r3, [r5]
 8009858:	f7f6 feee 	bl	8000638 <__aeabi_dmul>
 800985c:	3601      	adds	r6, #1
 800985e:	2301      	movs	r3, #1
 8009860:	1064      	asrs	r4, r4, #1
 8009862:	3508      	adds	r5, #8
 8009864:	e762      	b.n	800972c <_dtoa_r+0x39c>
 8009866:	2602      	movs	r6, #2
 8009868:	e765      	b.n	8009736 <_dtoa_r+0x3a6>
 800986a:	9c03      	ldr	r4, [sp, #12]
 800986c:	46b8      	mov	r8, r7
 800986e:	e784      	b.n	800977a <_dtoa_r+0x3ea>
 8009870:	4b27      	ldr	r3, [pc, #156]	@ (8009910 <_dtoa_r+0x580>)
 8009872:	9909      	ldr	r1, [sp, #36]	@ 0x24
 8009874:	eb03 03c4 	add.w	r3, r3, r4, lsl #3
 8009878:	e953 2302 	ldrd	r2, r3, [r3, #-8]
 800987c:	4454      	add	r4, sl
 800987e:	2900      	cmp	r1, #0
 8009880:	d054      	beq.n	800992c <_dtoa_r+0x59c>
 8009882:	4929      	ldr	r1, [pc, #164]	@ (8009928 <_dtoa_r+0x598>)
 8009884:	2000      	movs	r0, #0
 8009886:	f7f7 f801 	bl	800088c <__aeabi_ddiv>
 800988a:	4633      	mov	r3, r6
 800988c:	462a      	mov	r2, r5
 800988e:	f7f6 fd1b 	bl	80002c8 <__aeabi_dsub>
 8009892:	e9cd 010e 	strd	r0, r1, [sp, #56]	@ 0x38
 8009896:	4656      	mov	r6, sl
 8009898:	e9dd 0104 	ldrd	r0, r1, [sp, #16]
 800989c:	f7f7 f97c 	bl	8000b98 <__aeabi_d2iz>
 80098a0:	4605      	mov	r5, r0
 80098a2:	f7f6 fe5f 	bl	8000564 <__aeabi_i2d>
 80098a6:	4602      	mov	r2, r0
 80098a8:	460b      	mov	r3, r1
 80098aa:	e9dd 0104 	ldrd	r0, r1, [sp, #16]
 80098ae:	f7f6 fd0b 	bl	80002c8 <__aeabi_dsub>
 80098b2:	3530      	adds	r5, #48	@ 0x30
 80098b4:	4602      	mov	r2, r0
 80098b6:	460b      	mov	r3, r1
 80098b8:	e9cd 2304 	strd	r2, r3, [sp, #16]
 80098bc:	f806 5b01 	strb.w	r5, [r6], #1
 80098c0:	e9dd 230e 	ldrd	r2, r3, [sp, #56]	@ 0x38
 80098c4:	f7f7 f92a 	bl	8000b1c <__aeabi_dcmplt>
 80098c8:	2800      	cmp	r0, #0
 80098ca:	d172      	bne.n	80099b2 <_dtoa_r+0x622>
 80098cc:	e9dd 2304 	ldrd	r2, r3, [sp, #16]
 80098d0:	4911      	ldr	r1, [pc, #68]	@ (8009918 <_dtoa_r+0x588>)
 80098d2:	2000      	movs	r0, #0
 80098d4:	f7f6 fcf8 	bl	80002c8 <__aeabi_dsub>
 80098d8:	e9dd 230e 	ldrd	r2, r3, [sp, #56]	@ 0x38
 80098dc:	f7f7 f91e 	bl	8000b1c <__aeabi_dcmplt>
 80098e0:	2800      	cmp	r0, #0
 80098e2:	f040 80b4 	bne.w	8009a4e <_dtoa_r+0x6be>
 80098e6:	42a6      	cmp	r6, r4
 80098e8:	f43f af70 	beq.w	80097cc <_dtoa_r+0x43c>
 80098ec:	e9dd 010e 	ldrd	r0, r1, [sp, #56]	@ 0x38
 80098f0:	4b0a      	ldr	r3, [pc, #40]	@ (800991c <_dtoa_r+0x58c>)
 80098f2:	2200      	movs	r2, #0
 80098f4:	f7f6 fea0 	bl	8000638 <__aeabi_dmul>
 80098f8:	4b08      	ldr	r3, [pc, #32]	@ (800991c <_dtoa_r+0x58c>)
 80098fa:	e9cd 010e 	strd	r0, r1, [sp, #56]	@ 0x38
 80098fe:	2200      	movs	r2, #0
 8009900:	e9dd 0104 	ldrd	r0, r1, [sp, #16]
 8009904:	f7f6 fe98 	bl	8000638 <__aeabi_dmul>
 8009908:	e9cd 0104 	strd	r0, r1, [sp, #16]
 800990c:	e7c4      	b.n	8009898 <_dtoa_r+0x508>
 800990e:	bf00      	nop
 8009910:	0800bda0 	.word	0x0800bda0
 8009914:	0800bd78 	.word	0x0800bd78
 8009918:	3ff00000 	.word	0x3ff00000
 800991c:	40240000 	.word	0x40240000
 8009920:	401c0000 	.word	0x401c0000
 8009924:	40140000 	.word	0x40140000
 8009928:	3fe00000 	.word	0x3fe00000
 800992c:	4631      	mov	r1, r6
 800992e:	4628      	mov	r0, r5
 8009930:	f7f6 fe82 	bl	8000638 <__aeabi_dmul>
 8009934:	e9cd 010e 	strd	r0, r1, [sp, #56]	@ 0x38
 8009938:	9413      	str	r4, [sp, #76]	@ 0x4c
 800993a:	4656      	mov	r6, sl
 800993c:	e9dd 0104 	ldrd	r0, r1, [sp, #16]
 8009940:	f7f7 f92a 	bl	8000b98 <__aeabi_d2iz>
 8009944:	4605      	mov	r5, r0
 8009946:	f7f6 fe0d 	bl	8000564 <__aeabi_i2d>
 800994a:	4602      	mov	r2, r0
 800994c:	460b      	mov	r3, r1
 800994e:	e9dd 0104 	ldrd	r0, r1, [sp, #16]
 8009952:	f7f6 fcb9 	bl	80002c8 <__aeabi_dsub>
 8009956:	3530      	adds	r5, #48	@ 0x30
 8009958:	f806 5b01 	strb.w	r5, [r6], #1
 800995c:	4602      	mov	r2, r0
 800995e:	460b      	mov	r3, r1
 8009960:	42a6      	cmp	r6, r4
 8009962:	e9cd 2304 	strd	r2, r3, [sp, #16]
 8009966:	f04f 0200 	mov.w	r2, #0
 800996a:	d124      	bne.n	80099b6 <_dtoa_r+0x626>
 800996c:	4baf      	ldr	r3, [pc, #700]	@ (8009c2c <_dtoa_r+0x89c>)
 800996e:	e9dd 010e 	ldrd	r0, r1, [sp, #56]	@ 0x38
 8009972:	f7f6 fcab 	bl	80002cc <__adddf3>
 8009976:	4602      	mov	r2, r0
 8009978:	460b      	mov	r3, r1
 800997a:	e9dd 0104 	ldrd	r0, r1, [sp, #16]
 800997e:	f7f7 f8eb 	bl	8000b58 <__aeabi_dcmpgt>
 8009982:	2800      	cmp	r0, #0
 8009984:	d163      	bne.n	8009a4e <_dtoa_r+0x6be>
 8009986:	e9dd 230e 	ldrd	r2, r3, [sp, #56]	@ 0x38
 800998a:	49a8      	ldr	r1, [pc, #672]	@ (8009c2c <_dtoa_r+0x89c>)
 800998c:	2000      	movs	r0, #0
 800998e:	f7f6 fc9b 	bl	80002c8 <__aeabi_dsub>
 8009992:	4602      	mov	r2, r0
 8009994:	460b      	mov	r3, r1
 8009996:	e9dd 0104 	ldrd	r0, r1, [sp, #16]
 800999a:	f7f7 f8bf 	bl	8000b1c <__aeabi_dcmplt>
 800999e:	2800      	cmp	r0, #0
 80099a0:	f43f af14 	beq.w	80097cc <_dtoa_r+0x43c>
 80099a4:	9e13      	ldr	r6, [sp, #76]	@ 0x4c
 80099a6:	1e73      	subs	r3, r6, #1
 80099a8:	9313      	str	r3, [sp, #76]	@ 0x4c
 80099aa:	f816 3c01 	ldrb.w	r3, [r6, #-1]
 80099ae:	2b30      	cmp	r3, #48	@ 0x30
 80099b0:	d0f8      	beq.n	80099a4 <_dtoa_r+0x614>
 80099b2:	4647      	mov	r7, r8
 80099b4:	e03b      	b.n	8009a2e <_dtoa_r+0x69e>
 80099b6:	4b9e      	ldr	r3, [pc, #632]	@ (8009c30 <_dtoa_r+0x8a0>)
 80099b8:	f7f6 fe3e 	bl	8000638 <__aeabi_dmul>
 80099bc:	e9cd 0104 	strd	r0, r1, [sp, #16]
 80099c0:	e7bc      	b.n	800993c <_dtoa_r+0x5ac>
 80099c2:	e9dd 4504 	ldrd	r4, r5, [sp, #16]
 80099c6:	4656      	mov	r6, sl
 80099c8:	e9dd 2300 	ldrd	r2, r3, [sp]
 80099cc:	4620      	mov	r0, r4
 80099ce:	4629      	mov	r1, r5
 80099d0:	f7f6 ff5c 	bl	800088c <__aeabi_ddiv>
 80099d4:	f7f7 f8e0 	bl	8000b98 <__aeabi_d2iz>
 80099d8:	4680      	mov	r8, r0
 80099da:	f7f6 fdc3 	bl	8000564 <__aeabi_i2d>
 80099de:	e9dd 2300 	ldrd	r2, r3, [sp]
 80099e2:	f7f6 fe29 	bl	8000638 <__aeabi_dmul>
 80099e6:	4602      	mov	r2, r0
 80099e8:	460b      	mov	r3, r1
 80099ea:	4620      	mov	r0, r4
 80099ec:	4629      	mov	r1, r5
 80099ee:	f108 0430 	add.w	r4, r8, #48	@ 0x30
 80099f2:	f7f6 fc69 	bl	80002c8 <__aeabi_dsub>
 80099f6:	f806 4b01 	strb.w	r4, [r6], #1
 80099fa:	9d03      	ldr	r5, [sp, #12]
 80099fc:	eba6 040a 	sub.w	r4, r6, sl
 8009a00:	42a5      	cmp	r5, r4
 8009a02:	4602      	mov	r2, r0
 8009a04:	460b      	mov	r3, r1
 8009a06:	d133      	bne.n	8009a70 <_dtoa_r+0x6e0>
 8009a08:	f7f6 fc60 	bl	80002cc <__adddf3>
 8009a0c:	e9dd 2300 	ldrd	r2, r3, [sp]
 8009a10:	4604      	mov	r4, r0
 8009a12:	460d      	mov	r5, r1
 8009a14:	f7f7 f8a0 	bl	8000b58 <__aeabi_dcmpgt>
 8009a18:	b9c0      	cbnz	r0, 8009a4c <_dtoa_r+0x6bc>
 8009a1a:	e9dd 2300 	ldrd	r2, r3, [sp]
 8009a1e:	4620      	mov	r0, r4
 8009a20:	4629      	mov	r1, r5
 8009a22:	f7f7 f871 	bl	8000b08 <__aeabi_dcmpeq>
 8009a26:	b110      	cbz	r0, 8009a2e <_dtoa_r+0x69e>
 8009a28:	f018 0f01 	tst.w	r8, #1
 8009a2c:	d10e      	bne.n	8009a4c <_dtoa_r+0x6bc>
 8009a2e:	9902      	ldr	r1, [sp, #8]
 8009a30:	4648      	mov	r0, r9
 8009a32:	f001 f8ab 	bl	800ab8c <_Bfree>
 8009a36:	2300      	movs	r3, #0
 8009a38:	7033      	strb	r3, [r6, #0]
 8009a3a:	9b11      	ldr	r3, [sp, #68]	@ 0x44
 8009a3c:	3701      	adds	r7, #1
 8009a3e:	601f      	str	r7, [r3, #0]
 8009a40:	9b21      	ldr	r3, [sp, #132]	@ 0x84
 8009a42:	2b00      	cmp	r3, #0
 8009a44:	f000 824b 	beq.w	8009ede <_dtoa_r+0xb4e>
 8009a48:	601e      	str	r6, [r3, #0]
 8009a4a:	e248      	b.n	8009ede <_dtoa_r+0xb4e>
 8009a4c:	46b8      	mov	r8, r7
 8009a4e:	4633      	mov	r3, r6
 8009a50:	461e      	mov	r6, r3
 8009a52:	f813 2d01 	ldrb.w	r2, [r3, #-1]!
 8009a56:	2a39      	cmp	r2, #57	@ 0x39
 8009a58:	d106      	bne.n	8009a68 <_dtoa_r+0x6d8>
 8009a5a:	459a      	cmp	sl, r3
 8009a5c:	d1f8      	bne.n	8009a50 <_dtoa_r+0x6c0>
 8009a5e:	2230      	movs	r2, #48	@ 0x30
 8009a60:	f108 0801 	add.w	r8, r8, #1
 8009a64:	f88a 2000 	strb.w	r2, [sl]
 8009a68:	781a      	ldrb	r2, [r3, #0]
 8009a6a:	3201      	adds	r2, #1
 8009a6c:	701a      	strb	r2, [r3, #0]
 8009a6e:	e7a0      	b.n	80099b2 <_dtoa_r+0x622>
 8009a70:	4b6f      	ldr	r3, [pc, #444]	@ (8009c30 <_dtoa_r+0x8a0>)
 8009a72:	2200      	movs	r2, #0
 8009a74:	f7f6 fde0 	bl	8000638 <__aeabi_dmul>
 8009a78:	2200      	movs	r2, #0
 8009a7a:	2300      	movs	r3, #0
 8009a7c:	4604      	mov	r4, r0
 8009a7e:	460d      	mov	r5, r1
 8009a80:	f7f7 f842 	bl	8000b08 <__aeabi_dcmpeq>
 8009a84:	2800      	cmp	r0, #0
 8009a86:	d09f      	beq.n	80099c8 <_dtoa_r+0x638>
 8009a88:	e7d1      	b.n	8009a2e <_dtoa_r+0x69e>
 8009a8a:	9a09      	ldr	r2, [sp, #36]	@ 0x24
 8009a8c:	2a00      	cmp	r2, #0
 8009a8e:	f000 80ea 	beq.w	8009c66 <_dtoa_r+0x8d6>
 8009a92:	9a07      	ldr	r2, [sp, #28]
 8009a94:	2a01      	cmp	r2, #1
 8009a96:	f300 80cd 	bgt.w	8009c34 <_dtoa_r+0x8a4>
 8009a9a:	9a12      	ldr	r2, [sp, #72]	@ 0x48
 8009a9c:	2a00      	cmp	r2, #0
 8009a9e:	f000 80c1 	beq.w	8009c24 <_dtoa_r+0x894>
 8009aa2:	f203 4333 	addw	r3, r3, #1075	@ 0x433
 8009aa6:	9c08      	ldr	r4, [sp, #32]
 8009aa8:	9e00      	ldr	r6, [sp, #0]
 8009aaa:	9a00      	ldr	r2, [sp, #0]
 8009aac:	441a      	add	r2, r3
 8009aae:	9200      	str	r2, [sp, #0]
 8009ab0:	9a06      	ldr	r2, [sp, #24]
 8009ab2:	2101      	movs	r1, #1
 8009ab4:	441a      	add	r2, r3
 8009ab6:	4648      	mov	r0, r9
 8009ab8:	9206      	str	r2, [sp, #24]
 8009aba:	f001 f965 	bl	800ad88 <__i2b>
 8009abe:	4605      	mov	r5, r0
 8009ac0:	b166      	cbz	r6, 8009adc <_dtoa_r+0x74c>
 8009ac2:	9b06      	ldr	r3, [sp, #24]
 8009ac4:	2b00      	cmp	r3, #0
 8009ac6:	dd09      	ble.n	8009adc <_dtoa_r+0x74c>
 8009ac8:	42b3      	cmp	r3, r6
 8009aca:	9a00      	ldr	r2, [sp, #0]
 8009acc:	bfa8      	it	ge
 8009ace:	4633      	movge	r3, r6
 8009ad0:	1ad2      	subs	r2, r2, r3
 8009ad2:	9200      	str	r2, [sp, #0]
 8009ad4:	9a06      	ldr	r2, [sp, #24]
 8009ad6:	1af6      	subs	r6, r6, r3
 8009ad8:	1ad3      	subs	r3, r2, r3
 8009ada:	9306      	str	r3, [sp, #24]
 8009adc:	9b08      	ldr	r3, [sp, #32]
 8009ade:	b30b      	cbz	r3, 8009b24 <_dtoa_r+0x794>
 8009ae0:	9b09      	ldr	r3, [sp, #36]	@ 0x24
 8009ae2:	2b00      	cmp	r3, #0
 8009ae4:	f000 80c6 	beq.w	8009c74 <_dtoa_r+0x8e4>
 8009ae8:	2c00      	cmp	r4, #0
 8009aea:	f000 80c0 	beq.w	8009c6e <_dtoa_r+0x8de>
 8009aee:	4629      	mov	r1, r5
 8009af0:	4622      	mov	r2, r4
 8009af2:	4648      	mov	r0, r9
 8009af4:	f001 fa00 	bl	800aef8 <__pow5mult>
 8009af8:	9a02      	ldr	r2, [sp, #8]
 8009afa:	4601      	mov	r1, r0
 8009afc:	4605      	mov	r5, r0
 8009afe:	4648      	mov	r0, r9
 8009b00:	f001 f958 	bl	800adb4 <__multiply>
 8009b04:	9902      	ldr	r1, [sp, #8]
 8009b06:	4680      	mov	r8, r0
 8009b08:	4648      	mov	r0, r9
 8009b0a:	f001 f83f 	bl	800ab8c <_Bfree>
 8009b0e:	9b08      	ldr	r3, [sp, #32]
 8009b10:	1b1b      	subs	r3, r3, r4
 8009b12:	9308      	str	r3, [sp, #32]
 8009b14:	f000 80b1 	beq.w	8009c7a <_dtoa_r+0x8ea>
 8009b18:	9a08      	ldr	r2, [sp, #32]
 8009b1a:	4641      	mov	r1, r8
 8009b1c:	4648      	mov	r0, r9
 8009b1e:	f001 f9eb 	bl	800aef8 <__pow5mult>
 8009b22:	9002      	str	r0, [sp, #8]
 8009b24:	2101      	movs	r1, #1
 8009b26:	4648      	mov	r0, r9
 8009b28:	f001 f92e 	bl	800ad88 <__i2b>
 8009b2c:	9b0d      	ldr	r3, [sp, #52]	@ 0x34
 8009b2e:	4604      	mov	r4, r0
 8009b30:	2b00      	cmp	r3, #0
 8009b32:	f000 81d8 	beq.w	8009ee6 <_dtoa_r+0xb56>
 8009b36:	461a      	mov	r2, r3
 8009b38:	4601      	mov	r1, r0
 8009b3a:	4648      	mov	r0, r9
 8009b3c:	f001 f9dc 	bl	800aef8 <__pow5mult>
 8009b40:	9b07      	ldr	r3, [sp, #28]
 8009b42:	2b01      	cmp	r3, #1
 8009b44:	4604      	mov	r4, r0
 8009b46:	f300 809f 	bgt.w	8009c88 <_dtoa_r+0x8f8>
 8009b4a:	9b04      	ldr	r3, [sp, #16]
 8009b4c:	2b00      	cmp	r3, #0
 8009b4e:	f040 8097 	bne.w	8009c80 <_dtoa_r+0x8f0>
 8009b52:	9b05      	ldr	r3, [sp, #20]
 8009b54:	f3c3 0313 	ubfx	r3, r3, #0, #20
 8009b58:	2b00      	cmp	r3, #0
 8009b5a:	f040 8093 	bne.w	8009c84 <_dtoa_r+0x8f4>
 8009b5e:	9b05      	ldr	r3, [sp, #20]
 8009b60:	f023 4300 	bic.w	r3, r3, #2147483648	@ 0x80000000
 8009b64:	0d1b      	lsrs	r3, r3, #20
 8009b66:	051b      	lsls	r3, r3, #20
 8009b68:	b133      	cbz	r3, 8009b78 <_dtoa_r+0x7e8>
 8009b6a:	9b00      	ldr	r3, [sp, #0]
 8009b6c:	3301      	adds	r3, #1
 8009b6e:	9300      	str	r3, [sp, #0]
 8009b70:	9b06      	ldr	r3, [sp, #24]
 8009b72:	3301      	adds	r3, #1
 8009b74:	9306      	str	r3, [sp, #24]
 8009b76:	2301      	movs	r3, #1
 8009b78:	9308      	str	r3, [sp, #32]
 8009b7a:	9b0d      	ldr	r3, [sp, #52]	@ 0x34
 8009b7c:	2b00      	cmp	r3, #0
 8009b7e:	f000 81b8 	beq.w	8009ef2 <_dtoa_r+0xb62>
 8009b82:	6923      	ldr	r3, [r4, #16]
 8009b84:	eb04 0383 	add.w	r3, r4, r3, lsl #2
 8009b88:	6918      	ldr	r0, [r3, #16]
 8009b8a:	f001 f8b1 	bl	800acf0 <__hi0bits>
 8009b8e:	f1c0 0020 	rsb	r0, r0, #32
 8009b92:	9b06      	ldr	r3, [sp, #24]
 8009b94:	4418      	add	r0, r3
 8009b96:	f010 001f 	ands.w	r0, r0, #31
 8009b9a:	f000 8082 	beq.w	8009ca2 <_dtoa_r+0x912>
 8009b9e:	f1c0 0320 	rsb	r3, r0, #32
 8009ba2:	2b04      	cmp	r3, #4
 8009ba4:	dd73      	ble.n	8009c8e <_dtoa_r+0x8fe>
 8009ba6:	9b00      	ldr	r3, [sp, #0]
 8009ba8:	f1c0 001c 	rsb	r0, r0, #28
 8009bac:	4403      	add	r3, r0
 8009bae:	9300      	str	r3, [sp, #0]
 8009bb0:	9b06      	ldr	r3, [sp, #24]
 8009bb2:	4403      	add	r3, r0
 8009bb4:	4406      	add	r6, r0
 8009bb6:	9306      	str	r3, [sp, #24]
 8009bb8:	9b00      	ldr	r3, [sp, #0]
 8009bba:	2b00      	cmp	r3, #0
 8009bbc:	dd05      	ble.n	8009bca <_dtoa_r+0x83a>
 8009bbe:	9902      	ldr	r1, [sp, #8]
 8009bc0:	461a      	mov	r2, r3
 8009bc2:	4648      	mov	r0, r9
 8009bc4:	f001 f9f2 	bl	800afac <__lshift>
 8009bc8:	9002      	str	r0, [sp, #8]
 8009bca:	9b06      	ldr	r3, [sp, #24]
 8009bcc:	2b00      	cmp	r3, #0
 8009bce:	dd05      	ble.n	8009bdc <_dtoa_r+0x84c>
 8009bd0:	4621      	mov	r1, r4
 8009bd2:	461a      	mov	r2, r3
 8009bd4:	4648      	mov	r0, r9
 8009bd6:	f001 f9e9 	bl	800afac <__lshift>
 8009bda:	4604      	mov	r4, r0
 8009bdc:	9b10      	ldr	r3, [sp, #64]	@ 0x40
 8009bde:	2b00      	cmp	r3, #0
 8009be0:	d061      	beq.n	8009ca6 <_dtoa_r+0x916>
 8009be2:	9802      	ldr	r0, [sp, #8]
 8009be4:	4621      	mov	r1, r4
 8009be6:	f001 fa4d 	bl	800b084 <__mcmp>
 8009bea:	2800      	cmp	r0, #0
 8009bec:	da5b      	bge.n	8009ca6 <_dtoa_r+0x916>
 8009bee:	2300      	movs	r3, #0
 8009bf0:	9902      	ldr	r1, [sp, #8]
 8009bf2:	220a      	movs	r2, #10
 8009bf4:	4648      	mov	r0, r9
 8009bf6:	f000 ffeb 	bl	800abd0 <__multadd>
 8009bfa:	9b09      	ldr	r3, [sp, #36]	@ 0x24
 8009bfc:	9002      	str	r0, [sp, #8]
 8009bfe:	f107 38ff 	add.w	r8, r7, #4294967295	@ 0xffffffff
 8009c02:	2b00      	cmp	r3, #0
 8009c04:	f000 8177 	beq.w	8009ef6 <_dtoa_r+0xb66>
 8009c08:	4629      	mov	r1, r5
 8009c0a:	2300      	movs	r3, #0
 8009c0c:	220a      	movs	r2, #10
 8009c0e:	4648      	mov	r0, r9
 8009c10:	f000 ffde 	bl	800abd0 <__multadd>
 8009c14:	f1bb 0f00 	cmp.w	fp, #0
 8009c18:	4605      	mov	r5, r0
 8009c1a:	dc6f      	bgt.n	8009cfc <_dtoa_r+0x96c>
 8009c1c:	9b07      	ldr	r3, [sp, #28]
 8009c1e:	2b02      	cmp	r3, #2
 8009c20:	dc49      	bgt.n	8009cb6 <_dtoa_r+0x926>
 8009c22:	e06b      	b.n	8009cfc <_dtoa_r+0x96c>
 8009c24:	9b14      	ldr	r3, [sp, #80]	@ 0x50
 8009c26:	f1c3 0336 	rsb	r3, r3, #54	@ 0x36
 8009c2a:	e73c      	b.n	8009aa6 <_dtoa_r+0x716>
 8009c2c:	3fe00000 	.word	0x3fe00000
 8009c30:	40240000 	.word	0x40240000
 8009c34:	9b03      	ldr	r3, [sp, #12]
 8009c36:	1e5c      	subs	r4, r3, #1
 8009c38:	9b08      	ldr	r3, [sp, #32]
 8009c3a:	42a3      	cmp	r3, r4
 8009c3c:	db09      	blt.n	8009c52 <_dtoa_r+0x8c2>
 8009c3e:	1b1c      	subs	r4, r3, r4
 8009c40:	9b03      	ldr	r3, [sp, #12]
 8009c42:	2b00      	cmp	r3, #0
 8009c44:	f6bf af30 	bge.w	8009aa8 <_dtoa_r+0x718>
 8009c48:	9b00      	ldr	r3, [sp, #0]
 8009c4a:	9a03      	ldr	r2, [sp, #12]
 8009c4c:	1a9e      	subs	r6, r3, r2
 8009c4e:	2300      	movs	r3, #0
 8009c50:	e72b      	b.n	8009aaa <_dtoa_r+0x71a>
 8009c52:	9b08      	ldr	r3, [sp, #32]
 8009c54:	9a0d      	ldr	r2, [sp, #52]	@ 0x34
 8009c56:	9408      	str	r4, [sp, #32]
 8009c58:	1ae3      	subs	r3, r4, r3
 8009c5a:	441a      	add	r2, r3
 8009c5c:	9e00      	ldr	r6, [sp, #0]
 8009c5e:	9b03      	ldr	r3, [sp, #12]
 8009c60:	920d      	str	r2, [sp, #52]	@ 0x34
 8009c62:	2400      	movs	r4, #0
 8009c64:	e721      	b.n	8009aaa <_dtoa_r+0x71a>
 8009c66:	9c08      	ldr	r4, [sp, #32]
 8009c68:	9e00      	ldr	r6, [sp, #0]
 8009c6a:	9d09      	ldr	r5, [sp, #36]	@ 0x24
 8009c6c:	e728      	b.n	8009ac0 <_dtoa_r+0x730>
 8009c6e:	f8dd 8008 	ldr.w	r8, [sp, #8]
 8009c72:	e751      	b.n	8009b18 <_dtoa_r+0x788>
 8009c74:	9a08      	ldr	r2, [sp, #32]
 8009c76:	9902      	ldr	r1, [sp, #8]
 8009c78:	e750      	b.n	8009b1c <_dtoa_r+0x78c>
 8009c7a:	f8cd 8008 	str.w	r8, [sp, #8]
 8009c7e:	e751      	b.n	8009b24 <_dtoa_r+0x794>
 8009c80:	2300      	movs	r3, #0
 8009c82:	e779      	b.n	8009b78 <_dtoa_r+0x7e8>
 8009c84:	9b04      	ldr	r3, [sp, #16]
 8009c86:	e777      	b.n	8009b78 <_dtoa_r+0x7e8>
 8009c88:	2300      	movs	r3, #0
 8009c8a:	9308      	str	r3, [sp, #32]
 8009c8c:	e779      	b.n	8009b82 <_dtoa_r+0x7f2>
 8009c8e:	d093      	beq.n	8009bb8 <_dtoa_r+0x828>
 8009c90:	9a00      	ldr	r2, [sp, #0]
 8009c92:	331c      	adds	r3, #28
 8009c94:	441a      	add	r2, r3
 8009c96:	9200      	str	r2, [sp, #0]
 8009c98:	9a06      	ldr	r2, [sp, #24]
 8009c9a:	441a      	add	r2, r3
 8009c9c:	441e      	add	r6, r3
 8009c9e:	9206      	str	r2, [sp, #24]
 8009ca0:	e78a      	b.n	8009bb8 <_dtoa_r+0x828>
 8009ca2:	4603      	mov	r3, r0
 8009ca4:	e7f4      	b.n	8009c90 <_dtoa_r+0x900>
 8009ca6:	9b03      	ldr	r3, [sp, #12]
 8009ca8:	2b00      	cmp	r3, #0
 8009caa:	46b8      	mov	r8, r7
 8009cac:	dc20      	bgt.n	8009cf0 <_dtoa_r+0x960>
 8009cae:	469b      	mov	fp, r3
 8009cb0:	9b07      	ldr	r3, [sp, #28]
 8009cb2:	2b02      	cmp	r3, #2
 8009cb4:	dd1e      	ble.n	8009cf4 <_dtoa_r+0x964>
 8009cb6:	f1bb 0f00 	cmp.w	fp, #0
 8009cba:	f47f adb1 	bne.w	8009820 <_dtoa_r+0x490>
 8009cbe:	4621      	mov	r1, r4
 8009cc0:	465b      	mov	r3, fp
 8009cc2:	2205      	movs	r2, #5
 8009cc4:	4648      	mov	r0, r9
 8009cc6:	f000 ff83 	bl	800abd0 <__multadd>
 8009cca:	4601      	mov	r1, r0
 8009ccc:	4604      	mov	r4, r0
 8009cce:	9802      	ldr	r0, [sp, #8]
 8009cd0:	f001 f9d8 	bl	800b084 <__mcmp>
 8009cd4:	2800      	cmp	r0, #0
 8009cd6:	f77f ada3 	ble.w	8009820 <_dtoa_r+0x490>
 8009cda:	4656      	mov	r6, sl
 8009cdc:	2331      	movs	r3, #49	@ 0x31
 8009cde:	f806 3b01 	strb.w	r3, [r6], #1
 8009ce2:	f108 0801 	add.w	r8, r8, #1
 8009ce6:	e59f      	b.n	8009828 <_dtoa_r+0x498>
 8009ce8:	9c03      	ldr	r4, [sp, #12]
 8009cea:	46b8      	mov	r8, r7
 8009cec:	4625      	mov	r5, r4
 8009cee:	e7f4      	b.n	8009cda <_dtoa_r+0x94a>
 8009cf0:	f8dd b00c 	ldr.w	fp, [sp, #12]
 8009cf4:	9b09      	ldr	r3, [sp, #36]	@ 0x24
 8009cf6:	2b00      	cmp	r3, #0
 8009cf8:	f000 8101 	beq.w	8009efe <_dtoa_r+0xb6e>
 8009cfc:	2e00      	cmp	r6, #0
 8009cfe:	dd05      	ble.n	8009d0c <_dtoa_r+0x97c>
 8009d00:	4629      	mov	r1, r5
 8009d02:	4632      	mov	r2, r6
 8009d04:	4648      	mov	r0, r9
 8009d06:	f001 f951 	bl	800afac <__lshift>
 8009d0a:	4605      	mov	r5, r0
 8009d0c:	9b08      	ldr	r3, [sp, #32]
 8009d0e:	2b00      	cmp	r3, #0
 8009d10:	d05c      	beq.n	8009dcc <_dtoa_r+0xa3c>
 8009d12:	6869      	ldr	r1, [r5, #4]
 8009d14:	4648      	mov	r0, r9
 8009d16:	f000 fef9 	bl	800ab0c <_Balloc>
 8009d1a:	4606      	mov	r6, r0
 8009d1c:	b928      	cbnz	r0, 8009d2a <_dtoa_r+0x99a>
 8009d1e:	4b82      	ldr	r3, [pc, #520]	@ (8009f28 <_dtoa_r+0xb98>)
 8009d20:	4602      	mov	r2, r0
 8009d22:	f240 21ef 	movw	r1, #751	@ 0x2ef
 8009d26:	f7ff bb4a 	b.w	80093be <_dtoa_r+0x2e>
 8009d2a:	692a      	ldr	r2, [r5, #16]
 8009d2c:	3202      	adds	r2, #2
 8009d2e:	0092      	lsls	r2, r2, #2
 8009d30:	f105 010c 	add.w	r1, r5, #12
 8009d34:	300c      	adds	r0, #12
 8009d36:	f7ff fa8d 	bl	8009254 <memcpy>
 8009d3a:	2201      	movs	r2, #1
 8009d3c:	4631      	mov	r1, r6
 8009d3e:	4648      	mov	r0, r9
 8009d40:	f001 f934 	bl	800afac <__lshift>
 8009d44:	f10a 0301 	add.w	r3, sl, #1
 8009d48:	9300      	str	r3, [sp, #0]
 8009d4a:	eb0a 030b 	add.w	r3, sl, fp
 8009d4e:	9308      	str	r3, [sp, #32]
 8009d50:	9b04      	ldr	r3, [sp, #16]
 8009d52:	f003 0301 	and.w	r3, r3, #1
 8009d56:	462f      	mov	r7, r5
 8009d58:	9306      	str	r3, [sp, #24]
 8009d5a:	4605      	mov	r5, r0
 8009d5c:	9b00      	ldr	r3, [sp, #0]
 8009d5e:	9802      	ldr	r0, [sp, #8]
 8009d60:	4621      	mov	r1, r4
 8009d62:	f103 3bff 	add.w	fp, r3, #4294967295	@ 0xffffffff
 8009d66:	f7ff fa8b 	bl	8009280 <quorem>
 8009d6a:	4603      	mov	r3, r0
 8009d6c:	3330      	adds	r3, #48	@ 0x30
 8009d6e:	9003      	str	r0, [sp, #12]
 8009d70:	4639      	mov	r1, r7
 8009d72:	9802      	ldr	r0, [sp, #8]
 8009d74:	9309      	str	r3, [sp, #36]	@ 0x24
 8009d76:	f001 f985 	bl	800b084 <__mcmp>
 8009d7a:	462a      	mov	r2, r5
 8009d7c:	9004      	str	r0, [sp, #16]
 8009d7e:	4621      	mov	r1, r4
 8009d80:	4648      	mov	r0, r9
 8009d82:	f001 f99b 	bl	800b0bc <__mdiff>
 8009d86:	68c2      	ldr	r2, [r0, #12]
 8009d88:	9b09      	ldr	r3, [sp, #36]	@ 0x24
 8009d8a:	4606      	mov	r6, r0
 8009d8c:	bb02      	cbnz	r2, 8009dd0 <_dtoa_r+0xa40>
 8009d8e:	4601      	mov	r1, r0
 8009d90:	9802      	ldr	r0, [sp, #8]
 8009d92:	f001 f977 	bl	800b084 <__mcmp>
 8009d96:	9b09      	ldr	r3, [sp, #36]	@ 0x24
 8009d98:	4602      	mov	r2, r0
 8009d9a:	4631      	mov	r1, r6
 8009d9c:	4648      	mov	r0, r9
 8009d9e:	920c      	str	r2, [sp, #48]	@ 0x30
 8009da0:	9309      	str	r3, [sp, #36]	@ 0x24
 8009da2:	f000 fef3 	bl	800ab8c <_Bfree>
 8009da6:	9b07      	ldr	r3, [sp, #28]
 8009da8:	9a0c      	ldr	r2, [sp, #48]	@ 0x30
 8009daa:	9e00      	ldr	r6, [sp, #0]
 8009dac:	ea42 0103 	orr.w	r1, r2, r3
 8009db0:	9b06      	ldr	r3, [sp, #24]
 8009db2:	4319      	orrs	r1, r3
 8009db4:	9b09      	ldr	r3, [sp, #36]	@ 0x24
 8009db6:	d10d      	bne.n	8009dd4 <_dtoa_r+0xa44>
 8009db8:	2b39      	cmp	r3, #57	@ 0x39
 8009dba:	d027      	beq.n	8009e0c <_dtoa_r+0xa7c>
 8009dbc:	9a04      	ldr	r2, [sp, #16]
 8009dbe:	2a00      	cmp	r2, #0
 8009dc0:	dd01      	ble.n	8009dc6 <_dtoa_r+0xa36>
 8009dc2:	9b03      	ldr	r3, [sp, #12]
 8009dc4:	3331      	adds	r3, #49	@ 0x31
 8009dc6:	f88b 3000 	strb.w	r3, [fp]
 8009dca:	e52e      	b.n	800982a <_dtoa_r+0x49a>
 8009dcc:	4628      	mov	r0, r5
 8009dce:	e7b9      	b.n	8009d44 <_dtoa_r+0x9b4>
 8009dd0:	2201      	movs	r2, #1
 8009dd2:	e7e2      	b.n	8009d9a <_dtoa_r+0xa0a>
 8009dd4:	9904      	ldr	r1, [sp, #16]
 8009dd6:	2900      	cmp	r1, #0
 8009dd8:	db04      	blt.n	8009de4 <_dtoa_r+0xa54>
 8009dda:	9807      	ldr	r0, [sp, #28]
 8009ddc:	4301      	orrs	r1, r0
 8009dde:	9806      	ldr	r0, [sp, #24]
 8009de0:	4301      	orrs	r1, r0
 8009de2:	d120      	bne.n	8009e26 <_dtoa_r+0xa96>
 8009de4:	2a00      	cmp	r2, #0
 8009de6:	ddee      	ble.n	8009dc6 <_dtoa_r+0xa36>
 8009de8:	9902      	ldr	r1, [sp, #8]
 8009dea:	9300      	str	r3, [sp, #0]
 8009dec:	2201      	movs	r2, #1
 8009dee:	4648      	mov	r0, r9
 8009df0:	f001 f8dc 	bl	800afac <__lshift>
 8009df4:	4621      	mov	r1, r4
 8009df6:	9002      	str	r0, [sp, #8]
 8009df8:	f001 f944 	bl	800b084 <__mcmp>
 8009dfc:	2800      	cmp	r0, #0
 8009dfe:	9b00      	ldr	r3, [sp, #0]
 8009e00:	dc02      	bgt.n	8009e08 <_dtoa_r+0xa78>
 8009e02:	d1e0      	bne.n	8009dc6 <_dtoa_r+0xa36>
 8009e04:	07da      	lsls	r2, r3, #31
 8009e06:	d5de      	bpl.n	8009dc6 <_dtoa_r+0xa36>
 8009e08:	2b39      	cmp	r3, #57	@ 0x39
 8009e0a:	d1da      	bne.n	8009dc2 <_dtoa_r+0xa32>
 8009e0c:	2339      	movs	r3, #57	@ 0x39
 8009e0e:	f88b 3000 	strb.w	r3, [fp]
 8009e12:	4633      	mov	r3, r6
 8009e14:	461e      	mov	r6, r3
 8009e16:	3b01      	subs	r3, #1
 8009e18:	f816 2c01 	ldrb.w	r2, [r6, #-1]
 8009e1c:	2a39      	cmp	r2, #57	@ 0x39
 8009e1e:	d04e      	beq.n	8009ebe <_dtoa_r+0xb2e>
 8009e20:	3201      	adds	r2, #1
 8009e22:	701a      	strb	r2, [r3, #0]
 8009e24:	e501      	b.n	800982a <_dtoa_r+0x49a>
 8009e26:	2a00      	cmp	r2, #0
 8009e28:	dd03      	ble.n	8009e32 <_dtoa_r+0xaa2>
 8009e2a:	2b39      	cmp	r3, #57	@ 0x39
 8009e2c:	d0ee      	beq.n	8009e0c <_dtoa_r+0xa7c>
 8009e2e:	3301      	adds	r3, #1
 8009e30:	e7c9      	b.n	8009dc6 <_dtoa_r+0xa36>
 8009e32:	9a00      	ldr	r2, [sp, #0]
 8009e34:	9908      	ldr	r1, [sp, #32]
 8009e36:	f802 3c01 	strb.w	r3, [r2, #-1]
 8009e3a:	428a      	cmp	r2, r1
 8009e3c:	d028      	beq.n	8009e90 <_dtoa_r+0xb00>
 8009e3e:	9902      	ldr	r1, [sp, #8]
 8009e40:	2300      	movs	r3, #0
 8009e42:	220a      	movs	r2, #10
 8009e44:	4648      	mov	r0, r9
 8009e46:	f000 fec3 	bl	800abd0 <__multadd>
 8009e4a:	42af      	cmp	r7, r5
 8009e4c:	9002      	str	r0, [sp, #8]
 8009e4e:	f04f 0300 	mov.w	r3, #0
 8009e52:	f04f 020a 	mov.w	r2, #10
 8009e56:	4639      	mov	r1, r7
 8009e58:	4648      	mov	r0, r9
 8009e5a:	d107      	bne.n	8009e6c <_dtoa_r+0xadc>
 8009e5c:	f000 feb8 	bl	800abd0 <__multadd>
 8009e60:	4607      	mov	r7, r0
 8009e62:	4605      	mov	r5, r0
 8009e64:	9b00      	ldr	r3, [sp, #0]
 8009e66:	3301      	adds	r3, #1
 8009e68:	9300      	str	r3, [sp, #0]
 8009e6a:	e777      	b.n	8009d5c <_dtoa_r+0x9cc>
 8009e6c:	f000 feb0 	bl	800abd0 <__multadd>
 8009e70:	4629      	mov	r1, r5
 8009e72:	4607      	mov	r7, r0
 8009e74:	2300      	movs	r3, #0
 8009e76:	220a      	movs	r2, #10
 8009e78:	4648      	mov	r0, r9
 8009e7a:	f000 fea9 	bl	800abd0 <__multadd>
 8009e7e:	4605      	mov	r5, r0
 8009e80:	e7f0      	b.n	8009e64 <_dtoa_r+0xad4>
 8009e82:	f1bb 0f00 	cmp.w	fp, #0
 8009e86:	bfcc      	ite	gt
 8009e88:	465e      	movgt	r6, fp
 8009e8a:	2601      	movle	r6, #1
 8009e8c:	4456      	add	r6, sl
 8009e8e:	2700      	movs	r7, #0
 8009e90:	9902      	ldr	r1, [sp, #8]
 8009e92:	9300      	str	r3, [sp, #0]
 8009e94:	2201      	movs	r2, #1
 8009e96:	4648      	mov	r0, r9
 8009e98:	f001 f888 	bl	800afac <__lshift>
 8009e9c:	4621      	mov	r1, r4
 8009e9e:	9002      	str	r0, [sp, #8]
 8009ea0:	f001 f8f0 	bl	800b084 <__mcmp>
 8009ea4:	2800      	cmp	r0, #0
 8009ea6:	dcb4      	bgt.n	8009e12 <_dtoa_r+0xa82>
 8009ea8:	d102      	bne.n	8009eb0 <_dtoa_r+0xb20>
 8009eaa:	9b00      	ldr	r3, [sp, #0]
 8009eac:	07db      	lsls	r3, r3, #31
 8009eae:	d4b0      	bmi.n	8009e12 <_dtoa_r+0xa82>
 8009eb0:	4633      	mov	r3, r6
 8009eb2:	461e      	mov	r6, r3
 8009eb4:	f813 2d01 	ldrb.w	r2, [r3, #-1]!
 8009eb8:	2a30      	cmp	r2, #48	@ 0x30
 8009eba:	d0fa      	beq.n	8009eb2 <_dtoa_r+0xb22>
 8009ebc:	e4b5      	b.n	800982a <_dtoa_r+0x49a>
 8009ebe:	459a      	cmp	sl, r3
 8009ec0:	d1a8      	bne.n	8009e14 <_dtoa_r+0xa84>
 8009ec2:	2331      	movs	r3, #49	@ 0x31
 8009ec4:	f108 0801 	add.w	r8, r8, #1
 8009ec8:	f88a 3000 	strb.w	r3, [sl]
 8009ecc:	e4ad      	b.n	800982a <_dtoa_r+0x49a>
 8009ece:	9b21      	ldr	r3, [sp, #132]	@ 0x84
 8009ed0:	f8df a058 	ldr.w	sl, [pc, #88]	@ 8009f2c <_dtoa_r+0xb9c>
 8009ed4:	b11b      	cbz	r3, 8009ede <_dtoa_r+0xb4e>
 8009ed6:	f10a 0308 	add.w	r3, sl, #8
 8009eda:	9a21      	ldr	r2, [sp, #132]	@ 0x84
 8009edc:	6013      	str	r3, [r2, #0]
 8009ede:	4650      	mov	r0, sl
 8009ee0:	b017      	add	sp, #92	@ 0x5c
 8009ee2:	e8bd 8ff0 	ldmia.w	sp!, {r4, r5, r6, r7, r8, r9, sl, fp, pc}
 8009ee6:	9b07      	ldr	r3, [sp, #28]
 8009ee8:	2b01      	cmp	r3, #1
 8009eea:	f77f ae2e 	ble.w	8009b4a <_dtoa_r+0x7ba>
 8009eee:	9b0d      	ldr	r3, [sp, #52]	@ 0x34
 8009ef0:	9308      	str	r3, [sp, #32]
 8009ef2:	2001      	movs	r0, #1
 8009ef4:	e64d      	b.n	8009b92 <_dtoa_r+0x802>
 8009ef6:	f1bb 0f00 	cmp.w	fp, #0
 8009efa:	f77f aed9 	ble.w	8009cb0 <_dtoa_r+0x920>
 8009efe:	4656      	mov	r6, sl
 8009f00:	9802      	ldr	r0, [sp, #8]
 8009f02:	4621      	mov	r1, r4
 8009f04:	f7ff f9bc 	bl	8009280 <quorem>
 8009f08:	f100 0330 	add.w	r3, r0, #48	@ 0x30
 8009f0c:	f806 3b01 	strb.w	r3, [r6], #1
 8009f10:	eba6 020a 	sub.w	r2, r6, sl
 8009f14:	4593      	cmp	fp, r2
 8009f16:	ddb4      	ble.n	8009e82 <_dtoa_r+0xaf2>
 8009f18:	9902      	ldr	r1, [sp, #8]
 8009f1a:	2300      	movs	r3, #0
 8009f1c:	220a      	movs	r2, #10
 8009f1e:	4648      	mov	r0, r9
 8009f20:	f000 fe56 	bl	800abd0 <__multadd>
 8009f24:	9002      	str	r0, [sp, #8]
 8009f26:	e7eb      	b.n	8009f00 <_dtoa_r+0xb70>
 8009f28:	0800bafa 	.word	0x0800bafa
 8009f2c:	0800ba7e 	.word	0x0800ba7e

08009f30 <rshift>:
 8009f30:	6903      	ldr	r3, [r0, #16]
 8009f32:	ebb3 1f61 	cmp.w	r3, r1, asr #5
 8009f36:	e92d 43f0 	stmdb	sp!, {r4, r5, r6, r7, r8, r9, lr}
 8009f3a:	ea4f 1261 	mov.w	r2, r1, asr #5
 8009f3e:	f100 0414 	add.w	r4, r0, #20
 8009f42:	dd45      	ble.n	8009fd0 <rshift+0xa0>
 8009f44:	f011 011f 	ands.w	r1, r1, #31
 8009f48:	eb04 0683 	add.w	r6, r4, r3, lsl #2
 8009f4c:	eb04 0582 	add.w	r5, r4, r2, lsl #2
 8009f50:	d10c      	bne.n	8009f6c <rshift+0x3c>
 8009f52:	f100 0710 	add.w	r7, r0, #16
 8009f56:	4629      	mov	r1, r5
 8009f58:	42b1      	cmp	r1, r6
 8009f5a:	d334      	bcc.n	8009fc6 <rshift+0x96>
 8009f5c:	1a9b      	subs	r3, r3, r2
 8009f5e:	009b      	lsls	r3, r3, #2
 8009f60:	1eea      	subs	r2, r5, #3
 8009f62:	4296      	cmp	r6, r2
 8009f64:	bf38      	it	cc
 8009f66:	2300      	movcc	r3, #0
 8009f68:	4423      	add	r3, r4
 8009f6a:	e015      	b.n	8009f98 <rshift+0x68>
 8009f6c:	f854 7022 	ldr.w	r7, [r4, r2, lsl #2]
 8009f70:	f1c1 0820 	rsb	r8, r1, #32
 8009f74:	40cf      	lsrs	r7, r1
 8009f76:	f105 0e04 	add.w	lr, r5, #4
 8009f7a:	46a1      	mov	r9, r4
 8009f7c:	4576      	cmp	r6, lr
 8009f7e:	46f4      	mov	ip, lr
 8009f80:	d815      	bhi.n	8009fae <rshift+0x7e>
 8009f82:	1a9a      	subs	r2, r3, r2
 8009f84:	0092      	lsls	r2, r2, #2
 8009f86:	3a04      	subs	r2, #4
 8009f88:	3501      	adds	r5, #1
 8009f8a:	42ae      	cmp	r6, r5
 8009f8c:	bf38      	it	cc
 8009f8e:	2200      	movcc	r2, #0
 8009f90:	18a3      	adds	r3, r4, r2
 8009f92:	50a7      	str	r7, [r4, r2]
 8009f94:	b107      	cbz	r7, 8009f98 <rshift+0x68>
 8009f96:	3304      	adds	r3, #4
 8009f98:	1b1a      	subs	r2, r3, r4
 8009f9a:	42a3      	cmp	r3, r4
 8009f9c:	ea4f 02a2 	mov.w	r2, r2, asr #2
 8009fa0:	bf08      	it	eq
 8009fa2:	2300      	moveq	r3, #0
 8009fa4:	6102      	str	r2, [r0, #16]
 8009fa6:	bf08      	it	eq
 8009fa8:	6143      	streq	r3, [r0, #20]
 8009faa:	e8bd 83f0 	ldmia.w	sp!, {r4, r5, r6, r7, r8, r9, pc}
 8009fae:	f8dc c000 	ldr.w	ip, [ip]
 8009fb2:	fa0c fc08 	lsl.w	ip, ip, r8
 8009fb6:	ea4c 0707 	orr.w	r7, ip, r7
 8009fba:	f849 7b04 	str.w	r7, [r9], #4
 8009fbe:	f85e 7b04 	ldr.w	r7, [lr], #4
 8009fc2:	40cf      	lsrs	r7, r1
 8009fc4:	e7da      	b.n	8009f7c <rshift+0x4c>
 8009fc6:	f851 cb04 	ldr.w	ip, [r1], #4
 8009fca:	f847 cf04 	str.w	ip, [r7, #4]!
 8009fce:	e7c3      	b.n	8009f58 <rshift+0x28>
 8009fd0:	4623      	mov	r3, r4
 8009fd2:	e7e1      	b.n	8009f98 <rshift+0x68>

08009fd4 <__hexdig_fun>:
 8009fd4:	f1a0 0330 	sub.w	r3, r0, #48	@ 0x30
 8009fd8:	2b09      	cmp	r3, #9
 8009fda:	d802      	bhi.n	8009fe2 <__hexdig_fun+0xe>
 8009fdc:	3820      	subs	r0, #32
 8009fde:	b2c0      	uxtb	r0, r0
 8009fe0:	4770      	bx	lr
 8009fe2:	f1a0 0361 	sub.w	r3, r0, #97	@ 0x61
 8009fe6:	2b05      	cmp	r3, #5
 8009fe8:	d801      	bhi.n	8009fee <__hexdig_fun+0x1a>
 8009fea:	3847      	subs	r0, #71	@ 0x47
 8009fec:	e7f7      	b.n	8009fde <__hexdig_fun+0xa>
 8009fee:	f1a0 0341 	sub.w	r3, r0, #65	@ 0x41
 8009ff2:	2b05      	cmp	r3, #5
 8009ff4:	d801      	bhi.n	8009ffa <__hexdig_fun+0x26>
 8009ff6:	3827      	subs	r0, #39	@ 0x27
 8009ff8:	e7f1      	b.n	8009fde <__hexdig_fun+0xa>
 8009ffa:	2000      	movs	r0, #0
 8009ffc:	4770      	bx	lr
	...

0800a000 <__gethex>:
 800a000:	e92d 4ff0 	stmdb	sp!, {r4, r5, r6, r7, r8, r9, sl, fp, lr}
 800a004:	b085      	sub	sp, #20
 800a006:	468a      	mov	sl, r1
 800a008:	9302      	str	r3, [sp, #8]
 800a00a:	680b      	ldr	r3, [r1, #0]
 800a00c:	9001      	str	r0, [sp, #4]
 800a00e:	4690      	mov	r8, r2
 800a010:	1c9c      	adds	r4, r3, #2
 800a012:	46a1      	mov	r9, r4
 800a014:	f814 0b01 	ldrb.w	r0, [r4], #1
 800a018:	2830      	cmp	r0, #48	@ 0x30
 800a01a:	d0fa      	beq.n	800a012 <__gethex+0x12>
 800a01c:	eba9 0303 	sub.w	r3, r9, r3
 800a020:	f1a3 0b02 	sub.w	fp, r3, #2
 800a024:	f7ff ffd6 	bl	8009fd4 <__hexdig_fun>
 800a028:	4605      	mov	r5, r0
 800a02a:	2800      	cmp	r0, #0
 800a02c:	d168      	bne.n	800a100 <__gethex+0x100>
 800a02e:	49a0      	ldr	r1, [pc, #640]	@ (800a2b0 <__gethex+0x2b0>)
 800a030:	2201      	movs	r2, #1
 800a032:	4648      	mov	r0, r9
 800a034:	f7ff f8ca 	bl	80091cc <strncmp>
 800a038:	4607      	mov	r7, r0
 800a03a:	2800      	cmp	r0, #0
 800a03c:	d167      	bne.n	800a10e <__gethex+0x10e>
 800a03e:	f899 0001 	ldrb.w	r0, [r9, #1]
 800a042:	4626      	mov	r6, r4
 800a044:	f7ff ffc6 	bl	8009fd4 <__hexdig_fun>
 800a048:	2800      	cmp	r0, #0
 800a04a:	d062      	beq.n	800a112 <__gethex+0x112>
 800a04c:	4623      	mov	r3, r4
 800a04e:	7818      	ldrb	r0, [r3, #0]
 800a050:	2830      	cmp	r0, #48	@ 0x30
 800a052:	4699      	mov	r9, r3
 800a054:	f103 0301 	add.w	r3, r3, #1
 800a058:	d0f9      	beq.n	800a04e <__gethex+0x4e>
 800a05a:	f7ff ffbb 	bl	8009fd4 <__hexdig_fun>
 800a05e:	fab0 f580 	clz	r5, r0
 800a062:	096d      	lsrs	r5, r5, #5
 800a064:	f04f 0b01 	mov.w	fp, #1
 800a068:	464a      	mov	r2, r9
 800a06a:	4616      	mov	r6, r2
 800a06c:	3201      	adds	r2, #1
 800a06e:	7830      	ldrb	r0, [r6, #0]
 800a070:	f7ff ffb0 	bl	8009fd4 <__hexdig_fun>
 800a074:	2800      	cmp	r0, #0
 800a076:	d1f8      	bne.n	800a06a <__gethex+0x6a>
 800a078:	498d      	ldr	r1, [pc, #564]	@ (800a2b0 <__gethex+0x2b0>)
 800a07a:	2201      	movs	r2, #1
 800a07c:	4630      	mov	r0, r6
 800a07e:	f7ff f8a5 	bl	80091cc <strncmp>
 800a082:	2800      	cmp	r0, #0
 800a084:	d13f      	bne.n	800a106 <__gethex+0x106>
 800a086:	b944      	cbnz	r4, 800a09a <__gethex+0x9a>
 800a088:	1c74      	adds	r4, r6, #1
 800a08a:	4622      	mov	r2, r4
 800a08c:	4616      	mov	r6, r2
 800a08e:	3201      	adds	r2, #1
 800a090:	7830      	ldrb	r0, [r6, #0]
 800a092:	f7ff ff9f 	bl	8009fd4 <__hexdig_fun>
 800a096:	2800      	cmp	r0, #0
 800a098:	d1f8      	bne.n	800a08c <__gethex+0x8c>
 800a09a:	1ba4      	subs	r4, r4, r6
 800a09c:	00a7      	lsls	r7, r4, #2
 800a09e:	7833      	ldrb	r3, [r6, #0]
 800a0a0:	f003 03df 	and.w	r3, r3, #223	@ 0xdf
 800a0a4:	2b50      	cmp	r3, #80	@ 0x50
 800a0a6:	d13e      	bne.n	800a126 <__gethex+0x126>
 800a0a8:	7873      	ldrb	r3, [r6, #1]
 800a0aa:	2b2b      	cmp	r3, #43	@ 0x2b
 800a0ac:	d033      	beq.n	800a116 <__gethex+0x116>
 800a0ae:	2b2d      	cmp	r3, #45	@ 0x2d
 800a0b0:	d034      	beq.n	800a11c <__gethex+0x11c>
 800a0b2:	1c71      	adds	r1, r6, #1
 800a0b4:	2400      	movs	r4, #0
 800a0b6:	7808      	ldrb	r0, [r1, #0]
 800a0b8:	f7ff ff8c 	bl	8009fd4 <__hexdig_fun>
 800a0bc:	1e43      	subs	r3, r0, #1
 800a0be:	b2db      	uxtb	r3, r3
 800a0c0:	2b18      	cmp	r3, #24
 800a0c2:	d830      	bhi.n	800a126 <__gethex+0x126>
 800a0c4:	f1a0 0210 	sub.w	r2, r0, #16
 800a0c8:	f811 0f01 	ldrb.w	r0, [r1, #1]!
 800a0cc:	f7ff ff82 	bl	8009fd4 <__hexdig_fun>
 800a0d0:	f100 3cff 	add.w	ip, r0, #4294967295	@ 0xffffffff
 800a0d4:	fa5f fc8c 	uxtb.w	ip, ip
 800a0d8:	f1bc 0f18 	cmp.w	ip, #24
 800a0dc:	f04f 030a 	mov.w	r3, #10
 800a0e0:	d91e      	bls.n	800a120 <__gethex+0x120>
 800a0e2:	b104      	cbz	r4, 800a0e6 <__gethex+0xe6>
 800a0e4:	4252      	negs	r2, r2
 800a0e6:	4417      	add	r7, r2
 800a0e8:	f8ca 1000 	str.w	r1, [sl]
 800a0ec:	b1ed      	cbz	r5, 800a12a <__gethex+0x12a>
 800a0ee:	f1bb 0f00 	cmp.w	fp, #0
 800a0f2:	bf0c      	ite	eq
 800a0f4:	2506      	moveq	r5, #6
 800a0f6:	2500      	movne	r5, #0
 800a0f8:	4628      	mov	r0, r5
 800a0fa:	b005      	add	sp, #20
 800a0fc:	e8bd 8ff0 	ldmia.w	sp!, {r4, r5, r6, r7, r8, r9, sl, fp, pc}
 800a100:	2500      	movs	r5, #0
 800a102:	462c      	mov	r4, r5
 800a104:	e7b0      	b.n	800a068 <__gethex+0x68>
 800a106:	2c00      	cmp	r4, #0
 800a108:	d1c7      	bne.n	800a09a <__gethex+0x9a>
 800a10a:	4627      	mov	r7, r4
 800a10c:	e7c7      	b.n	800a09e <__gethex+0x9e>
 800a10e:	464e      	mov	r6, r9
 800a110:	462f      	mov	r7, r5
 800a112:	2501      	movs	r5, #1
 800a114:	e7c3      	b.n	800a09e <__gethex+0x9e>
 800a116:	2400      	movs	r4, #0
 800a118:	1cb1      	adds	r1, r6, #2
 800a11a:	e7cc      	b.n	800a0b6 <__gethex+0xb6>
 800a11c:	2401      	movs	r4, #1
 800a11e:	e7fb      	b.n	800a118 <__gethex+0x118>
 800a120:	fb03 0002 	mla	r0, r3, r2, r0
 800a124:	e7ce      	b.n	800a0c4 <__gethex+0xc4>
 800a126:	4631      	mov	r1, r6
 800a128:	e7de      	b.n	800a0e8 <__gethex+0xe8>
 800a12a:	eba6 0309 	sub.w	r3, r6, r9
 800a12e:	3b01      	subs	r3, #1
 800a130:	4629      	mov	r1, r5
 800a132:	2b07      	cmp	r3, #7
 800a134:	dc0a      	bgt.n	800a14c <__gethex+0x14c>
 800a136:	9801      	ldr	r0, [sp, #4]
 800a138:	f000 fce8 	bl	800ab0c <_Balloc>
 800a13c:	4604      	mov	r4, r0
 800a13e:	b940      	cbnz	r0, 800a152 <__gethex+0x152>
 800a140:	4b5c      	ldr	r3, [pc, #368]	@ (800a2b4 <__gethex+0x2b4>)
 800a142:	4602      	mov	r2, r0
 800a144:	21e4      	movs	r1, #228	@ 0xe4
 800a146:	485c      	ldr	r0, [pc, #368]	@ (800a2b8 <__gethex+0x2b8>)
 800a148:	f001 fb4a 	bl	800b7e0 <__assert_func>
 800a14c:	3101      	adds	r1, #1
 800a14e:	105b      	asrs	r3, r3, #1
 800a150:	e7ef      	b.n	800a132 <__gethex+0x132>
 800a152:	f100 0a14 	add.w	sl, r0, #20
 800a156:	2300      	movs	r3, #0
 800a158:	4655      	mov	r5, sl
 800a15a:	469b      	mov	fp, r3
 800a15c:	45b1      	cmp	r9, r6
 800a15e:	d337      	bcc.n	800a1d0 <__gethex+0x1d0>
 800a160:	f845 bb04 	str.w	fp, [r5], #4
 800a164:	eba5 050a 	sub.w	r5, r5, sl
 800a168:	10ad      	asrs	r5, r5, #2
 800a16a:	6125      	str	r5, [r4, #16]
 800a16c:	4658      	mov	r0, fp
 800a16e:	f000 fdbf 	bl	800acf0 <__hi0bits>
 800a172:	016d      	lsls	r5, r5, #5
 800a174:	f8d8 6000 	ldr.w	r6, [r8]
 800a178:	1a2d      	subs	r5, r5, r0
 800a17a:	42b5      	cmp	r5, r6
 800a17c:	dd54      	ble.n	800a228 <__gethex+0x228>
 800a17e:	1bad      	subs	r5, r5, r6
 800a180:	4629      	mov	r1, r5
 800a182:	4620      	mov	r0, r4
 800a184:	f001 f94b 	bl	800b41e <__any_on>
 800a188:	4681      	mov	r9, r0
 800a18a:	b178      	cbz	r0, 800a1ac <__gethex+0x1ac>
 800a18c:	1e6b      	subs	r3, r5, #1
 800a18e:	1159      	asrs	r1, r3, #5
 800a190:	f003 021f 	and.w	r2, r3, #31
 800a194:	f85a 1021 	ldr.w	r1, [sl, r1, lsl #2]
 800a198:	f04f 0901 	mov.w	r9, #1
 800a19c:	fa09 f202 	lsl.w	r2, r9, r2
 800a1a0:	420a      	tst	r2, r1
 800a1a2:	d003      	beq.n	800a1ac <__gethex+0x1ac>
 800a1a4:	454b      	cmp	r3, r9
 800a1a6:	dc36      	bgt.n	800a216 <__gethex+0x216>
 800a1a8:	f04f 0902 	mov.w	r9, #2
 800a1ac:	4629      	mov	r1, r5
 800a1ae:	4620      	mov	r0, r4
 800a1b0:	f7ff febe 	bl	8009f30 <rshift>
 800a1b4:	442f      	add	r7, r5
 800a1b6:	f8d8 3008 	ldr.w	r3, [r8, #8]
 800a1ba:	42bb      	cmp	r3, r7
 800a1bc:	da42      	bge.n	800a244 <__gethex+0x244>
 800a1be:	9801      	ldr	r0, [sp, #4]
 800a1c0:	4621      	mov	r1, r4
 800a1c2:	f000 fce3 	bl	800ab8c <_Bfree>
 800a1c6:	9a0e      	ldr	r2, [sp, #56]	@ 0x38
 800a1c8:	2300      	movs	r3, #0
 800a1ca:	6013      	str	r3, [r2, #0]
 800a1cc:	25a3      	movs	r5, #163	@ 0xa3
 800a1ce:	e793      	b.n	800a0f8 <__gethex+0xf8>
 800a1d0:	f816 2d01 	ldrb.w	r2, [r6, #-1]!
 800a1d4:	2a2e      	cmp	r2, #46	@ 0x2e
 800a1d6:	d012      	beq.n	800a1fe <__gethex+0x1fe>
 800a1d8:	2b20      	cmp	r3, #32
 800a1da:	d104      	bne.n	800a1e6 <__gethex+0x1e6>
 800a1dc:	f845 bb04 	str.w	fp, [r5], #4
 800a1e0:	f04f 0b00 	mov.w	fp, #0
 800a1e4:	465b      	mov	r3, fp
 800a1e6:	7830      	ldrb	r0, [r6, #0]
 800a1e8:	9303      	str	r3, [sp, #12]
 800a1ea:	f7ff fef3 	bl	8009fd4 <__hexdig_fun>
 800a1ee:	9b03      	ldr	r3, [sp, #12]
 800a1f0:	f000 000f 	and.w	r0, r0, #15
 800a1f4:	4098      	lsls	r0, r3
 800a1f6:	ea4b 0b00 	orr.w	fp, fp, r0
 800a1fa:	3304      	adds	r3, #4
 800a1fc:	e7ae      	b.n	800a15c <__gethex+0x15c>
 800a1fe:	45b1      	cmp	r9, r6
 800a200:	d8ea      	bhi.n	800a1d8 <__gethex+0x1d8>
 800a202:	492b      	ldr	r1, [pc, #172]	@ (800a2b0 <__gethex+0x2b0>)
 800a204:	9303      	str	r3, [sp, #12]
 800a206:	2201      	movs	r2, #1
 800a208:	4630      	mov	r0, r6
 800a20a:	f7fe ffdf 	bl	80091cc <strncmp>
 800a20e:	9b03      	ldr	r3, [sp, #12]
 800a210:	2800      	cmp	r0, #0
 800a212:	d1e1      	bne.n	800a1d8 <__gethex+0x1d8>
 800a214:	e7a2      	b.n	800a15c <__gethex+0x15c>
 800a216:	1ea9      	subs	r1, r5, #2
 800a218:	4620      	mov	r0, r4
 800a21a:	f001 f900 	bl	800b41e <__any_on>
 800a21e:	2800      	cmp	r0, #0
 800a220:	d0c2      	beq.n	800a1a8 <__gethex+0x1a8>
 800a222:	f04f 0903 	mov.w	r9, #3
 800a226:	e7c1      	b.n	800a1ac <__gethex+0x1ac>
 800a228:	da09      	bge.n	800a23e <__gethex+0x23e>
 800a22a:	1b75      	subs	r5, r6, r5
 800a22c:	4621      	mov	r1, r4
 800a22e:	9801      	ldr	r0, [sp, #4]
 800a230:	462a      	mov	r2, r5
 800a232:	f000 febb 	bl	800afac <__lshift>
 800a236:	1b7f      	subs	r7, r7, r5
 800a238:	4604      	mov	r4, r0
 800a23a:	f100 0a14 	add.w	sl, r0, #20
 800a23e:	f04f 0900 	mov.w	r9, #0
 800a242:	e7b8      	b.n	800a1b6 <__gethex+0x1b6>
 800a244:	f8d8 5004 	ldr.w	r5, [r8, #4]
 800a248:	42bd      	cmp	r5, r7
 800a24a:	dd6f      	ble.n	800a32c <__gethex+0x32c>
 800a24c:	1bed      	subs	r5, r5, r7
 800a24e:	42ae      	cmp	r6, r5
 800a250:	dc34      	bgt.n	800a2bc <__gethex+0x2bc>
 800a252:	f8d8 300c 	ldr.w	r3, [r8, #12]
 800a256:	2b02      	cmp	r3, #2
 800a258:	d022      	beq.n	800a2a0 <__gethex+0x2a0>
 800a25a:	2b03      	cmp	r3, #3
 800a25c:	d024      	beq.n	800a2a8 <__gethex+0x2a8>
 800a25e:	2b01      	cmp	r3, #1
 800a260:	d115      	bne.n	800a28e <__gethex+0x28e>
 800a262:	42ae      	cmp	r6, r5
 800a264:	d113      	bne.n	800a28e <__gethex+0x28e>
 800a266:	2e01      	cmp	r6, #1
 800a268:	d10b      	bne.n	800a282 <__gethex+0x282>
 800a26a:	9a02      	ldr	r2, [sp, #8]
 800a26c:	f8d8 3004 	ldr.w	r3, [r8, #4]
 800a270:	6013      	str	r3, [r2, #0]
 800a272:	2301      	movs	r3, #1
 800a274:	6123      	str	r3, [r4, #16]
 800a276:	f8ca 3000 	str.w	r3, [sl]
 800a27a:	9b0e      	ldr	r3, [sp, #56]	@ 0x38
 800a27c:	2562      	movs	r5, #98	@ 0x62
 800a27e:	601c      	str	r4, [r3, #0]
 800a280:	e73a      	b.n	800a0f8 <__gethex+0xf8>
 800a282:	1e71      	subs	r1, r6, #1
 800a284:	4620      	mov	r0, r4
 800a286:	f001 f8ca 	bl	800b41e <__any_on>
 800a28a:	2800      	cmp	r0, #0
 800a28c:	d1ed      	bne.n	800a26a <__gethex+0x26a>
 800a28e:	9801      	ldr	r0, [sp, #4]
 800a290:	4621      	mov	r1, r4
 800a292:	f000 fc7b 	bl	800ab8c <_Bfree>
 800a296:	9a0e      	ldr	r2, [sp, #56]	@ 0x38
 800a298:	2300      	movs	r3, #0
 800a29a:	6013      	str	r3, [r2, #0]
 800a29c:	2550      	movs	r5, #80	@ 0x50
 800a29e:	e72b      	b.n	800a0f8 <__gethex+0xf8>
 800a2a0:	9b0f      	ldr	r3, [sp, #60]	@ 0x3c
 800a2a2:	2b00      	cmp	r3, #0
 800a2a4:	d1f3      	bne.n	800a28e <__gethex+0x28e>
 800a2a6:	e7e0      	b.n	800a26a <__gethex+0x26a>
 800a2a8:	9b0f      	ldr	r3, [sp, #60]	@ 0x3c
 800a2aa:	2b00      	cmp	r3, #0
 800a2ac:	d1dd      	bne.n	800a26a <__gethex+0x26a>
 800a2ae:	e7ee      	b.n	800a28e <__gethex+0x28e>
 800a2b0:	0800ba74 	.word	0x0800ba74
 800a2b4:	0800bafa 	.word	0x0800bafa
 800a2b8:	0800bb0b 	.word	0x0800bb0b
 800a2bc:	1e6f      	subs	r7, r5, #1
 800a2be:	f1b9 0f00 	cmp.w	r9, #0
 800a2c2:	d130      	bne.n	800a326 <__gethex+0x326>
 800a2c4:	b127      	cbz	r7, 800a2d0 <__gethex+0x2d0>
 800a2c6:	4639      	mov	r1, r7
 800a2c8:	4620      	mov	r0, r4
 800a2ca:	f001 f8a8 	bl	800b41e <__any_on>
 800a2ce:	4681      	mov	r9, r0
 800a2d0:	117a      	asrs	r2, r7, #5
 800a2d2:	2301      	movs	r3, #1
 800a2d4:	f85a 2022 	ldr.w	r2, [sl, r2, lsl #2]
 800a2d8:	f007 071f 	and.w	r7, r7, #31
 800a2dc:	40bb      	lsls	r3, r7
 800a2de:	4213      	tst	r3, r2
 800a2e0:	4629      	mov	r1, r5
 800a2e2:	4620      	mov	r0, r4
 800a2e4:	bf18      	it	ne
 800a2e6:	f049 0902 	orrne.w	r9, r9, #2
 800a2ea:	f7ff fe21 	bl	8009f30 <rshift>
 800a2ee:	f8d8 7004 	ldr.w	r7, [r8, #4]
 800a2f2:	1b76      	subs	r6, r6, r5
 800a2f4:	2502      	movs	r5, #2
 800a2f6:	f1b9 0f00 	cmp.w	r9, #0
 800a2fa:	d047      	beq.n	800a38c <__gethex+0x38c>
 800a2fc:	f8d8 300c 	ldr.w	r3, [r8, #12]
 800a300:	2b02      	cmp	r3, #2
 800a302:	d015      	beq.n	800a330 <__gethex+0x330>
 800a304:	2b03      	cmp	r3, #3
 800a306:	d017      	beq.n	800a338 <__gethex+0x338>
 800a308:	2b01      	cmp	r3, #1
 800a30a:	d109      	bne.n	800a320 <__gethex+0x320>
 800a30c:	f019 0f02 	tst.w	r9, #2
 800a310:	d006      	beq.n	800a320 <__gethex+0x320>
 800a312:	f8da 3000 	ldr.w	r3, [sl]
 800a316:	ea49 0903 	orr.w	r9, r9, r3
 800a31a:	f019 0f01 	tst.w	r9, #1
 800a31e:	d10e      	bne.n	800a33e <__gethex+0x33e>
 800a320:	f045 0510 	orr.w	r5, r5, #16
 800a324:	e032      	b.n	800a38c <__gethex+0x38c>
 800a326:	f04f 0901 	mov.w	r9, #1
 800a32a:	e7d1      	b.n	800a2d0 <__gethex+0x2d0>
 800a32c:	2501      	movs	r5, #1
 800a32e:	e7e2      	b.n	800a2f6 <__gethex+0x2f6>
 800a330:	9b0f      	ldr	r3, [sp, #60]	@ 0x3c
 800a332:	f1c3 0301 	rsb	r3, r3, #1
 800a336:	930f      	str	r3, [sp, #60]	@ 0x3c
 800a338:	9b0f      	ldr	r3, [sp, #60]	@ 0x3c
 800a33a:	2b00      	cmp	r3, #0
 800a33c:	d0f0      	beq.n	800a320 <__gethex+0x320>
 800a33e:	f8d4 b010 	ldr.w	fp, [r4, #16]
 800a342:	f104 0314 	add.w	r3, r4, #20
 800a346:	ea4f 0a8b 	mov.w	sl, fp, lsl #2
 800a34a:	eb03 018b 	add.w	r1, r3, fp, lsl #2
 800a34e:	f04f 0c00 	mov.w	ip, #0
 800a352:	4618      	mov	r0, r3
 800a354:	f853 2b04 	ldr.w	r2, [r3], #4
 800a358:	f1b2 3fff 	cmp.w	r2, #4294967295	@ 0xffffffff
 800a35c:	d01b      	beq.n	800a396 <__gethex+0x396>
 800a35e:	3201      	adds	r2, #1
 800a360:	6002      	str	r2, [r0, #0]
 800a362:	2d02      	cmp	r5, #2
 800a364:	f104 0314 	add.w	r3, r4, #20
 800a368:	d13c      	bne.n	800a3e4 <__gethex+0x3e4>
 800a36a:	f8d8 2000 	ldr.w	r2, [r8]
 800a36e:	3a01      	subs	r2, #1
 800a370:	42b2      	cmp	r2, r6
 800a372:	d109      	bne.n	800a388 <__gethex+0x388>
 800a374:	1171      	asrs	r1, r6, #5
 800a376:	2201      	movs	r2, #1
 800a378:	f853 3021 	ldr.w	r3, [r3, r1, lsl #2]
 800a37c:	f006 061f 	and.w	r6, r6, #31
 800a380:	fa02 f606 	lsl.w	r6, r2, r6
 800a384:	421e      	tst	r6, r3
 800a386:	d13a      	bne.n	800a3fe <__gethex+0x3fe>
 800a388:	f045 0520 	orr.w	r5, r5, #32
 800a38c:	9b0e      	ldr	r3, [sp, #56]	@ 0x38
 800a38e:	601c      	str	r4, [r3, #0]
 800a390:	9b02      	ldr	r3, [sp, #8]
 800a392:	601f      	str	r7, [r3, #0]
 800a394:	e6b0      	b.n	800a0f8 <__gethex+0xf8>
 800a396:	4299      	cmp	r1, r3
 800a398:	f843 cc04 	str.w	ip, [r3, #-4]
 800a39c:	d8d9      	bhi.n	800a352 <__gethex+0x352>
 800a39e:	68a3      	ldr	r3, [r4, #8]
 800a3a0:	459b      	cmp	fp, r3
 800a3a2:	db17      	blt.n	800a3d4 <__gethex+0x3d4>
 800a3a4:	6861      	ldr	r1, [r4, #4]
 800a3a6:	9801      	ldr	r0, [sp, #4]
 800a3a8:	3101      	adds	r1, #1
 800a3aa:	f000 fbaf 	bl	800ab0c <_Balloc>
 800a3ae:	4681      	mov	r9, r0
 800a3b0:	b918      	cbnz	r0, 800a3ba <__gethex+0x3ba>
 800a3b2:	4b1a      	ldr	r3, [pc, #104]	@ (800a41c <__gethex+0x41c>)
 800a3b4:	4602      	mov	r2, r0
 800a3b6:	2184      	movs	r1, #132	@ 0x84
 800a3b8:	e6c5      	b.n	800a146 <__gethex+0x146>
 800a3ba:	6922      	ldr	r2, [r4, #16]
 800a3bc:	3202      	adds	r2, #2
 800a3be:	f104 010c 	add.w	r1, r4, #12
 800a3c2:	0092      	lsls	r2, r2, #2
 800a3c4:	300c      	adds	r0, #12
 800a3c6:	f7fe ff45 	bl	8009254 <memcpy>
 800a3ca:	4621      	mov	r1, r4
 800a3cc:	9801      	ldr	r0, [sp, #4]
 800a3ce:	f000 fbdd 	bl	800ab8c <_Bfree>
 800a3d2:	464c      	mov	r4, r9
 800a3d4:	6923      	ldr	r3, [r4, #16]
 800a3d6:	1c5a      	adds	r2, r3, #1
 800a3d8:	eb04 0383 	add.w	r3, r4, r3, lsl #2
 800a3dc:	6122      	str	r2, [r4, #16]
 800a3de:	2201      	movs	r2, #1
 800a3e0:	615a      	str	r2, [r3, #20]
 800a3e2:	e7be      	b.n	800a362 <__gethex+0x362>
 800a3e4:	6922      	ldr	r2, [r4, #16]
 800a3e6:	455a      	cmp	r2, fp
 800a3e8:	dd0b      	ble.n	800a402 <__gethex+0x402>
 800a3ea:	2101      	movs	r1, #1
 800a3ec:	4620      	mov	r0, r4
 800a3ee:	f7ff fd9f 	bl	8009f30 <rshift>
 800a3f2:	f8d8 3008 	ldr.w	r3, [r8, #8]
 800a3f6:	3701      	adds	r7, #1
 800a3f8:	42bb      	cmp	r3, r7
 800a3fa:	f6ff aee0 	blt.w	800a1be <__gethex+0x1be>
 800a3fe:	2501      	movs	r5, #1
 800a400:	e7c2      	b.n	800a388 <__gethex+0x388>
 800a402:	f016 061f 	ands.w	r6, r6, #31
 800a406:	d0fa      	beq.n	800a3fe <__gethex+0x3fe>
 800a408:	4453      	add	r3, sl
 800a40a:	f1c6 0620 	rsb	r6, r6, #32
 800a40e:	f853 0c04 	ldr.w	r0, [r3, #-4]
 800a412:	f000 fc6d 	bl	800acf0 <__hi0bits>
 800a416:	42b0      	cmp	r0, r6
 800a418:	dbe7      	blt.n	800a3ea <__gethex+0x3ea>
 800a41a:	e7f0      	b.n	800a3fe <__gethex+0x3fe>
 800a41c:	0800bafa 	.word	0x0800bafa

0800a420 <L_shift>:
 800a420:	f1c2 0208 	rsb	r2, r2, #8
 800a424:	0092      	lsls	r2, r2, #2
 800a426:	b570      	push	{r4, r5, r6, lr}
 800a428:	f1c2 0620 	rsb	r6, r2, #32
 800a42c:	6843      	ldr	r3, [r0, #4]
 800a42e:	6804      	ldr	r4, [r0, #0]
 800a430:	fa03 f506 	lsl.w	r5, r3, r6
 800a434:	432c      	orrs	r4, r5
 800a436:	40d3      	lsrs	r3, r2
 800a438:	6004      	str	r4, [r0, #0]
 800a43a:	f840 3f04 	str.w	r3, [r0, #4]!
 800a43e:	4288      	cmp	r0, r1
 800a440:	d3f4      	bcc.n	800a42c <L_shift+0xc>
 800a442:	bd70      	pop	{r4, r5, r6, pc}

0800a444 <__match>:
 800a444:	b530      	push	{r4, r5, lr}
 800a446:	6803      	ldr	r3, [r0, #0]
 800a448:	3301      	adds	r3, #1
 800a44a:	f811 4b01 	ldrb.w	r4, [r1], #1
 800a44e:	b914      	cbnz	r4, 800a456 <__match+0x12>
 800a450:	6003      	str	r3, [r0, #0]
 800a452:	2001      	movs	r0, #1
 800a454:	bd30      	pop	{r4, r5, pc}
 800a456:	f813 2b01 	ldrb.w	r2, [r3], #1
 800a45a:	f1a2 0541 	sub.w	r5, r2, #65	@ 0x41
 800a45e:	2d19      	cmp	r5, #25
 800a460:	bf98      	it	ls
 800a462:	3220      	addls	r2, #32
 800a464:	42a2      	cmp	r2, r4
 800a466:	d0f0      	beq.n	800a44a <__match+0x6>
 800a468:	2000      	movs	r0, #0
 800a46a:	e7f3      	b.n	800a454 <__match+0x10>

0800a46c <__hexnan>:
 800a46c:	e92d 4ff0 	stmdb	sp!, {r4, r5, r6, r7, r8, r9, sl, fp, lr}
 800a470:	680b      	ldr	r3, [r1, #0]
 800a472:	6801      	ldr	r1, [r0, #0]
 800a474:	115e      	asrs	r6, r3, #5
 800a476:	eb02 0686 	add.w	r6, r2, r6, lsl #2
 800a47a:	f013 031f 	ands.w	r3, r3, #31
 800a47e:	b087      	sub	sp, #28
 800a480:	bf18      	it	ne
 800a482:	3604      	addne	r6, #4
 800a484:	2500      	movs	r5, #0
 800a486:	1f37      	subs	r7, r6, #4
 800a488:	4682      	mov	sl, r0
 800a48a:	4690      	mov	r8, r2
 800a48c:	9301      	str	r3, [sp, #4]
 800a48e:	f846 5c04 	str.w	r5, [r6, #-4]
 800a492:	46b9      	mov	r9, r7
 800a494:	463c      	mov	r4, r7
 800a496:	9502      	str	r5, [sp, #8]
 800a498:	46ab      	mov	fp, r5
 800a49a:	784a      	ldrb	r2, [r1, #1]
 800a49c:	1c4b      	adds	r3, r1, #1
 800a49e:	9303      	str	r3, [sp, #12]
 800a4a0:	b342      	cbz	r2, 800a4f4 <__hexnan+0x88>
 800a4a2:	4610      	mov	r0, r2
 800a4a4:	9105      	str	r1, [sp, #20]
 800a4a6:	9204      	str	r2, [sp, #16]
 800a4a8:	f7ff fd94 	bl	8009fd4 <__hexdig_fun>
 800a4ac:	2800      	cmp	r0, #0
 800a4ae:	d151      	bne.n	800a554 <__hexnan+0xe8>
 800a4b0:	9a04      	ldr	r2, [sp, #16]
 800a4b2:	9905      	ldr	r1, [sp, #20]
 800a4b4:	2a20      	cmp	r2, #32
 800a4b6:	d818      	bhi.n	800a4ea <__hexnan+0x7e>
 800a4b8:	9b02      	ldr	r3, [sp, #8]
 800a4ba:	459b      	cmp	fp, r3
 800a4bc:	dd13      	ble.n	800a4e6 <__hexnan+0x7a>
 800a4be:	454c      	cmp	r4, r9
 800a4c0:	d206      	bcs.n	800a4d0 <__hexnan+0x64>
 800a4c2:	2d07      	cmp	r5, #7
 800a4c4:	dc04      	bgt.n	800a4d0 <__hexnan+0x64>
 800a4c6:	462a      	mov	r2, r5
 800a4c8:	4649      	mov	r1, r9
 800a4ca:	4620      	mov	r0, r4
 800a4cc:	f7ff ffa8 	bl	800a420 <L_shift>
 800a4d0:	4544      	cmp	r4, r8
 800a4d2:	d952      	bls.n	800a57a <__hexnan+0x10e>
 800a4d4:	2300      	movs	r3, #0
 800a4d6:	f1a4 0904 	sub.w	r9, r4, #4
 800a4da:	f844 3c04 	str.w	r3, [r4, #-4]
 800a4de:	f8cd b008 	str.w	fp, [sp, #8]
 800a4e2:	464c      	mov	r4, r9
 800a4e4:	461d      	mov	r5, r3
 800a4e6:	9903      	ldr	r1, [sp, #12]
 800a4e8:	e7d7      	b.n	800a49a <__hexnan+0x2e>
 800a4ea:	2a29      	cmp	r2, #41	@ 0x29
 800a4ec:	d157      	bne.n	800a59e <__hexnan+0x132>
 800a4ee:	3102      	adds	r1, #2
 800a4f0:	f8ca 1000 	str.w	r1, [sl]
 800a4f4:	f1bb 0f00 	cmp.w	fp, #0
 800a4f8:	d051      	beq.n	800a59e <__hexnan+0x132>
 800a4fa:	454c      	cmp	r4, r9
 800a4fc:	d206      	bcs.n	800a50c <__hexnan+0xa0>
 800a4fe:	2d07      	cmp	r5, #7
 800a500:	dc04      	bgt.n	800a50c <__hexnan+0xa0>
 800a502:	462a      	mov	r2, r5
 800a504:	4649      	mov	r1, r9
 800a506:	4620      	mov	r0, r4
 800a508:	f7ff ff8a 	bl	800a420 <L_shift>
 800a50c:	4544      	cmp	r4, r8
 800a50e:	d936      	bls.n	800a57e <__hexnan+0x112>
 800a510:	f1a8 0204 	sub.w	r2, r8, #4
 800a514:	4623      	mov	r3, r4
 800a516:	f853 1b04 	ldr.w	r1, [r3], #4
 800a51a:	f842 1f04 	str.w	r1, [r2, #4]!
 800a51e:	429f      	cmp	r7, r3
 800a520:	d2f9      	bcs.n	800a516 <__hexnan+0xaa>
 800a522:	1b3b      	subs	r3, r7, r4
 800a524:	f023 0303 	bic.w	r3, r3, #3
 800a528:	3304      	adds	r3, #4
 800a52a:	3401      	adds	r4, #1
 800a52c:	3e03      	subs	r6, #3
 800a52e:	42b4      	cmp	r4, r6
 800a530:	bf88      	it	hi
 800a532:	2304      	movhi	r3, #4
 800a534:	4443      	add	r3, r8
 800a536:	2200      	movs	r2, #0
 800a538:	f843 2b04 	str.w	r2, [r3], #4
 800a53c:	429f      	cmp	r7, r3
 800a53e:	d2fb      	bcs.n	800a538 <__hexnan+0xcc>
 800a540:	683b      	ldr	r3, [r7, #0]
 800a542:	b91b      	cbnz	r3, 800a54c <__hexnan+0xe0>
 800a544:	4547      	cmp	r7, r8
 800a546:	d128      	bne.n	800a59a <__hexnan+0x12e>
 800a548:	2301      	movs	r3, #1
 800a54a:	603b      	str	r3, [r7, #0]
 800a54c:	2005      	movs	r0, #5
 800a54e:	b007      	add	sp, #28
 800a550:	e8bd 8ff0 	ldmia.w	sp!, {r4, r5, r6, r7, r8, r9, sl, fp, pc}
 800a554:	3501      	adds	r5, #1
 800a556:	2d08      	cmp	r5, #8
 800a558:	f10b 0b01 	add.w	fp, fp, #1
 800a55c:	dd06      	ble.n	800a56c <__hexnan+0x100>
 800a55e:	4544      	cmp	r4, r8
 800a560:	d9c1      	bls.n	800a4e6 <__hexnan+0x7a>
 800a562:	2300      	movs	r3, #0
 800a564:	f844 3c04 	str.w	r3, [r4, #-4]
 800a568:	2501      	movs	r5, #1
 800a56a:	3c04      	subs	r4, #4
 800a56c:	6822      	ldr	r2, [r4, #0]
 800a56e:	f000 000f 	and.w	r0, r0, #15
 800a572:	ea40 1002 	orr.w	r0, r0, r2, lsl #4
 800a576:	6020      	str	r0, [r4, #0]
 800a578:	e7b5      	b.n	800a4e6 <__hexnan+0x7a>
 800a57a:	2508      	movs	r5, #8
 800a57c:	e7b3      	b.n	800a4e6 <__hexnan+0x7a>
 800a57e:	9b01      	ldr	r3, [sp, #4]
 800a580:	2b00      	cmp	r3, #0
 800a582:	d0dd      	beq.n	800a540 <__hexnan+0xd4>
 800a584:	f1c3 0320 	rsb	r3, r3, #32
 800a588:	f04f 32ff 	mov.w	r2, #4294967295	@ 0xffffffff
 800a58c:	40da      	lsrs	r2, r3
 800a58e:	f856 3c04 	ldr.w	r3, [r6, #-4]
 800a592:	4013      	ands	r3, r2
 800a594:	f846 3c04 	str.w	r3, [r6, #-4]
 800a598:	e7d2      	b.n	800a540 <__hexnan+0xd4>
 800a59a:	3f04      	subs	r7, #4
 800a59c:	e7d0      	b.n	800a540 <__hexnan+0xd4>
 800a59e:	2004      	movs	r0, #4
 800a5a0:	e7d5      	b.n	800a54e <__hexnan+0xe2>

0800a5a2 <__sfputc_r>:
 800a5a2:	6893      	ldr	r3, [r2, #8]
 800a5a4:	3b01      	subs	r3, #1
 800a5a6:	2b00      	cmp	r3, #0
 800a5a8:	b410      	push	{r4}
 800a5aa:	6093      	str	r3, [r2, #8]
 800a5ac:	da08      	bge.n	800a5c0 <__sfputc_r+0x1e>
 800a5ae:	6994      	ldr	r4, [r2, #24]
 800a5b0:	42a3      	cmp	r3, r4
 800a5b2:	db01      	blt.n	800a5b8 <__sfputc_r+0x16>
 800a5b4:	290a      	cmp	r1, #10
 800a5b6:	d103      	bne.n	800a5c0 <__sfputc_r+0x1e>
 800a5b8:	f85d 4b04 	ldr.w	r4, [sp], #4
 800a5bc:	f000 bf93 	b.w	800b4e6 <__swbuf_r>
 800a5c0:	6813      	ldr	r3, [r2, #0]
 800a5c2:	1c58      	adds	r0, r3, #1
 800a5c4:	6010      	str	r0, [r2, #0]
 800a5c6:	7019      	strb	r1, [r3, #0]
 800a5c8:	4608      	mov	r0, r1
 800a5ca:	f85d 4b04 	ldr.w	r4, [sp], #4
 800a5ce:	4770      	bx	lr

0800a5d0 <__sfputs_r>:
 800a5d0:	b5f8      	push	{r3, r4, r5, r6, r7, lr}
 800a5d2:	4606      	mov	r6, r0
 800a5d4:	460f      	mov	r7, r1
 800a5d6:	4614      	mov	r4, r2
 800a5d8:	18d5      	adds	r5, r2, r3
 800a5da:	42ac      	cmp	r4, r5
 800a5dc:	d101      	bne.n	800a5e2 <__sfputs_r+0x12>
 800a5de:	2000      	movs	r0, #0
 800a5e0:	e007      	b.n	800a5f2 <__sfputs_r+0x22>
 800a5e2:	f814 1b01 	ldrb.w	r1, [r4], #1
 800a5e6:	463a      	mov	r2, r7
 800a5e8:	4630      	mov	r0, r6
 800a5ea:	f7ff ffda 	bl	800a5a2 <__sfputc_r>
 800a5ee:	1c43      	adds	r3, r0, #1
 800a5f0:	d1f3      	bne.n	800a5da <__sfputs_r+0xa>
 800a5f2:	bdf8      	pop	{r3, r4, r5, r6, r7, pc}

0800a5f4 <_vfiprintf_r>:
 800a5f4:	e92d 4ff0 	stmdb	sp!, {r4, r5, r6, r7, r8, r9, sl, fp, lr}
 800a5f8:	460d      	mov	r5, r1
 800a5fa:	b09d      	sub	sp, #116	@ 0x74
 800a5fc:	4614      	mov	r4, r2
 800a5fe:	4698      	mov	r8, r3
 800a600:	4606      	mov	r6, r0
 800a602:	b118      	cbz	r0, 800a60c <_vfiprintf_r+0x18>
 800a604:	6a03      	ldr	r3, [r0, #32]
 800a606:	b90b      	cbnz	r3, 800a60c <_vfiprintf_r+0x18>
 800a608:	f7fd ff22 	bl	8008450 <__sinit>
 800a60c:	6e6b      	ldr	r3, [r5, #100]	@ 0x64
 800a60e:	07d9      	lsls	r1, r3, #31
 800a610:	d405      	bmi.n	800a61e <_vfiprintf_r+0x2a>
 800a612:	89ab      	ldrh	r3, [r5, #12]
 800a614:	059a      	lsls	r2, r3, #22
 800a616:	d402      	bmi.n	800a61e <_vfiprintf_r+0x2a>
 800a618:	6da8      	ldr	r0, [r5, #88]	@ 0x58
 800a61a:	f7fe fe14 	bl	8009246 <__retarget_lock_acquire_recursive>
 800a61e:	89ab      	ldrh	r3, [r5, #12]
 800a620:	071b      	lsls	r3, r3, #28
 800a622:	d501      	bpl.n	800a628 <_vfiprintf_r+0x34>
 800a624:	692b      	ldr	r3, [r5, #16]
 800a626:	b99b      	cbnz	r3, 800a650 <_vfiprintf_r+0x5c>
 800a628:	4629      	mov	r1, r5
 800a62a:	4630      	mov	r0, r6
 800a62c:	f000 ff9a 	bl	800b564 <__swsetup_r>
 800a630:	b170      	cbz	r0, 800a650 <_vfiprintf_r+0x5c>
 800a632:	6e6b      	ldr	r3, [r5, #100]	@ 0x64
 800a634:	07dc      	lsls	r4, r3, #31
 800a636:	d504      	bpl.n	800a642 <_vfiprintf_r+0x4e>
 800a638:	f04f 30ff 	mov.w	r0, #4294967295	@ 0xffffffff
 800a63c:	b01d      	add	sp, #116	@ 0x74
 800a63e:	e8bd 8ff0 	ldmia.w	sp!, {r4, r5, r6, r7, r8, r9, sl, fp, pc}
 800a642:	89ab      	ldrh	r3, [r5, #12]
 800a644:	0598      	lsls	r0, r3, #22
 800a646:	d4f7      	bmi.n	800a638 <_vfiprintf_r+0x44>
 800a648:	6da8      	ldr	r0, [r5, #88]	@ 0x58
 800a64a:	f7fe fdfd 	bl	8009248 <__retarget_lock_release_recursive>
 800a64e:	e7f3      	b.n	800a638 <_vfiprintf_r+0x44>
 800a650:	2300      	movs	r3, #0
 800a652:	9309      	str	r3, [sp, #36]	@ 0x24
 800a654:	2320      	movs	r3, #32
 800a656:	f88d 3029 	strb.w	r3, [sp, #41]	@ 0x29
 800a65a:	f8cd 800c 	str.w	r8, [sp, #12]
 800a65e:	2330      	movs	r3, #48	@ 0x30
 800a660:	f8df 81ac 	ldr.w	r8, [pc, #428]	@ 800a810 <_vfiprintf_r+0x21c>
 800a664:	f88d 302a 	strb.w	r3, [sp, #42]	@ 0x2a
 800a668:	f04f 0901 	mov.w	r9, #1
 800a66c:	4623      	mov	r3, r4
 800a66e:	469a      	mov	sl, r3
 800a670:	f813 2b01 	ldrb.w	r2, [r3], #1
 800a674:	b10a      	cbz	r2, 800a67a <_vfiprintf_r+0x86>
 800a676:	2a25      	cmp	r2, #37	@ 0x25
 800a678:	d1f9      	bne.n	800a66e <_vfiprintf_r+0x7a>
 800a67a:	ebba 0b04 	subs.w	fp, sl, r4
 800a67e:	d00b      	beq.n	800a698 <_vfiprintf_r+0xa4>
 800a680:	465b      	mov	r3, fp
 800a682:	4622      	mov	r2, r4
 800a684:	4629      	mov	r1, r5
 800a686:	4630      	mov	r0, r6
 800a688:	f7ff ffa2 	bl	800a5d0 <__sfputs_r>
 800a68c:	3001      	adds	r0, #1
 800a68e:	f000 80a7 	beq.w	800a7e0 <_vfiprintf_r+0x1ec>
 800a692:	9a09      	ldr	r2, [sp, #36]	@ 0x24
 800a694:	445a      	add	r2, fp
 800a696:	9209      	str	r2, [sp, #36]	@ 0x24
 800a698:	f89a 3000 	ldrb.w	r3, [sl]
 800a69c:	2b00      	cmp	r3, #0
 800a69e:	f000 809f 	beq.w	800a7e0 <_vfiprintf_r+0x1ec>
 800a6a2:	2300      	movs	r3, #0
 800a6a4:	f04f 32ff 	mov.w	r2, #4294967295	@ 0xffffffff
 800a6a8:	e9cd 2305 	strd	r2, r3, [sp, #20]
 800a6ac:	f10a 0a01 	add.w	sl, sl, #1
 800a6b0:	9304      	str	r3, [sp, #16]
 800a6b2:	9307      	str	r3, [sp, #28]
 800a6b4:	f88d 3053 	strb.w	r3, [sp, #83]	@ 0x53
 800a6b8:	931a      	str	r3, [sp, #104]	@ 0x68
 800a6ba:	4654      	mov	r4, sl
 800a6bc:	2205      	movs	r2, #5
 800a6be:	f814 1b01 	ldrb.w	r1, [r4], #1
 800a6c2:	4853      	ldr	r0, [pc, #332]	@ (800a810 <_vfiprintf_r+0x21c>)
 800a6c4:	f7f5 fda4 	bl	8000210 <memchr>
 800a6c8:	9a04      	ldr	r2, [sp, #16]
 800a6ca:	b9d8      	cbnz	r0, 800a704 <_vfiprintf_r+0x110>
 800a6cc:	06d1      	lsls	r1, r2, #27
 800a6ce:	bf44      	itt	mi
 800a6d0:	2320      	movmi	r3, #32
 800a6d2:	f88d 3053 	strbmi.w	r3, [sp, #83]	@ 0x53
 800a6d6:	0713      	lsls	r3, r2, #28
 800a6d8:	bf44      	itt	mi
 800a6da:	232b      	movmi	r3, #43	@ 0x2b
 800a6dc:	f88d 3053 	strbmi.w	r3, [sp, #83]	@ 0x53
 800a6e0:	f89a 3000 	ldrb.w	r3, [sl]
 800a6e4:	2b2a      	cmp	r3, #42	@ 0x2a
 800a6e6:	d015      	beq.n	800a714 <_vfiprintf_r+0x120>
 800a6e8:	9a07      	ldr	r2, [sp, #28]
 800a6ea:	4654      	mov	r4, sl
 800a6ec:	2000      	movs	r0, #0
 800a6ee:	f04f 0c0a 	mov.w	ip, #10
 800a6f2:	4621      	mov	r1, r4
 800a6f4:	f811 3b01 	ldrb.w	r3, [r1], #1
 800a6f8:	3b30      	subs	r3, #48	@ 0x30
 800a6fa:	2b09      	cmp	r3, #9
 800a6fc:	d94b      	bls.n	800a796 <_vfiprintf_r+0x1a2>
 800a6fe:	b1b0      	cbz	r0, 800a72e <_vfiprintf_r+0x13a>
 800a700:	9207      	str	r2, [sp, #28]
 800a702:	e014      	b.n	800a72e <_vfiprintf_r+0x13a>
 800a704:	eba0 0308 	sub.w	r3, r0, r8
 800a708:	fa09 f303 	lsl.w	r3, r9, r3
 800a70c:	4313      	orrs	r3, r2
 800a70e:	9304      	str	r3, [sp, #16]
 800a710:	46a2      	mov	sl, r4
 800a712:	e7d2      	b.n	800a6ba <_vfiprintf_r+0xc6>
 800a714:	9b03      	ldr	r3, [sp, #12]
 800a716:	1d19      	adds	r1, r3, #4
 800a718:	681b      	ldr	r3, [r3, #0]
 800a71a:	9103      	str	r1, [sp, #12]
 800a71c:	2b00      	cmp	r3, #0
 800a71e:	bfbb      	ittet	lt
 800a720:	425b      	neglt	r3, r3
 800a722:	f042 0202 	orrlt.w	r2, r2, #2
 800a726:	9307      	strge	r3, [sp, #28]
 800a728:	9307      	strlt	r3, [sp, #28]
 800a72a:	bfb8      	it	lt
 800a72c:	9204      	strlt	r2, [sp, #16]
 800a72e:	7823      	ldrb	r3, [r4, #0]
 800a730:	2b2e      	cmp	r3, #46	@ 0x2e
 800a732:	d10a      	bne.n	800a74a <_vfiprintf_r+0x156>
 800a734:	7863      	ldrb	r3, [r4, #1]
 800a736:	2b2a      	cmp	r3, #42	@ 0x2a
 800a738:	d132      	bne.n	800a7a0 <_vfiprintf_r+0x1ac>
 800a73a:	9b03      	ldr	r3, [sp, #12]
 800a73c:	1d1a      	adds	r2, r3, #4
 800a73e:	681b      	ldr	r3, [r3, #0]
 800a740:	9203      	str	r2, [sp, #12]
 800a742:	ea43 73e3 	orr.w	r3, r3, r3, asr #31
 800a746:	3402      	adds	r4, #2
 800a748:	9305      	str	r3, [sp, #20]
 800a74a:	f8df a0d4 	ldr.w	sl, [pc, #212]	@ 800a820 <_vfiprintf_r+0x22c>
 800a74e:	7821      	ldrb	r1, [r4, #0]
 800a750:	2203      	movs	r2, #3
 800a752:	4650      	mov	r0, sl
 800a754:	f7f5 fd5c 	bl	8000210 <memchr>
 800a758:	b138      	cbz	r0, 800a76a <_vfiprintf_r+0x176>
 800a75a:	9b04      	ldr	r3, [sp, #16]
 800a75c:	eba0 000a 	sub.w	r0, r0, sl
 800a760:	2240      	movs	r2, #64	@ 0x40
 800a762:	4082      	lsls	r2, r0
 800a764:	4313      	orrs	r3, r2
 800a766:	3401      	adds	r4, #1
 800a768:	9304      	str	r3, [sp, #16]
 800a76a:	f814 1b01 	ldrb.w	r1, [r4], #1
 800a76e:	4829      	ldr	r0, [pc, #164]	@ (800a814 <_vfiprintf_r+0x220>)
 800a770:	f88d 1028 	strb.w	r1, [sp, #40]	@ 0x28
 800a774:	2206      	movs	r2, #6
 800a776:	f7f5 fd4b 	bl	8000210 <memchr>
 800a77a:	2800      	cmp	r0, #0
 800a77c:	d03f      	beq.n	800a7fe <_vfiprintf_r+0x20a>
 800a77e:	4b26      	ldr	r3, [pc, #152]	@ (800a818 <_vfiprintf_r+0x224>)
 800a780:	bb1b      	cbnz	r3, 800a7ca <_vfiprintf_r+0x1d6>
 800a782:	9b03      	ldr	r3, [sp, #12]
 800a784:	3307      	adds	r3, #7
 800a786:	f023 0307 	bic.w	r3, r3, #7
 800a78a:	3308      	adds	r3, #8
 800a78c:	9303      	str	r3, [sp, #12]
 800a78e:	9b09      	ldr	r3, [sp, #36]	@ 0x24
 800a790:	443b      	add	r3, r7
 800a792:	9309      	str	r3, [sp, #36]	@ 0x24
 800a794:	e76a      	b.n	800a66c <_vfiprintf_r+0x78>
 800a796:	fb0c 3202 	mla	r2, ip, r2, r3
 800a79a:	460c      	mov	r4, r1
 800a79c:	2001      	movs	r0, #1
 800a79e:	e7a8      	b.n	800a6f2 <_vfiprintf_r+0xfe>
 800a7a0:	2300      	movs	r3, #0
 800a7a2:	3401      	adds	r4, #1
 800a7a4:	9305      	str	r3, [sp, #20]
 800a7a6:	4619      	mov	r1, r3
 800a7a8:	f04f 0c0a 	mov.w	ip, #10
 800a7ac:	4620      	mov	r0, r4
 800a7ae:	f810 2b01 	ldrb.w	r2, [r0], #1
 800a7b2:	3a30      	subs	r2, #48	@ 0x30
 800a7b4:	2a09      	cmp	r2, #9
 800a7b6:	d903      	bls.n	800a7c0 <_vfiprintf_r+0x1cc>
 800a7b8:	2b00      	cmp	r3, #0
 800a7ba:	d0c6      	beq.n	800a74a <_vfiprintf_r+0x156>
 800a7bc:	9105      	str	r1, [sp, #20]
 800a7be:	e7c4      	b.n	800a74a <_vfiprintf_r+0x156>
 800a7c0:	fb0c 2101 	mla	r1, ip, r1, r2
 800a7c4:	4604      	mov	r4, r0
 800a7c6:	2301      	movs	r3, #1
 800a7c8:	e7f0      	b.n	800a7ac <_vfiprintf_r+0x1b8>
 800a7ca:	ab03      	add	r3, sp, #12
 800a7cc:	9300      	str	r3, [sp, #0]
 800a7ce:	462a      	mov	r2, r5
 800a7d0:	4b12      	ldr	r3, [pc, #72]	@ (800a81c <_vfiprintf_r+0x228>)
 800a7d2:	a904      	add	r1, sp, #16
 800a7d4:	4630      	mov	r0, r6
 800a7d6:	f7fd f9f9 	bl	8007bcc <_printf_float>
 800a7da:	4607      	mov	r7, r0
 800a7dc:	1c78      	adds	r0, r7, #1
 800a7de:	d1d6      	bne.n	800a78e <_vfiprintf_r+0x19a>
 800a7e0:	6e6b      	ldr	r3, [r5, #100]	@ 0x64
 800a7e2:	07d9      	lsls	r1, r3, #31
 800a7e4:	d405      	bmi.n	800a7f2 <_vfiprintf_r+0x1fe>
 800a7e6:	89ab      	ldrh	r3, [r5, #12]
 800a7e8:	059a      	lsls	r2, r3, #22
 800a7ea:	d402      	bmi.n	800a7f2 <_vfiprintf_r+0x1fe>
 800a7ec:	6da8      	ldr	r0, [r5, #88]	@ 0x58
 800a7ee:	f7fe fd2b 	bl	8009248 <__retarget_lock_release_recursive>
 800a7f2:	89ab      	ldrh	r3, [r5, #12]
 800a7f4:	065b      	lsls	r3, r3, #25
 800a7f6:	f53f af1f 	bmi.w	800a638 <_vfiprintf_r+0x44>
 800a7fa:	9809      	ldr	r0, [sp, #36]	@ 0x24
 800a7fc:	e71e      	b.n	800a63c <_vfiprintf_r+0x48>
 800a7fe:	ab03      	add	r3, sp, #12
 800a800:	9300      	str	r3, [sp, #0]
 800a802:	462a      	mov	r2, r5
 800a804:	4b05      	ldr	r3, [pc, #20]	@ (800a81c <_vfiprintf_r+0x228>)
 800a806:	a904      	add	r1, sp, #16
 800a808:	4630      	mov	r0, r6
 800a80a:	f7fd fc77 	bl	80080fc <_printf_i>
 800a80e:	e7e4      	b.n	800a7da <_vfiprintf_r+0x1e6>
 800a810:	0800bb6b 	.word	0x0800bb6b
 800a814:	0800bb75 	.word	0x0800bb75
 800a818:	08007bcd 	.word	0x08007bcd
 800a81c:	0800a5d1 	.word	0x0800a5d1
 800a820:	0800bb71 	.word	0x0800bb71

0800a824 <malloc>:
 800a824:	4b02      	ldr	r3, [pc, #8]	@ (800a830 <malloc+0xc>)
 800a826:	4601      	mov	r1, r0
 800a828:	6818      	ldr	r0, [r3, #0]
 800a82a:	f000 b825 	b.w	800a878 <_malloc_r>
 800a82e:	bf00      	nop
 800a830:	20000188 	.word	0x20000188

0800a834 <sbrk_aligned>:
 800a834:	b570      	push	{r4, r5, r6, lr}
 800a836:	4e0f      	ldr	r6, [pc, #60]	@ (800a874 <sbrk_aligned+0x40>)
 800a838:	460c      	mov	r4, r1
 800a83a:	6831      	ldr	r1, [r6, #0]
 800a83c:	4605      	mov	r5, r0
 800a83e:	b911      	cbnz	r1, 800a846 <sbrk_aligned+0x12>
 800a840:	f000 ff8a 	bl	800b758 <_sbrk_r>
 800a844:	6030      	str	r0, [r6, #0]
 800a846:	4621      	mov	r1, r4
 800a848:	4628      	mov	r0, r5
 800a84a:	f000 ff85 	bl	800b758 <_sbrk_r>
 800a84e:	1c43      	adds	r3, r0, #1
 800a850:	d103      	bne.n	800a85a <sbrk_aligned+0x26>
 800a852:	f04f 34ff 	mov.w	r4, #4294967295	@ 0xffffffff
 800a856:	4620      	mov	r0, r4
 800a858:	bd70      	pop	{r4, r5, r6, pc}
 800a85a:	1cc4      	adds	r4, r0, #3
 800a85c:	f024 0403 	bic.w	r4, r4, #3
 800a860:	42a0      	cmp	r0, r4
 800a862:	d0f8      	beq.n	800a856 <sbrk_aligned+0x22>
 800a864:	1a21      	subs	r1, r4, r0
 800a866:	4628      	mov	r0, r5
 800a868:	f000 ff76 	bl	800b758 <_sbrk_r>
 800a86c:	3001      	adds	r0, #1
 800a86e:	d1f2      	bne.n	800a856 <sbrk_aligned+0x22>
 800a870:	e7ef      	b.n	800a852 <sbrk_aligned+0x1e>
 800a872:	bf00      	nop
 800a874:	20005338 	.word	0x20005338

0800a878 <_malloc_r>:
 800a878:	e92d 43f8 	stmdb	sp!, {r3, r4, r5, r6, r7, r8, r9, lr}
 800a87c:	1ccd      	adds	r5, r1, #3
 800a87e:	f025 0503 	bic.w	r5, r5, #3
 800a882:	3508      	adds	r5, #8
 800a884:	2d0c      	cmp	r5, #12
 800a886:	bf38      	it	cc
 800a888:	250c      	movcc	r5, #12
 800a88a:	2d00      	cmp	r5, #0
 800a88c:	4606      	mov	r6, r0
 800a88e:	db01      	blt.n	800a894 <_malloc_r+0x1c>
 800a890:	42a9      	cmp	r1, r5
 800a892:	d904      	bls.n	800a89e <_malloc_r+0x26>
 800a894:	230c      	movs	r3, #12
 800a896:	6033      	str	r3, [r6, #0]
 800a898:	2000      	movs	r0, #0
 800a89a:	e8bd 83f8 	ldmia.w	sp!, {r3, r4, r5, r6, r7, r8, r9, pc}
 800a89e:	f8df 80d4 	ldr.w	r8, [pc, #212]	@ 800a974 <_malloc_r+0xfc>
 800a8a2:	f000 f927 	bl	800aaf4 <__malloc_lock>
 800a8a6:	f8d8 3000 	ldr.w	r3, [r8]
 800a8aa:	461c      	mov	r4, r3
 800a8ac:	bb44      	cbnz	r4, 800a900 <_malloc_r+0x88>
 800a8ae:	4629      	mov	r1, r5
 800a8b0:	4630      	mov	r0, r6
 800a8b2:	f7ff ffbf 	bl	800a834 <sbrk_aligned>
 800a8b6:	1c43      	adds	r3, r0, #1
 800a8b8:	4604      	mov	r4, r0
 800a8ba:	d158      	bne.n	800a96e <_malloc_r+0xf6>
 800a8bc:	f8d8 4000 	ldr.w	r4, [r8]
 800a8c0:	4627      	mov	r7, r4
 800a8c2:	2f00      	cmp	r7, #0
 800a8c4:	d143      	bne.n	800a94e <_malloc_r+0xd6>
 800a8c6:	2c00      	cmp	r4, #0
 800a8c8:	d04b      	beq.n	800a962 <_malloc_r+0xea>
 800a8ca:	6823      	ldr	r3, [r4, #0]
 800a8cc:	4639      	mov	r1, r7
 800a8ce:	4630      	mov	r0, r6
 800a8d0:	eb04 0903 	add.w	r9, r4, r3
 800a8d4:	f000 ff40 	bl	800b758 <_sbrk_r>
 800a8d8:	4581      	cmp	r9, r0
 800a8da:	d142      	bne.n	800a962 <_malloc_r+0xea>
 800a8dc:	6821      	ldr	r1, [r4, #0]
 800a8de:	1a6d      	subs	r5, r5, r1
 800a8e0:	4629      	mov	r1, r5
 800a8e2:	4630      	mov	r0, r6
 800a8e4:	f7ff ffa6 	bl	800a834 <sbrk_aligned>
 800a8e8:	3001      	adds	r0, #1
 800a8ea:	d03a      	beq.n	800a962 <_malloc_r+0xea>
 800a8ec:	6823      	ldr	r3, [r4, #0]
 800a8ee:	442b      	add	r3, r5
 800a8f0:	6023      	str	r3, [r4, #0]
 800a8f2:	f8d8 3000 	ldr.w	r3, [r8]
 800a8f6:	685a      	ldr	r2, [r3, #4]
 800a8f8:	bb62      	cbnz	r2, 800a954 <_malloc_r+0xdc>
 800a8fa:	f8c8 7000 	str.w	r7, [r8]
 800a8fe:	e00f      	b.n	800a920 <_malloc_r+0xa8>
 800a900:	6822      	ldr	r2, [r4, #0]
 800a902:	1b52      	subs	r2, r2, r5
 800a904:	d420      	bmi.n	800a948 <_malloc_r+0xd0>
 800a906:	2a0b      	cmp	r2, #11
 800a908:	d917      	bls.n	800a93a <_malloc_r+0xc2>
 800a90a:	1961      	adds	r1, r4, r5
 800a90c:	42a3      	cmp	r3, r4
 800a90e:	6025      	str	r5, [r4, #0]
 800a910:	bf18      	it	ne
 800a912:	6059      	strne	r1, [r3, #4]
 800a914:	6863      	ldr	r3, [r4, #4]
 800a916:	bf08      	it	eq
 800a918:	f8c8 1000 	streq.w	r1, [r8]
 800a91c:	5162      	str	r2, [r4, r5]
 800a91e:	604b      	str	r3, [r1, #4]
 800a920:	4630      	mov	r0, r6
 800a922:	f000 f8ed 	bl	800ab00 <__malloc_unlock>
 800a926:	f104 000b 	add.w	r0, r4, #11
 800a92a:	1d23      	adds	r3, r4, #4
 800a92c:	f020 0007 	bic.w	r0, r0, #7
 800a930:	1ac2      	subs	r2, r0, r3
 800a932:	bf1c      	itt	ne
 800a934:	1a1b      	subne	r3, r3, r0
 800a936:	50a3      	strne	r3, [r4, r2]
 800a938:	e7af      	b.n	800a89a <_malloc_r+0x22>
 800a93a:	6862      	ldr	r2, [r4, #4]
 800a93c:	42a3      	cmp	r3, r4
 800a93e:	bf0c      	ite	eq
 800a940:	f8c8 2000 	streq.w	r2, [r8]
 800a944:	605a      	strne	r2, [r3, #4]
 800a946:	e7eb      	b.n	800a920 <_malloc_r+0xa8>
 800a948:	4623      	mov	r3, r4
 800a94a:	6864      	ldr	r4, [r4, #4]
 800a94c:	e7ae      	b.n	800a8ac <_malloc_r+0x34>
 800a94e:	463c      	mov	r4, r7
 800a950:	687f      	ldr	r7, [r7, #4]
 800a952:	e7b6      	b.n	800a8c2 <_malloc_r+0x4a>
 800a954:	461a      	mov	r2, r3
 800a956:	685b      	ldr	r3, [r3, #4]
 800a958:	42a3      	cmp	r3, r4
 800a95a:	d1fb      	bne.n	800a954 <_malloc_r+0xdc>
 800a95c:	2300      	movs	r3, #0
 800a95e:	6053      	str	r3, [r2, #4]
 800a960:	e7de      	b.n	800a920 <_malloc_r+0xa8>
 800a962:	230c      	movs	r3, #12
 800a964:	6033      	str	r3, [r6, #0]
 800a966:	4630      	mov	r0, r6
 800a968:	f000 f8ca 	bl	800ab00 <__malloc_unlock>
 800a96c:	e794      	b.n	800a898 <_malloc_r+0x20>
 800a96e:	6005      	str	r5, [r0, #0]
 800a970:	e7d6      	b.n	800a920 <_malloc_r+0xa8>
 800a972:	bf00      	nop
 800a974:	2000533c 	.word	0x2000533c

0800a978 <__ascii_mbtowc>:
 800a978:	b082      	sub	sp, #8
 800a97a:	b901      	cbnz	r1, 800a97e <__ascii_mbtowc+0x6>
 800a97c:	a901      	add	r1, sp, #4
 800a97e:	b142      	cbz	r2, 800a992 <__ascii_mbtowc+0x1a>
 800a980:	b14b      	cbz	r3, 800a996 <__ascii_mbtowc+0x1e>
 800a982:	7813      	ldrb	r3, [r2, #0]
 800a984:	600b      	str	r3, [r1, #0]
 800a986:	7812      	ldrb	r2, [r2, #0]
 800a988:	1e10      	subs	r0, r2, #0
 800a98a:	bf18      	it	ne
 800a98c:	2001      	movne	r0, #1
 800a98e:	b002      	add	sp, #8
 800a990:	4770      	bx	lr
 800a992:	4610      	mov	r0, r2
 800a994:	e7fb      	b.n	800a98e <__ascii_mbtowc+0x16>
 800a996:	f06f 0001 	mvn.w	r0, #1
 800a99a:	e7f8      	b.n	800a98e <__ascii_mbtowc+0x16>

0800a99c <__sflush_r>:
 800a99c:	f9b1 200c 	ldrsh.w	r2, [r1, #12]
 800a9a0:	e92d 41f0 	stmdb	sp!, {r4, r5, r6, r7, r8, lr}
 800a9a4:	0716      	lsls	r6, r2, #28
 800a9a6:	4605      	mov	r5, r0
 800a9a8:	460c      	mov	r4, r1
 800a9aa:	d454      	bmi.n	800aa56 <__sflush_r+0xba>
 800a9ac:	684b      	ldr	r3, [r1, #4]
 800a9ae:	2b00      	cmp	r3, #0
 800a9b0:	dc02      	bgt.n	800a9b8 <__sflush_r+0x1c>
 800a9b2:	6c0b      	ldr	r3, [r1, #64]	@ 0x40
 800a9b4:	2b00      	cmp	r3, #0
 800a9b6:	dd48      	ble.n	800aa4a <__sflush_r+0xae>
 800a9b8:	6ae6      	ldr	r6, [r4, #44]	@ 0x2c
 800a9ba:	2e00      	cmp	r6, #0
 800a9bc:	d045      	beq.n	800aa4a <__sflush_r+0xae>
 800a9be:	2300      	movs	r3, #0
 800a9c0:	f412 5280 	ands.w	r2, r2, #4096	@ 0x1000
 800a9c4:	682f      	ldr	r7, [r5, #0]
 800a9c6:	6a21      	ldr	r1, [r4, #32]
 800a9c8:	602b      	str	r3, [r5, #0]
 800a9ca:	d030      	beq.n	800aa2e <__sflush_r+0x92>
 800a9cc:	6d62      	ldr	r2, [r4, #84]	@ 0x54
 800a9ce:	89a3      	ldrh	r3, [r4, #12]
 800a9d0:	0759      	lsls	r1, r3, #29
 800a9d2:	d505      	bpl.n	800a9e0 <__sflush_r+0x44>
 800a9d4:	6863      	ldr	r3, [r4, #4]
 800a9d6:	1ad2      	subs	r2, r2, r3
 800a9d8:	6b63      	ldr	r3, [r4, #52]	@ 0x34
 800a9da:	b10b      	cbz	r3, 800a9e0 <__sflush_r+0x44>
 800a9dc:	6c23      	ldr	r3, [r4, #64]	@ 0x40
 800a9de:	1ad2      	subs	r2, r2, r3
 800a9e0:	2300      	movs	r3, #0
 800a9e2:	6ae6      	ldr	r6, [r4, #44]	@ 0x2c
 800a9e4:	6a21      	ldr	r1, [r4, #32]
 800a9e6:	4628      	mov	r0, r5
 800a9e8:	47b0      	blx	r6
 800a9ea:	1c43      	adds	r3, r0, #1
 800a9ec:	89a3      	ldrh	r3, [r4, #12]
 800a9ee:	d106      	bne.n	800a9fe <__sflush_r+0x62>
 800a9f0:	6829      	ldr	r1, [r5, #0]
 800a9f2:	291d      	cmp	r1, #29
 800a9f4:	d82b      	bhi.n	800aa4e <__sflush_r+0xb2>
 800a9f6:	4a2a      	ldr	r2, [pc, #168]	@ (800aaa0 <__sflush_r+0x104>)
 800a9f8:	40ca      	lsrs	r2, r1
 800a9fa:	07d6      	lsls	r6, r2, #31
 800a9fc:	d527      	bpl.n	800aa4e <__sflush_r+0xb2>
 800a9fe:	2200      	movs	r2, #0
 800aa00:	6062      	str	r2, [r4, #4]
 800aa02:	04d9      	lsls	r1, r3, #19
 800aa04:	6922      	ldr	r2, [r4, #16]
 800aa06:	6022      	str	r2, [r4, #0]
 800aa08:	d504      	bpl.n	800aa14 <__sflush_r+0x78>
 800aa0a:	1c42      	adds	r2, r0, #1
 800aa0c:	d101      	bne.n	800aa12 <__sflush_r+0x76>
 800aa0e:	682b      	ldr	r3, [r5, #0]
 800aa10:	b903      	cbnz	r3, 800aa14 <__sflush_r+0x78>
 800aa12:	6560      	str	r0, [r4, #84]	@ 0x54
 800aa14:	6b61      	ldr	r1, [r4, #52]	@ 0x34
 800aa16:	602f      	str	r7, [r5, #0]
 800aa18:	b1b9      	cbz	r1, 800aa4a <__sflush_r+0xae>
 800aa1a:	f104 0344 	add.w	r3, r4, #68	@ 0x44
 800aa1e:	4299      	cmp	r1, r3
 800aa20:	d002      	beq.n	800aa28 <__sflush_r+0x8c>
 800aa22:	4628      	mov	r0, r5
 800aa24:	f000 ff0e 	bl	800b844 <_free_r>
 800aa28:	2300      	movs	r3, #0
 800aa2a:	6363      	str	r3, [r4, #52]	@ 0x34
 800aa2c:	e00d      	b.n	800aa4a <__sflush_r+0xae>
 800aa2e:	2301      	movs	r3, #1
 800aa30:	4628      	mov	r0, r5
 800aa32:	47b0      	blx	r6
 800aa34:	4602      	mov	r2, r0
 800aa36:	1c50      	adds	r0, r2, #1
 800aa38:	d1c9      	bne.n	800a9ce <__sflush_r+0x32>
 800aa3a:	682b      	ldr	r3, [r5, #0]
 800aa3c:	2b00      	cmp	r3, #0
 800aa3e:	d0c6      	beq.n	800a9ce <__sflush_r+0x32>
 800aa40:	2b1d      	cmp	r3, #29
 800aa42:	d001      	beq.n	800aa48 <__sflush_r+0xac>
 800aa44:	2b16      	cmp	r3, #22
 800aa46:	d11e      	bne.n	800aa86 <__sflush_r+0xea>
 800aa48:	602f      	str	r7, [r5, #0]
 800aa4a:	2000      	movs	r0, #0
 800aa4c:	e022      	b.n	800aa94 <__sflush_r+0xf8>
 800aa4e:	f043 0340 	orr.w	r3, r3, #64	@ 0x40
 800aa52:	b21b      	sxth	r3, r3
 800aa54:	e01b      	b.n	800aa8e <__sflush_r+0xf2>
 800aa56:	690f      	ldr	r7, [r1, #16]
 800aa58:	2f00      	cmp	r7, #0
 800aa5a:	d0f6      	beq.n	800aa4a <__sflush_r+0xae>
 800aa5c:	0793      	lsls	r3, r2, #30
 800aa5e:	680e      	ldr	r6, [r1, #0]
 800aa60:	bf08      	it	eq
 800aa62:	694b      	ldreq	r3, [r1, #20]
 800aa64:	600f      	str	r7, [r1, #0]
 800aa66:	bf18      	it	ne
 800aa68:	2300      	movne	r3, #0
 800aa6a:	eba6 0807 	sub.w	r8, r6, r7
 800aa6e:	608b      	str	r3, [r1, #8]
 800aa70:	f1b8 0f00 	cmp.w	r8, #0
 800aa74:	dde9      	ble.n	800aa4a <__sflush_r+0xae>
 800aa76:	6a21      	ldr	r1, [r4, #32]
 800aa78:	6aa6      	ldr	r6, [r4, #40]	@ 0x28
 800aa7a:	4643      	mov	r3, r8
 800aa7c:	463a      	mov	r2, r7
 800aa7e:	4628      	mov	r0, r5
 800aa80:	47b0      	blx	r6
 800aa82:	2800      	cmp	r0, #0
 800aa84:	dc08      	bgt.n	800aa98 <__sflush_r+0xfc>
 800aa86:	f9b4 300c 	ldrsh.w	r3, [r4, #12]
 800aa8a:	f043 0340 	orr.w	r3, r3, #64	@ 0x40
 800aa8e:	81a3      	strh	r3, [r4, #12]
 800aa90:	f04f 30ff 	mov.w	r0, #4294967295	@ 0xffffffff
 800aa94:	e8bd 81f0 	ldmia.w	sp!, {r4, r5, r6, r7, r8, pc}
 800aa98:	4407      	add	r7, r0
 800aa9a:	eba8 0800 	sub.w	r8, r8, r0
 800aa9e:	e7e7      	b.n	800aa70 <__sflush_r+0xd4>
 800aaa0:	20400001 	.word	0x20400001

0800aaa4 <_fflush_r>:
 800aaa4:	b538      	push	{r3, r4, r5, lr}
 800aaa6:	690b      	ldr	r3, [r1, #16]
 800aaa8:	4605      	mov	r5, r0
 800aaaa:	460c      	mov	r4, r1
 800aaac:	b913      	cbnz	r3, 800aab4 <_fflush_r+0x10>
 800aaae:	2500      	movs	r5, #0
 800aab0:	4628      	mov	r0, r5
 800aab2:	bd38      	pop	{r3, r4, r5, pc}
 800aab4:	b118      	cbz	r0, 800aabe <_fflush_r+0x1a>
 800aab6:	6a03      	ldr	r3, [r0, #32]
 800aab8:	b90b      	cbnz	r3, 800aabe <_fflush_r+0x1a>
 800aaba:	f7fd fcc9 	bl	8008450 <__sinit>
 800aabe:	f9b4 300c 	ldrsh.w	r3, [r4, #12]
 800aac2:	2b00      	cmp	r3, #0
 800aac4:	d0f3      	beq.n	800aaae <_fflush_r+0xa>
 800aac6:	6e62      	ldr	r2, [r4, #100]	@ 0x64
 800aac8:	07d0      	lsls	r0, r2, #31
 800aaca:	d404      	bmi.n	800aad6 <_fflush_r+0x32>
 800aacc:	0599      	lsls	r1, r3, #22
 800aace:	d402      	bmi.n	800aad6 <_fflush_r+0x32>
 800aad0:	6da0      	ldr	r0, [r4, #88]	@ 0x58
 800aad2:	f7fe fbb8 	bl	8009246 <__retarget_lock_acquire_recursive>
 800aad6:	4628      	mov	r0, r5
 800aad8:	4621      	mov	r1, r4
 800aada:	f7ff ff5f 	bl	800a99c <__sflush_r>
 800aade:	6e63      	ldr	r3, [r4, #100]	@ 0x64
 800aae0:	07da      	lsls	r2, r3, #31
 800aae2:	4605      	mov	r5, r0
 800aae4:	d4e4      	bmi.n	800aab0 <_fflush_r+0xc>
 800aae6:	89a3      	ldrh	r3, [r4, #12]
 800aae8:	059b      	lsls	r3, r3, #22
 800aaea:	d4e1      	bmi.n	800aab0 <_fflush_r+0xc>
 800aaec:	6da0      	ldr	r0, [r4, #88]	@ 0x58
 800aaee:	f7fe fbab 	bl	8009248 <__retarget_lock_release_recursive>
 800aaf2:	e7dd      	b.n	800aab0 <_fflush_r+0xc>

0800aaf4 <__malloc_lock>:
 800aaf4:	4801      	ldr	r0, [pc, #4]	@ (800aafc <__malloc_lock+0x8>)
 800aaf6:	f7fe bba6 	b.w	8009246 <__retarget_lock_acquire_recursive>
 800aafa:	bf00      	nop
 800aafc:	20005334 	.word	0x20005334

0800ab00 <__malloc_unlock>:
 800ab00:	4801      	ldr	r0, [pc, #4]	@ (800ab08 <__malloc_unlock+0x8>)
 800ab02:	f7fe bba1 	b.w	8009248 <__retarget_lock_release_recursive>
 800ab06:	bf00      	nop
 800ab08:	20005334 	.word	0x20005334

0800ab0c <_Balloc>:
 800ab0c:	b570      	push	{r4, r5, r6, lr}
 800ab0e:	69c6      	ldr	r6, [r0, #28]
 800ab10:	4604      	mov	r4, r0
 800ab12:	460d      	mov	r5, r1
 800ab14:	b976      	cbnz	r6, 800ab34 <_Balloc+0x28>
 800ab16:	2010      	movs	r0, #16
 800ab18:	f7ff fe84 	bl	800a824 <malloc>
 800ab1c:	4602      	mov	r2, r0
 800ab1e:	61e0      	str	r0, [r4, #28]
 800ab20:	b920      	cbnz	r0, 800ab2c <_Balloc+0x20>
 800ab22:	4b18      	ldr	r3, [pc, #96]	@ (800ab84 <_Balloc+0x78>)
 800ab24:	4818      	ldr	r0, [pc, #96]	@ (800ab88 <_Balloc+0x7c>)
 800ab26:	216b      	movs	r1, #107	@ 0x6b
 800ab28:	f000 fe5a 	bl	800b7e0 <__assert_func>
 800ab2c:	e9c0 6601 	strd	r6, r6, [r0, #4]
 800ab30:	6006      	str	r6, [r0, #0]
 800ab32:	60c6      	str	r6, [r0, #12]
 800ab34:	69e6      	ldr	r6, [r4, #28]
 800ab36:	68f3      	ldr	r3, [r6, #12]
 800ab38:	b183      	cbz	r3, 800ab5c <_Balloc+0x50>
 800ab3a:	69e3      	ldr	r3, [r4, #28]
 800ab3c:	68db      	ldr	r3, [r3, #12]
 800ab3e:	f853 0025 	ldr.w	r0, [r3, r5, lsl #2]
 800ab42:	b9b8      	cbnz	r0, 800ab74 <_Balloc+0x68>
 800ab44:	2101      	movs	r1, #1
 800ab46:	fa01 f605 	lsl.w	r6, r1, r5
 800ab4a:	1d72      	adds	r2, r6, #5
 800ab4c:	0092      	lsls	r2, r2, #2
 800ab4e:	4620      	mov	r0, r4
 800ab50:	f000 fe64 	bl	800b81c <_calloc_r>
 800ab54:	b160      	cbz	r0, 800ab70 <_Balloc+0x64>
 800ab56:	e9c0 5601 	strd	r5, r6, [r0, #4]
 800ab5a:	e00e      	b.n	800ab7a <_Balloc+0x6e>
 800ab5c:	2221      	movs	r2, #33	@ 0x21
 800ab5e:	2104      	movs	r1, #4
 800ab60:	4620      	mov	r0, r4
 800ab62:	f000 fe5b 	bl	800b81c <_calloc_r>
 800ab66:	69e3      	ldr	r3, [r4, #28]
 800ab68:	60f0      	str	r0, [r6, #12]
 800ab6a:	68db      	ldr	r3, [r3, #12]
 800ab6c:	2b00      	cmp	r3, #0
 800ab6e:	d1e4      	bne.n	800ab3a <_Balloc+0x2e>
 800ab70:	2000      	movs	r0, #0
 800ab72:	bd70      	pop	{r4, r5, r6, pc}
 800ab74:	6802      	ldr	r2, [r0, #0]
 800ab76:	f843 2025 	str.w	r2, [r3, r5, lsl #2]
 800ab7a:	2300      	movs	r3, #0
 800ab7c:	e9c0 3303 	strd	r3, r3, [r0, #12]
 800ab80:	e7f7      	b.n	800ab72 <_Balloc+0x66>
 800ab82:	bf00      	nop
 800ab84:	0800ba8b 	.word	0x0800ba8b
 800ab88:	0800bb7c 	.word	0x0800bb7c

0800ab8c <_Bfree>:
 800ab8c:	b570      	push	{r4, r5, r6, lr}
 800ab8e:	69c6      	ldr	r6, [r0, #28]
 800ab90:	4605      	mov	r5, r0
 800ab92:	460c      	mov	r4, r1
 800ab94:	b976      	cbnz	r6, 800abb4 <_Bfree+0x28>
 800ab96:	2010      	movs	r0, #16
 800ab98:	f7ff fe44 	bl	800a824 <malloc>
 800ab9c:	4602      	mov	r2, r0
 800ab9e:	61e8      	str	r0, [r5, #28]
 800aba0:	b920      	cbnz	r0, 800abac <_Bfree+0x20>
 800aba2:	4b09      	ldr	r3, [pc, #36]	@ (800abc8 <_Bfree+0x3c>)
 800aba4:	4809      	ldr	r0, [pc, #36]	@ (800abcc <_Bfree+0x40>)
 800aba6:	218f      	movs	r1, #143	@ 0x8f
 800aba8:	f000 fe1a 	bl	800b7e0 <__assert_func>
 800abac:	e9c0 6601 	strd	r6, r6, [r0, #4]
 800abb0:	6006      	str	r6, [r0, #0]
 800abb2:	60c6      	str	r6, [r0, #12]
 800abb4:	b13c      	cbz	r4, 800abc6 <_Bfree+0x3a>
 800abb6:	69eb      	ldr	r3, [r5, #28]
 800abb8:	6862      	ldr	r2, [r4, #4]
 800abba:	68db      	ldr	r3, [r3, #12]
 800abbc:	f853 1022 	ldr.w	r1, [r3, r2, lsl #2]
 800abc0:	6021      	str	r1, [r4, #0]
 800abc2:	f843 4022 	str.w	r4, [r3, r2, lsl #2]
 800abc6:	bd70      	pop	{r4, r5, r6, pc}
 800abc8:	0800ba8b 	.word	0x0800ba8b
 800abcc:	0800bb7c 	.word	0x0800bb7c

0800abd0 <__multadd>:
 800abd0:	e92d 41f0 	stmdb	sp!, {r4, r5, r6, r7, r8, lr}
 800abd4:	690d      	ldr	r5, [r1, #16]
 800abd6:	4607      	mov	r7, r0
 800abd8:	460c      	mov	r4, r1
 800abda:	461e      	mov	r6, r3
 800abdc:	f101 0c14 	add.w	ip, r1, #20
 800abe0:	2000      	movs	r0, #0
 800abe2:	f8dc 3000 	ldr.w	r3, [ip]
 800abe6:	b299      	uxth	r1, r3
 800abe8:	fb02 6101 	mla	r1, r2, r1, r6
 800abec:	0c1e      	lsrs	r6, r3, #16
 800abee:	0c0b      	lsrs	r3, r1, #16
 800abf0:	fb02 3306 	mla	r3, r2, r6, r3
 800abf4:	b289      	uxth	r1, r1
 800abf6:	3001      	adds	r0, #1
 800abf8:	eb01 4103 	add.w	r1, r1, r3, lsl #16
 800abfc:	4285      	cmp	r5, r0
 800abfe:	f84c 1b04 	str.w	r1, [ip], #4
 800ac02:	ea4f 4613 	mov.w	r6, r3, lsr #16
 800ac06:	dcec      	bgt.n	800abe2 <__multadd+0x12>
 800ac08:	b30e      	cbz	r6, 800ac4e <__multadd+0x7e>
 800ac0a:	68a3      	ldr	r3, [r4, #8]
 800ac0c:	42ab      	cmp	r3, r5
 800ac0e:	dc19      	bgt.n	800ac44 <__multadd+0x74>
 800ac10:	6861      	ldr	r1, [r4, #4]
 800ac12:	4638      	mov	r0, r7
 800ac14:	3101      	adds	r1, #1
 800ac16:	f7ff ff79 	bl	800ab0c <_Balloc>
 800ac1a:	4680      	mov	r8, r0
 800ac1c:	b928      	cbnz	r0, 800ac2a <__multadd+0x5a>
 800ac1e:	4602      	mov	r2, r0
 800ac20:	4b0c      	ldr	r3, [pc, #48]	@ (800ac54 <__multadd+0x84>)
 800ac22:	480d      	ldr	r0, [pc, #52]	@ (800ac58 <__multadd+0x88>)
 800ac24:	21ba      	movs	r1, #186	@ 0xba
 800ac26:	f000 fddb 	bl	800b7e0 <__assert_func>
 800ac2a:	6922      	ldr	r2, [r4, #16]
 800ac2c:	3202      	adds	r2, #2
 800ac2e:	f104 010c 	add.w	r1, r4, #12
 800ac32:	0092      	lsls	r2, r2, #2
 800ac34:	300c      	adds	r0, #12
 800ac36:	f7fe fb0d 	bl	8009254 <memcpy>
 800ac3a:	4621      	mov	r1, r4
 800ac3c:	4638      	mov	r0, r7
 800ac3e:	f7ff ffa5 	bl	800ab8c <_Bfree>
 800ac42:	4644      	mov	r4, r8
 800ac44:	eb04 0385 	add.w	r3, r4, r5, lsl #2
 800ac48:	3501      	adds	r5, #1
 800ac4a:	615e      	str	r6, [r3, #20]
 800ac4c:	6125      	str	r5, [r4, #16]
 800ac4e:	4620      	mov	r0, r4
 800ac50:	e8bd 81f0 	ldmia.w	sp!, {r4, r5, r6, r7, r8, pc}
 800ac54:	0800bafa 	.word	0x0800bafa
 800ac58:	0800bb7c 	.word	0x0800bb7c

0800ac5c <__s2b>:
 800ac5c:	e92d 43f8 	stmdb	sp!, {r3, r4, r5, r6, r7, r8, r9, lr}
 800ac60:	460c      	mov	r4, r1
 800ac62:	4615      	mov	r5, r2
 800ac64:	461f      	mov	r7, r3
 800ac66:	2209      	movs	r2, #9
 800ac68:	3308      	adds	r3, #8
 800ac6a:	4606      	mov	r6, r0
 800ac6c:	fb93 f3f2 	sdiv	r3, r3, r2
 800ac70:	2100      	movs	r1, #0
 800ac72:	2201      	movs	r2, #1
 800ac74:	429a      	cmp	r2, r3
 800ac76:	db09      	blt.n	800ac8c <__s2b+0x30>
 800ac78:	4630      	mov	r0, r6
 800ac7a:	f7ff ff47 	bl	800ab0c <_Balloc>
 800ac7e:	b940      	cbnz	r0, 800ac92 <__s2b+0x36>
 800ac80:	4602      	mov	r2, r0
 800ac82:	4b19      	ldr	r3, [pc, #100]	@ (800ace8 <__s2b+0x8c>)
 800ac84:	4819      	ldr	r0, [pc, #100]	@ (800acec <__s2b+0x90>)
 800ac86:	21d3      	movs	r1, #211	@ 0xd3
 800ac88:	f000 fdaa 	bl	800b7e0 <__assert_func>
 800ac8c:	0052      	lsls	r2, r2, #1
 800ac8e:	3101      	adds	r1, #1
 800ac90:	e7f0      	b.n	800ac74 <__s2b+0x18>
 800ac92:	9b08      	ldr	r3, [sp, #32]
 800ac94:	6143      	str	r3, [r0, #20]
 800ac96:	2d09      	cmp	r5, #9
 800ac98:	f04f 0301 	mov.w	r3, #1
 800ac9c:	6103      	str	r3, [r0, #16]
 800ac9e:	dd16      	ble.n	800acce <__s2b+0x72>
 800aca0:	f104 0909 	add.w	r9, r4, #9
 800aca4:	46c8      	mov	r8, r9
 800aca6:	442c      	add	r4, r5
 800aca8:	f818 3b01 	ldrb.w	r3, [r8], #1
 800acac:	4601      	mov	r1, r0
 800acae:	3b30      	subs	r3, #48	@ 0x30
 800acb0:	220a      	movs	r2, #10
 800acb2:	4630      	mov	r0, r6
 800acb4:	f7ff ff8c 	bl	800abd0 <__multadd>
 800acb8:	45a0      	cmp	r8, r4
 800acba:	d1f5      	bne.n	800aca8 <__s2b+0x4c>
 800acbc:	f1a5 0408 	sub.w	r4, r5, #8
 800acc0:	444c      	add	r4, r9
 800acc2:	1b2d      	subs	r5, r5, r4
 800acc4:	1963      	adds	r3, r4, r5
 800acc6:	42bb      	cmp	r3, r7
 800acc8:	db04      	blt.n	800acd4 <__s2b+0x78>
 800acca:	e8bd 83f8 	ldmia.w	sp!, {r3, r4, r5, r6, r7, r8, r9, pc}
 800acce:	340a      	adds	r4, #10
 800acd0:	2509      	movs	r5, #9
 800acd2:	e7f6      	b.n	800acc2 <__s2b+0x66>
 800acd4:	f814 3b01 	ldrb.w	r3, [r4], #1
 800acd8:	4601      	mov	r1, r0
 800acda:	3b30      	subs	r3, #48	@ 0x30
 800acdc:	220a      	movs	r2, #10
 800acde:	4630      	mov	r0, r6
 800ace0:	f7ff ff76 	bl	800abd0 <__multadd>
 800ace4:	e7ee      	b.n	800acc4 <__s2b+0x68>
 800ace6:	bf00      	nop
 800ace8:	0800bafa 	.word	0x0800bafa
 800acec:	0800bb7c 	.word	0x0800bb7c

0800acf0 <__hi0bits>:
 800acf0:	f5b0 3f80 	cmp.w	r0, #65536	@ 0x10000
 800acf4:	4603      	mov	r3, r0
 800acf6:	bf36      	itet	cc
 800acf8:	0403      	lslcc	r3, r0, #16
 800acfa:	2000      	movcs	r0, #0
 800acfc:	2010      	movcc	r0, #16
 800acfe:	f1b3 7f80 	cmp.w	r3, #16777216	@ 0x1000000
 800ad02:	bf3c      	itt	cc
 800ad04:	021b      	lslcc	r3, r3, #8
 800ad06:	3008      	addcc	r0, #8
 800ad08:	f1b3 5f80 	cmp.w	r3, #268435456	@ 0x10000000
 800ad0c:	bf3c      	itt	cc
 800ad0e:	011b      	lslcc	r3, r3, #4
 800ad10:	3004      	addcc	r0, #4
 800ad12:	f1b3 4f80 	cmp.w	r3, #1073741824	@ 0x40000000
 800ad16:	bf3c      	itt	cc
 800ad18:	009b      	lslcc	r3, r3, #2
 800ad1a:	3002      	addcc	r0, #2
 800ad1c:	2b00      	cmp	r3, #0
 800ad1e:	db05      	blt.n	800ad2c <__hi0bits+0x3c>
 800ad20:	f013 4f80 	tst.w	r3, #1073741824	@ 0x40000000
 800ad24:	f100 0001 	add.w	r0, r0, #1
 800ad28:	bf08      	it	eq
 800ad2a:	2020      	moveq	r0, #32
 800ad2c:	4770      	bx	lr

0800ad2e <__lo0bits>:
 800ad2e:	6803      	ldr	r3, [r0, #0]
 800ad30:	4602      	mov	r2, r0
 800ad32:	f013 0007 	ands.w	r0, r3, #7
 800ad36:	d00b      	beq.n	800ad50 <__lo0bits+0x22>
 800ad38:	07d9      	lsls	r1, r3, #31
 800ad3a:	d421      	bmi.n	800ad80 <__lo0bits+0x52>
 800ad3c:	0798      	lsls	r0, r3, #30
 800ad3e:	bf49      	itett	mi
 800ad40:	085b      	lsrmi	r3, r3, #1
 800ad42:	089b      	lsrpl	r3, r3, #2
 800ad44:	2001      	movmi	r0, #1
 800ad46:	6013      	strmi	r3, [r2, #0]
 800ad48:	bf5c      	itt	pl
 800ad4a:	6013      	strpl	r3, [r2, #0]
 800ad4c:	2002      	movpl	r0, #2
 800ad4e:	4770      	bx	lr
 800ad50:	b299      	uxth	r1, r3
 800ad52:	b909      	cbnz	r1, 800ad58 <__lo0bits+0x2a>
 800ad54:	0c1b      	lsrs	r3, r3, #16
 800ad56:	2010      	movs	r0, #16
 800ad58:	b2d9      	uxtb	r1, r3
 800ad5a:	b909      	cbnz	r1, 800ad60 <__lo0bits+0x32>
 800ad5c:	3008      	adds	r0, #8
 800ad5e:	0a1b      	lsrs	r3, r3, #8
 800ad60:	0719      	lsls	r1, r3, #28
 800ad62:	bf04      	itt	eq
 800ad64:	091b      	lsreq	r3, r3, #4
 800ad66:	3004      	addeq	r0, #4
 800ad68:	0799      	lsls	r1, r3, #30
 800ad6a:	bf04      	itt	eq
 800ad6c:	089b      	lsreq	r3, r3, #2
 800ad6e:	3002      	addeq	r0, #2
 800ad70:	07d9      	lsls	r1, r3, #31
 800ad72:	d403      	bmi.n	800ad7c <__lo0bits+0x4e>
 800ad74:	085b      	lsrs	r3, r3, #1
 800ad76:	f100 0001 	add.w	r0, r0, #1
 800ad7a:	d003      	beq.n	800ad84 <__lo0bits+0x56>
 800ad7c:	6013      	str	r3, [r2, #0]
 800ad7e:	4770      	bx	lr
 800ad80:	2000      	movs	r0, #0
 800ad82:	4770      	bx	lr
 800ad84:	2020      	movs	r0, #32
 800ad86:	4770      	bx	lr

0800ad88 <__i2b>:
 800ad88:	b510      	push	{r4, lr}
 800ad8a:	460c      	mov	r4, r1
 800ad8c:	2101      	movs	r1, #1
 800ad8e:	f7ff febd 	bl	800ab0c <_Balloc>
 800ad92:	4602      	mov	r2, r0
 800ad94:	b928      	cbnz	r0, 800ada2 <__i2b+0x1a>
 800ad96:	4b05      	ldr	r3, [pc, #20]	@ (800adac <__i2b+0x24>)
 800ad98:	4805      	ldr	r0, [pc, #20]	@ (800adb0 <__i2b+0x28>)
 800ad9a:	f240 1145 	movw	r1, #325	@ 0x145
 800ad9e:	f000 fd1f 	bl	800b7e0 <__assert_func>
 800ada2:	2301      	movs	r3, #1
 800ada4:	6144      	str	r4, [r0, #20]
 800ada6:	6103      	str	r3, [r0, #16]
 800ada8:	bd10      	pop	{r4, pc}
 800adaa:	bf00      	nop
 800adac:	0800bafa 	.word	0x0800bafa
 800adb0:	0800bb7c 	.word	0x0800bb7c

0800adb4 <__multiply>:
 800adb4:	e92d 4ff0 	stmdb	sp!, {r4, r5, r6, r7, r8, r9, sl, fp, lr}
 800adb8:	4617      	mov	r7, r2
 800adba:	690a      	ldr	r2, [r1, #16]
 800adbc:	693b      	ldr	r3, [r7, #16]
 800adbe:	429a      	cmp	r2, r3
 800adc0:	bfa8      	it	ge
 800adc2:	463b      	movge	r3, r7
 800adc4:	4689      	mov	r9, r1
 800adc6:	bfa4      	itt	ge
 800adc8:	460f      	movge	r7, r1
 800adca:	4699      	movge	r9, r3
 800adcc:	693d      	ldr	r5, [r7, #16]
 800adce:	f8d9 a010 	ldr.w	sl, [r9, #16]
 800add2:	68bb      	ldr	r3, [r7, #8]
 800add4:	6879      	ldr	r1, [r7, #4]
 800add6:	eb05 060a 	add.w	r6, r5, sl
 800adda:	42b3      	cmp	r3, r6
 800addc:	b085      	sub	sp, #20
 800adde:	bfb8      	it	lt
 800ade0:	3101      	addlt	r1, #1
 800ade2:	f7ff fe93 	bl	800ab0c <_Balloc>
 800ade6:	b930      	cbnz	r0, 800adf6 <__multiply+0x42>
 800ade8:	4602      	mov	r2, r0
 800adea:	4b41      	ldr	r3, [pc, #260]	@ (800aef0 <__multiply+0x13c>)
 800adec:	4841      	ldr	r0, [pc, #260]	@ (800aef4 <__multiply+0x140>)
 800adee:	f44f 71b1 	mov.w	r1, #354	@ 0x162
 800adf2:	f000 fcf5 	bl	800b7e0 <__assert_func>
 800adf6:	f100 0414 	add.w	r4, r0, #20
 800adfa:	eb04 0e86 	add.w	lr, r4, r6, lsl #2
 800adfe:	4623      	mov	r3, r4
 800ae00:	2200      	movs	r2, #0
 800ae02:	4573      	cmp	r3, lr
 800ae04:	d320      	bcc.n	800ae48 <__multiply+0x94>
 800ae06:	f107 0814 	add.w	r8, r7, #20
 800ae0a:	f109 0114 	add.w	r1, r9, #20
 800ae0e:	eb08 0585 	add.w	r5, r8, r5, lsl #2
 800ae12:	eb01 038a 	add.w	r3, r1, sl, lsl #2
 800ae16:	9302      	str	r3, [sp, #8]
 800ae18:	1beb      	subs	r3, r5, r7
 800ae1a:	3b15      	subs	r3, #21
 800ae1c:	f023 0303 	bic.w	r3, r3, #3
 800ae20:	3304      	adds	r3, #4
 800ae22:	3715      	adds	r7, #21
 800ae24:	42bd      	cmp	r5, r7
 800ae26:	bf38      	it	cc
 800ae28:	2304      	movcc	r3, #4
 800ae2a:	9301      	str	r3, [sp, #4]
 800ae2c:	9b02      	ldr	r3, [sp, #8]
 800ae2e:	9103      	str	r1, [sp, #12]
 800ae30:	428b      	cmp	r3, r1
 800ae32:	d80c      	bhi.n	800ae4e <__multiply+0x9a>
 800ae34:	2e00      	cmp	r6, #0
 800ae36:	dd03      	ble.n	800ae40 <__multiply+0x8c>
 800ae38:	f85e 3d04 	ldr.w	r3, [lr, #-4]!
 800ae3c:	2b00      	cmp	r3, #0
 800ae3e:	d055      	beq.n	800aeec <__multiply+0x138>
 800ae40:	6106      	str	r6, [r0, #16]
 800ae42:	b005      	add	sp, #20
 800ae44:	e8bd 8ff0 	ldmia.w	sp!, {r4, r5, r6, r7, r8, r9, sl, fp, pc}
 800ae48:	f843 2b04 	str.w	r2, [r3], #4
 800ae4c:	e7d9      	b.n	800ae02 <__multiply+0x4e>
 800ae4e:	f8b1 a000 	ldrh.w	sl, [r1]
 800ae52:	f1ba 0f00 	cmp.w	sl, #0
 800ae56:	d01f      	beq.n	800ae98 <__multiply+0xe4>
 800ae58:	46c4      	mov	ip, r8
 800ae5a:	46a1      	mov	r9, r4
 800ae5c:	2700      	movs	r7, #0
 800ae5e:	f85c 2b04 	ldr.w	r2, [ip], #4
 800ae62:	f8d9 3000 	ldr.w	r3, [r9]
 800ae66:	fa1f fb82 	uxth.w	fp, r2
 800ae6a:	b29b      	uxth	r3, r3
 800ae6c:	fb0a 330b 	mla	r3, sl, fp, r3
 800ae70:	443b      	add	r3, r7
 800ae72:	f8d9 7000 	ldr.w	r7, [r9]
 800ae76:	0c12      	lsrs	r2, r2, #16
 800ae78:	0c3f      	lsrs	r7, r7, #16
 800ae7a:	fb0a 7202 	mla	r2, sl, r2, r7
 800ae7e:	eb02 4213 	add.w	r2, r2, r3, lsr #16
 800ae82:	b29b      	uxth	r3, r3
 800ae84:	ea43 4302 	orr.w	r3, r3, r2, lsl #16
 800ae88:	4565      	cmp	r5, ip
 800ae8a:	f849 3b04 	str.w	r3, [r9], #4
 800ae8e:	ea4f 4712 	mov.w	r7, r2, lsr #16
 800ae92:	d8e4      	bhi.n	800ae5e <__multiply+0xaa>
 800ae94:	9b01      	ldr	r3, [sp, #4]
 800ae96:	50e7      	str	r7, [r4, r3]
 800ae98:	9b03      	ldr	r3, [sp, #12]
 800ae9a:	f8b3 9002 	ldrh.w	r9, [r3, #2]
 800ae9e:	3104      	adds	r1, #4
 800aea0:	f1b9 0f00 	cmp.w	r9, #0
 800aea4:	d020      	beq.n	800aee8 <__multiply+0x134>
 800aea6:	6823      	ldr	r3, [r4, #0]
 800aea8:	4647      	mov	r7, r8
 800aeaa:	46a4      	mov	ip, r4
 800aeac:	f04f 0a00 	mov.w	sl, #0
 800aeb0:	f8b7 b000 	ldrh.w	fp, [r7]
 800aeb4:	f8bc 2002 	ldrh.w	r2, [ip, #2]
 800aeb8:	fb09 220b 	mla	r2, r9, fp, r2
 800aebc:	4452      	add	r2, sl
 800aebe:	b29b      	uxth	r3, r3
 800aec0:	ea43 4302 	orr.w	r3, r3, r2, lsl #16
 800aec4:	f84c 3b04 	str.w	r3, [ip], #4
 800aec8:	f857 3b04 	ldr.w	r3, [r7], #4
 800aecc:	ea4f 4a13 	mov.w	sl, r3, lsr #16
 800aed0:	f8bc 3000 	ldrh.w	r3, [ip]
 800aed4:	fb09 330a 	mla	r3, r9, sl, r3
 800aed8:	eb03 4312 	add.w	r3, r3, r2, lsr #16
 800aedc:	42bd      	cmp	r5, r7
 800aede:	ea4f 4a13 	mov.w	sl, r3, lsr #16
 800aee2:	d8e5      	bhi.n	800aeb0 <__multiply+0xfc>
 800aee4:	9a01      	ldr	r2, [sp, #4]
 800aee6:	50a3      	str	r3, [r4, r2]
 800aee8:	3404      	adds	r4, #4
 800aeea:	e79f      	b.n	800ae2c <__multiply+0x78>
 800aeec:	3e01      	subs	r6, #1
 800aeee:	e7a1      	b.n	800ae34 <__multiply+0x80>
 800aef0:	0800bafa 	.word	0x0800bafa
 800aef4:	0800bb7c 	.word	0x0800bb7c

0800aef8 <__pow5mult>:
 800aef8:	e92d 43f8 	stmdb	sp!, {r3, r4, r5, r6, r7, r8, r9, lr}
 800aefc:	4615      	mov	r5, r2
 800aefe:	f012 0203 	ands.w	r2, r2, #3
 800af02:	4607      	mov	r7, r0
 800af04:	460e      	mov	r6, r1
 800af06:	d007      	beq.n	800af18 <__pow5mult+0x20>
 800af08:	4c25      	ldr	r4, [pc, #148]	@ (800afa0 <__pow5mult+0xa8>)
 800af0a:	3a01      	subs	r2, #1
 800af0c:	2300      	movs	r3, #0
 800af0e:	f854 2022 	ldr.w	r2, [r4, r2, lsl #2]
 800af12:	f7ff fe5d 	bl	800abd0 <__multadd>
 800af16:	4606      	mov	r6, r0
 800af18:	10ad      	asrs	r5, r5, #2
 800af1a:	d03d      	beq.n	800af98 <__pow5mult+0xa0>
 800af1c:	69fc      	ldr	r4, [r7, #28]
 800af1e:	b97c      	cbnz	r4, 800af40 <__pow5mult+0x48>
 800af20:	2010      	movs	r0, #16
 800af22:	f7ff fc7f 	bl	800a824 <malloc>
 800af26:	4602      	mov	r2, r0
 800af28:	61f8      	str	r0, [r7, #28]
 800af2a:	b928      	cbnz	r0, 800af38 <__pow5mult+0x40>
 800af2c:	4b1d      	ldr	r3, [pc, #116]	@ (800afa4 <__pow5mult+0xac>)
 800af2e:	481e      	ldr	r0, [pc, #120]	@ (800afa8 <__pow5mult+0xb0>)
 800af30:	f240 11b3 	movw	r1, #435	@ 0x1b3
 800af34:	f000 fc54 	bl	800b7e0 <__assert_func>
 800af38:	e9c0 4401 	strd	r4, r4, [r0, #4]
 800af3c:	6004      	str	r4, [r0, #0]
 800af3e:	60c4      	str	r4, [r0, #12]
 800af40:	f8d7 801c 	ldr.w	r8, [r7, #28]
 800af44:	f8d8 4008 	ldr.w	r4, [r8, #8]
 800af48:	b94c      	cbnz	r4, 800af5e <__pow5mult+0x66>
 800af4a:	f240 2171 	movw	r1, #625	@ 0x271
 800af4e:	4638      	mov	r0, r7
 800af50:	f7ff ff1a 	bl	800ad88 <__i2b>
 800af54:	2300      	movs	r3, #0
 800af56:	f8c8 0008 	str.w	r0, [r8, #8]
 800af5a:	4604      	mov	r4, r0
 800af5c:	6003      	str	r3, [r0, #0]
 800af5e:	f04f 0900 	mov.w	r9, #0
 800af62:	07eb      	lsls	r3, r5, #31
 800af64:	d50a      	bpl.n	800af7c <__pow5mult+0x84>
 800af66:	4631      	mov	r1, r6
 800af68:	4622      	mov	r2, r4
 800af6a:	4638      	mov	r0, r7
 800af6c:	f7ff ff22 	bl	800adb4 <__multiply>
 800af70:	4631      	mov	r1, r6
 800af72:	4680      	mov	r8, r0
 800af74:	4638      	mov	r0, r7
 800af76:	f7ff fe09 	bl	800ab8c <_Bfree>
 800af7a:	4646      	mov	r6, r8
 800af7c:	106d      	asrs	r5, r5, #1
 800af7e:	d00b      	beq.n	800af98 <__pow5mult+0xa0>
 800af80:	6820      	ldr	r0, [r4, #0]
 800af82:	b938      	cbnz	r0, 800af94 <__pow5mult+0x9c>
 800af84:	4622      	mov	r2, r4
 800af86:	4621      	mov	r1, r4
 800af88:	4638      	mov	r0, r7
 800af8a:	f7ff ff13 	bl	800adb4 <__multiply>
 800af8e:	6020      	str	r0, [r4, #0]
 800af90:	f8c0 9000 	str.w	r9, [r0]
 800af94:	4604      	mov	r4, r0
 800af96:	e7e4      	b.n	800af62 <__pow5mult+0x6a>
 800af98:	4630      	mov	r0, r6
 800af9a:	e8bd 83f8 	ldmia.w	sp!, {r3, r4, r5, r6, r7, r8, r9, pc}
 800af9e:	bf00      	nop
 800afa0:	0800bd6c 	.word	0x0800bd6c
 800afa4:	0800ba8b 	.word	0x0800ba8b
 800afa8:	0800bb7c 	.word	0x0800bb7c

0800afac <__lshift>:
 800afac:	e92d 47f0 	stmdb	sp!, {r4, r5, r6, r7, r8, r9, sl, lr}
 800afb0:	460c      	mov	r4, r1
 800afb2:	6849      	ldr	r1, [r1, #4]
 800afb4:	6923      	ldr	r3, [r4, #16]
 800afb6:	eb03 1862 	add.w	r8, r3, r2, asr #5
 800afba:	68a3      	ldr	r3, [r4, #8]
 800afbc:	4607      	mov	r7, r0
 800afbe:	4691      	mov	r9, r2
 800afc0:	ea4f 1a62 	mov.w	sl, r2, asr #5
 800afc4:	f108 0601 	add.w	r6, r8, #1
 800afc8:	42b3      	cmp	r3, r6
 800afca:	db0b      	blt.n	800afe4 <__lshift+0x38>
 800afcc:	4638      	mov	r0, r7
 800afce:	f7ff fd9d 	bl	800ab0c <_Balloc>
 800afd2:	4605      	mov	r5, r0
 800afd4:	b948      	cbnz	r0, 800afea <__lshift+0x3e>
 800afd6:	4602      	mov	r2, r0
 800afd8:	4b28      	ldr	r3, [pc, #160]	@ (800b07c <__lshift+0xd0>)
 800afda:	4829      	ldr	r0, [pc, #164]	@ (800b080 <__lshift+0xd4>)
 800afdc:	f44f 71ef 	mov.w	r1, #478	@ 0x1de
 800afe0:	f000 fbfe 	bl	800b7e0 <__assert_func>
 800afe4:	3101      	adds	r1, #1
 800afe6:	005b      	lsls	r3, r3, #1
 800afe8:	e7ee      	b.n	800afc8 <__lshift+0x1c>
 800afea:	2300      	movs	r3, #0
 800afec:	f100 0114 	add.w	r1, r0, #20
 800aff0:	f100 0210 	add.w	r2, r0, #16
 800aff4:	4618      	mov	r0, r3
 800aff6:	4553      	cmp	r3, sl
 800aff8:	db33      	blt.n	800b062 <__lshift+0xb6>
 800affa:	6920      	ldr	r0, [r4, #16]
 800affc:	ea2a 7aea 	bic.w	sl, sl, sl, asr #31
 800b000:	f104 0314 	add.w	r3, r4, #20
 800b004:	f019 091f 	ands.w	r9, r9, #31
 800b008:	eb01 018a 	add.w	r1, r1, sl, lsl #2
 800b00c:	eb03 0c80 	add.w	ip, r3, r0, lsl #2
 800b010:	d02b      	beq.n	800b06a <__lshift+0xbe>
 800b012:	f1c9 0e20 	rsb	lr, r9, #32
 800b016:	468a      	mov	sl, r1
 800b018:	2200      	movs	r2, #0
 800b01a:	6818      	ldr	r0, [r3, #0]
 800b01c:	fa00 f009 	lsl.w	r0, r0, r9
 800b020:	4310      	orrs	r0, r2
 800b022:	f84a 0b04 	str.w	r0, [sl], #4
 800b026:	f853 2b04 	ldr.w	r2, [r3], #4
 800b02a:	459c      	cmp	ip, r3
 800b02c:	fa22 f20e 	lsr.w	r2, r2, lr
 800b030:	d8f3      	bhi.n	800b01a <__lshift+0x6e>
 800b032:	ebac 0304 	sub.w	r3, ip, r4
 800b036:	3b15      	subs	r3, #21
 800b038:	f023 0303 	bic.w	r3, r3, #3
 800b03c:	3304      	adds	r3, #4
 800b03e:	f104 0015 	add.w	r0, r4, #21
 800b042:	4560      	cmp	r0, ip
 800b044:	bf88      	it	hi
 800b046:	2304      	movhi	r3, #4
 800b048:	50ca      	str	r2, [r1, r3]
 800b04a:	b10a      	cbz	r2, 800b050 <__lshift+0xa4>
 800b04c:	f108 0602 	add.w	r6, r8, #2
 800b050:	3e01      	subs	r6, #1
 800b052:	4638      	mov	r0, r7
 800b054:	612e      	str	r6, [r5, #16]
 800b056:	4621      	mov	r1, r4
 800b058:	f7ff fd98 	bl	800ab8c <_Bfree>
 800b05c:	4628      	mov	r0, r5
 800b05e:	e8bd 87f0 	ldmia.w	sp!, {r4, r5, r6, r7, r8, r9, sl, pc}
 800b062:	f842 0f04 	str.w	r0, [r2, #4]!
 800b066:	3301      	adds	r3, #1
 800b068:	e7c5      	b.n	800aff6 <__lshift+0x4a>
 800b06a:	3904      	subs	r1, #4
 800b06c:	f853 2b04 	ldr.w	r2, [r3], #4
 800b070:	f841 2f04 	str.w	r2, [r1, #4]!
 800b074:	459c      	cmp	ip, r3
 800b076:	d8f9      	bhi.n	800b06c <__lshift+0xc0>
 800b078:	e7ea      	b.n	800b050 <__lshift+0xa4>
 800b07a:	bf00      	nop
 800b07c:	0800bafa 	.word	0x0800bafa
 800b080:	0800bb7c 	.word	0x0800bb7c

0800b084 <__mcmp>:
 800b084:	690a      	ldr	r2, [r1, #16]
 800b086:	4603      	mov	r3, r0
 800b088:	6900      	ldr	r0, [r0, #16]
 800b08a:	1a80      	subs	r0, r0, r2
 800b08c:	b530      	push	{r4, r5, lr}
 800b08e:	d10e      	bne.n	800b0ae <__mcmp+0x2a>
 800b090:	3314      	adds	r3, #20
 800b092:	3114      	adds	r1, #20
 800b094:	eb03 0482 	add.w	r4, r3, r2, lsl #2
 800b098:	eb01 0182 	add.w	r1, r1, r2, lsl #2
 800b09c:	f854 5d04 	ldr.w	r5, [r4, #-4]!
 800b0a0:	f851 2d04 	ldr.w	r2, [r1, #-4]!
 800b0a4:	4295      	cmp	r5, r2
 800b0a6:	d003      	beq.n	800b0b0 <__mcmp+0x2c>
 800b0a8:	d205      	bcs.n	800b0b6 <__mcmp+0x32>
 800b0aa:	f04f 30ff 	mov.w	r0, #4294967295	@ 0xffffffff
 800b0ae:	bd30      	pop	{r4, r5, pc}
 800b0b0:	42a3      	cmp	r3, r4
 800b0b2:	d3f3      	bcc.n	800b09c <__mcmp+0x18>
 800b0b4:	e7fb      	b.n	800b0ae <__mcmp+0x2a>
 800b0b6:	2001      	movs	r0, #1
 800b0b8:	e7f9      	b.n	800b0ae <__mcmp+0x2a>
	...

0800b0bc <__mdiff>:
 800b0bc:	e92d 4ff7 	stmdb	sp!, {r0, r1, r2, r4, r5, r6, r7, r8, r9, sl, fp, lr}
 800b0c0:	4689      	mov	r9, r1
 800b0c2:	4606      	mov	r6, r0
 800b0c4:	4611      	mov	r1, r2
 800b0c6:	4648      	mov	r0, r9
 800b0c8:	4614      	mov	r4, r2
 800b0ca:	f7ff ffdb 	bl	800b084 <__mcmp>
 800b0ce:	1e05      	subs	r5, r0, #0
 800b0d0:	d112      	bne.n	800b0f8 <__mdiff+0x3c>
 800b0d2:	4629      	mov	r1, r5
 800b0d4:	4630      	mov	r0, r6
 800b0d6:	f7ff fd19 	bl	800ab0c <_Balloc>
 800b0da:	4602      	mov	r2, r0
 800b0dc:	b928      	cbnz	r0, 800b0ea <__mdiff+0x2e>
 800b0de:	4b3f      	ldr	r3, [pc, #252]	@ (800b1dc <__mdiff+0x120>)
 800b0e0:	f240 2137 	movw	r1, #567	@ 0x237
 800b0e4:	483e      	ldr	r0, [pc, #248]	@ (800b1e0 <__mdiff+0x124>)
 800b0e6:	f000 fb7b 	bl	800b7e0 <__assert_func>
 800b0ea:	2301      	movs	r3, #1
 800b0ec:	e9c0 3504 	strd	r3, r5, [r0, #16]
 800b0f0:	4610      	mov	r0, r2
 800b0f2:	b003      	add	sp, #12
 800b0f4:	e8bd 8ff0 	ldmia.w	sp!, {r4, r5, r6, r7, r8, r9, sl, fp, pc}
 800b0f8:	bfbc      	itt	lt
 800b0fa:	464b      	movlt	r3, r9
 800b0fc:	46a1      	movlt	r9, r4
 800b0fe:	4630      	mov	r0, r6
 800b100:	f8d9 1004 	ldr.w	r1, [r9, #4]
 800b104:	bfba      	itte	lt
 800b106:	461c      	movlt	r4, r3
 800b108:	2501      	movlt	r5, #1
 800b10a:	2500      	movge	r5, #0
 800b10c:	f7ff fcfe 	bl	800ab0c <_Balloc>
 800b110:	4602      	mov	r2, r0
 800b112:	b918      	cbnz	r0, 800b11c <__mdiff+0x60>
 800b114:	4b31      	ldr	r3, [pc, #196]	@ (800b1dc <__mdiff+0x120>)
 800b116:	f240 2145 	movw	r1, #581	@ 0x245
 800b11a:	e7e3      	b.n	800b0e4 <__mdiff+0x28>
 800b11c:	f8d9 7010 	ldr.w	r7, [r9, #16]
 800b120:	6926      	ldr	r6, [r4, #16]
 800b122:	60c5      	str	r5, [r0, #12]
 800b124:	f109 0310 	add.w	r3, r9, #16
 800b128:	f109 0514 	add.w	r5, r9, #20
 800b12c:	f104 0e14 	add.w	lr, r4, #20
 800b130:	f100 0b14 	add.w	fp, r0, #20
 800b134:	eb05 0887 	add.w	r8, r5, r7, lsl #2
 800b138:	eb0e 0686 	add.w	r6, lr, r6, lsl #2
 800b13c:	9301      	str	r3, [sp, #4]
 800b13e:	46d9      	mov	r9, fp
 800b140:	f04f 0c00 	mov.w	ip, #0
 800b144:	9b01      	ldr	r3, [sp, #4]
 800b146:	f85e 0b04 	ldr.w	r0, [lr], #4
 800b14a:	f853 af04 	ldr.w	sl, [r3, #4]!
 800b14e:	9301      	str	r3, [sp, #4]
 800b150:	fa1f f38a 	uxth.w	r3, sl
 800b154:	4619      	mov	r1, r3
 800b156:	b283      	uxth	r3, r0
 800b158:	1acb      	subs	r3, r1, r3
 800b15a:	0c00      	lsrs	r0, r0, #16
 800b15c:	4463      	add	r3, ip
 800b15e:	ebc0 401a 	rsb	r0, r0, sl, lsr #16
 800b162:	eb00 4023 	add.w	r0, r0, r3, asr #16
 800b166:	b29b      	uxth	r3, r3
 800b168:	ea43 4300 	orr.w	r3, r3, r0, lsl #16
 800b16c:	4576      	cmp	r6, lr
 800b16e:	f849 3b04 	str.w	r3, [r9], #4
 800b172:	ea4f 4c20 	mov.w	ip, r0, asr #16
 800b176:	d8e5      	bhi.n	800b144 <__mdiff+0x88>
 800b178:	1b33      	subs	r3, r6, r4
 800b17a:	3b15      	subs	r3, #21
 800b17c:	f023 0303 	bic.w	r3, r3, #3
 800b180:	3415      	adds	r4, #21
 800b182:	3304      	adds	r3, #4
 800b184:	42a6      	cmp	r6, r4
 800b186:	bf38      	it	cc
 800b188:	2304      	movcc	r3, #4
 800b18a:	441d      	add	r5, r3
 800b18c:	445b      	add	r3, fp
 800b18e:	461e      	mov	r6, r3
 800b190:	462c      	mov	r4, r5
 800b192:	4544      	cmp	r4, r8
 800b194:	d30e      	bcc.n	800b1b4 <__mdiff+0xf8>
 800b196:	f108 0103 	add.w	r1, r8, #3
 800b19a:	1b49      	subs	r1, r1, r5
 800b19c:	f021 0103 	bic.w	r1, r1, #3
 800b1a0:	3d03      	subs	r5, #3
 800b1a2:	45a8      	cmp	r8, r5
 800b1a4:	bf38      	it	cc
 800b1a6:	2100      	movcc	r1, #0
 800b1a8:	440b      	add	r3, r1
 800b1aa:	f853 1d04 	ldr.w	r1, [r3, #-4]!
 800b1ae:	b191      	cbz	r1, 800b1d6 <__mdiff+0x11a>
 800b1b0:	6117      	str	r7, [r2, #16]
 800b1b2:	e79d      	b.n	800b0f0 <__mdiff+0x34>
 800b1b4:	f854 1b04 	ldr.w	r1, [r4], #4
 800b1b8:	46e6      	mov	lr, ip
 800b1ba:	0c08      	lsrs	r0, r1, #16
 800b1bc:	fa1c fc81 	uxtah	ip, ip, r1
 800b1c0:	4471      	add	r1, lr
 800b1c2:	eb00 402c 	add.w	r0, r0, ip, asr #16
 800b1c6:	b289      	uxth	r1, r1
 800b1c8:	ea41 4100 	orr.w	r1, r1, r0, lsl #16
 800b1cc:	f846 1b04 	str.w	r1, [r6], #4
 800b1d0:	ea4f 4c20 	mov.w	ip, r0, asr #16
 800b1d4:	e7dd      	b.n	800b192 <__mdiff+0xd6>
 800b1d6:	3f01      	subs	r7, #1
 800b1d8:	e7e7      	b.n	800b1aa <__mdiff+0xee>
 800b1da:	bf00      	nop
 800b1dc:	0800bafa 	.word	0x0800bafa
 800b1e0:	0800bb7c 	.word	0x0800bb7c

0800b1e4 <__ulp>:
 800b1e4:	b082      	sub	sp, #8
 800b1e6:	ed8d 0b00 	vstr	d0, [sp]
 800b1ea:	9a01      	ldr	r2, [sp, #4]
 800b1ec:	4b0f      	ldr	r3, [pc, #60]	@ (800b22c <__ulp+0x48>)
 800b1ee:	4013      	ands	r3, r2
 800b1f0:	f1a3 7350 	sub.w	r3, r3, #54525952	@ 0x3400000
 800b1f4:	2b00      	cmp	r3, #0
 800b1f6:	dc08      	bgt.n	800b20a <__ulp+0x26>
 800b1f8:	425b      	negs	r3, r3
 800b1fa:	f1b3 7fa0 	cmp.w	r3, #20971520	@ 0x1400000
 800b1fe:	ea4f 5223 	mov.w	r2, r3, asr #20
 800b202:	da04      	bge.n	800b20e <__ulp+0x2a>
 800b204:	f44f 2300 	mov.w	r3, #524288	@ 0x80000
 800b208:	4113      	asrs	r3, r2
 800b20a:	2200      	movs	r2, #0
 800b20c:	e008      	b.n	800b220 <__ulp+0x3c>
 800b20e:	f1a2 0314 	sub.w	r3, r2, #20
 800b212:	2b1e      	cmp	r3, #30
 800b214:	bfda      	itte	le
 800b216:	f04f 4200 	movle.w	r2, #2147483648	@ 0x80000000
 800b21a:	40da      	lsrle	r2, r3
 800b21c:	2201      	movgt	r2, #1
 800b21e:	2300      	movs	r3, #0
 800b220:	4619      	mov	r1, r3
 800b222:	4610      	mov	r0, r2
 800b224:	ec41 0b10 	vmov	d0, r0, r1
 800b228:	b002      	add	sp, #8
 800b22a:	4770      	bx	lr
 800b22c:	7ff00000 	.word	0x7ff00000

0800b230 <__b2d>:
 800b230:	e92d 41f0 	stmdb	sp!, {r4, r5, r6, r7, r8, lr}
 800b234:	6906      	ldr	r6, [r0, #16]
 800b236:	f100 0814 	add.w	r8, r0, #20
 800b23a:	eb08 0686 	add.w	r6, r8, r6, lsl #2
 800b23e:	1f37      	subs	r7, r6, #4
 800b240:	f856 2c04 	ldr.w	r2, [r6, #-4]
 800b244:	4610      	mov	r0, r2
 800b246:	f7ff fd53 	bl	800acf0 <__hi0bits>
 800b24a:	f1c0 0320 	rsb	r3, r0, #32
 800b24e:	280a      	cmp	r0, #10
 800b250:	600b      	str	r3, [r1, #0]
 800b252:	491b      	ldr	r1, [pc, #108]	@ (800b2c0 <__b2d+0x90>)
 800b254:	dc15      	bgt.n	800b282 <__b2d+0x52>
 800b256:	f1c0 0c0b 	rsb	ip, r0, #11
 800b25a:	fa22 f30c 	lsr.w	r3, r2, ip
 800b25e:	45b8      	cmp	r8, r7
 800b260:	ea43 0501 	orr.w	r5, r3, r1
 800b264:	bf34      	ite	cc
 800b266:	f856 3c08 	ldrcc.w	r3, [r6, #-8]
 800b26a:	2300      	movcs	r3, #0
 800b26c:	3015      	adds	r0, #21
 800b26e:	fa02 f000 	lsl.w	r0, r2, r0
 800b272:	fa23 f30c 	lsr.w	r3, r3, ip
 800b276:	4303      	orrs	r3, r0
 800b278:	461c      	mov	r4, r3
 800b27a:	ec45 4b10 	vmov	d0, r4, r5
 800b27e:	e8bd 81f0 	ldmia.w	sp!, {r4, r5, r6, r7, r8, pc}
 800b282:	45b8      	cmp	r8, r7
 800b284:	bf3a      	itte	cc
 800b286:	f856 3c08 	ldrcc.w	r3, [r6, #-8]
 800b28a:	f1a6 0708 	subcc.w	r7, r6, #8
 800b28e:	2300      	movcs	r3, #0
 800b290:	380b      	subs	r0, #11
 800b292:	d012      	beq.n	800b2ba <__b2d+0x8a>
 800b294:	f1c0 0120 	rsb	r1, r0, #32
 800b298:	fa23 f401 	lsr.w	r4, r3, r1
 800b29c:	4082      	lsls	r2, r0
 800b29e:	4322      	orrs	r2, r4
 800b2a0:	4547      	cmp	r7, r8
 800b2a2:	f042 557f 	orr.w	r5, r2, #1069547520	@ 0x3fc00000
 800b2a6:	bf8c      	ite	hi
 800b2a8:	f857 2c04 	ldrhi.w	r2, [r7, #-4]
 800b2ac:	2200      	movls	r2, #0
 800b2ae:	4083      	lsls	r3, r0
 800b2b0:	40ca      	lsrs	r2, r1
 800b2b2:	f445 1540 	orr.w	r5, r5, #3145728	@ 0x300000
 800b2b6:	4313      	orrs	r3, r2
 800b2b8:	e7de      	b.n	800b278 <__b2d+0x48>
 800b2ba:	ea42 0501 	orr.w	r5, r2, r1
 800b2be:	e7db      	b.n	800b278 <__b2d+0x48>
 800b2c0:	3ff00000 	.word	0x3ff00000

0800b2c4 <__d2b>:
 800b2c4:	e92d 43f7 	stmdb	sp!, {r0, r1, r2, r4, r5, r6, r7, r8, r9, lr}
 800b2c8:	460f      	mov	r7, r1
 800b2ca:	2101      	movs	r1, #1
 800b2cc:	ec59 8b10 	vmov	r8, r9, d0
 800b2d0:	4616      	mov	r6, r2
 800b2d2:	f7ff fc1b 	bl	800ab0c <_Balloc>
 800b2d6:	4604      	mov	r4, r0
 800b2d8:	b930      	cbnz	r0, 800b2e8 <__d2b+0x24>
 800b2da:	4602      	mov	r2, r0
 800b2dc:	4b23      	ldr	r3, [pc, #140]	@ (800b36c <__d2b+0xa8>)
 800b2de:	4824      	ldr	r0, [pc, #144]	@ (800b370 <__d2b+0xac>)
 800b2e0:	f240 310f 	movw	r1, #783	@ 0x30f
 800b2e4:	f000 fa7c 	bl	800b7e0 <__assert_func>
 800b2e8:	f3c9 550a 	ubfx	r5, r9, #20, #11
 800b2ec:	f3c9 0313 	ubfx	r3, r9, #0, #20
 800b2f0:	b10d      	cbz	r5, 800b2f6 <__d2b+0x32>
 800b2f2:	f443 1380 	orr.w	r3, r3, #1048576	@ 0x100000
 800b2f6:	9301      	str	r3, [sp, #4]
 800b2f8:	f1b8 0300 	subs.w	r3, r8, #0
 800b2fc:	d023      	beq.n	800b346 <__d2b+0x82>
 800b2fe:	4668      	mov	r0, sp
 800b300:	9300      	str	r3, [sp, #0]
 800b302:	f7ff fd14 	bl	800ad2e <__lo0bits>
 800b306:	e9dd 1200 	ldrd	r1, r2, [sp]
 800b30a:	b1d0      	cbz	r0, 800b342 <__d2b+0x7e>
 800b30c:	f1c0 0320 	rsb	r3, r0, #32
 800b310:	fa02 f303 	lsl.w	r3, r2, r3
 800b314:	430b      	orrs	r3, r1
 800b316:	40c2      	lsrs	r2, r0
 800b318:	6163      	str	r3, [r4, #20]
 800b31a:	9201      	str	r2, [sp, #4]
 800b31c:	9b01      	ldr	r3, [sp, #4]
 800b31e:	61a3      	str	r3, [r4, #24]
 800b320:	2b00      	cmp	r3, #0
 800b322:	bf0c      	ite	eq
 800b324:	2201      	moveq	r2, #1
 800b326:	2202      	movne	r2, #2
 800b328:	6122      	str	r2, [r4, #16]
 800b32a:	b1a5      	cbz	r5, 800b356 <__d2b+0x92>
 800b32c:	f2a5 4533 	subw	r5, r5, #1075	@ 0x433
 800b330:	4405      	add	r5, r0
 800b332:	603d      	str	r5, [r7, #0]
 800b334:	f1c0 0035 	rsb	r0, r0, #53	@ 0x35
 800b338:	6030      	str	r0, [r6, #0]
 800b33a:	4620      	mov	r0, r4
 800b33c:	b003      	add	sp, #12
 800b33e:	e8bd 83f0 	ldmia.w	sp!, {r4, r5, r6, r7, r8, r9, pc}
 800b342:	6161      	str	r1, [r4, #20]
 800b344:	e7ea      	b.n	800b31c <__d2b+0x58>
 800b346:	a801      	add	r0, sp, #4
 800b348:	f7ff fcf1 	bl	800ad2e <__lo0bits>
 800b34c:	9b01      	ldr	r3, [sp, #4]
 800b34e:	6163      	str	r3, [r4, #20]
 800b350:	3020      	adds	r0, #32
 800b352:	2201      	movs	r2, #1
 800b354:	e7e8      	b.n	800b328 <__d2b+0x64>
 800b356:	eb04 0382 	add.w	r3, r4, r2, lsl #2
 800b35a:	f2a0 4032 	subw	r0, r0, #1074	@ 0x432
 800b35e:	6038      	str	r0, [r7, #0]
 800b360:	6918      	ldr	r0, [r3, #16]
 800b362:	f7ff fcc5 	bl	800acf0 <__hi0bits>
 800b366:	ebc0 1042 	rsb	r0, r0, r2, lsl #5
 800b36a:	e7e5      	b.n	800b338 <__d2b+0x74>
 800b36c:	0800bafa 	.word	0x0800bafa
 800b370:	0800bb7c 	.word	0x0800bb7c

0800b374 <__ratio>:
 800b374:	e92d 4ff0 	stmdb	sp!, {r4, r5, r6, r7, r8, r9, sl, fp, lr}
 800b378:	b085      	sub	sp, #20
 800b37a:	e9cd 1000 	strd	r1, r0, [sp]
 800b37e:	a902      	add	r1, sp, #8
 800b380:	f7ff ff56 	bl	800b230 <__b2d>
 800b384:	9800      	ldr	r0, [sp, #0]
 800b386:	a903      	add	r1, sp, #12
 800b388:	ec55 4b10 	vmov	r4, r5, d0
 800b38c:	f7ff ff50 	bl	800b230 <__b2d>
 800b390:	9b01      	ldr	r3, [sp, #4]
 800b392:	6919      	ldr	r1, [r3, #16]
 800b394:	9b00      	ldr	r3, [sp, #0]
 800b396:	691b      	ldr	r3, [r3, #16]
 800b398:	1ac9      	subs	r1, r1, r3
 800b39a:	e9dd 3202 	ldrd	r3, r2, [sp, #8]
 800b39e:	1a9b      	subs	r3, r3, r2
 800b3a0:	ec5b ab10 	vmov	sl, fp, d0
 800b3a4:	eb03 1341 	add.w	r3, r3, r1, lsl #5
 800b3a8:	2b00      	cmp	r3, #0
 800b3aa:	bfce      	itee	gt
 800b3ac:	462a      	movgt	r2, r5
 800b3ae:	ebc3 3303 	rsble	r3, r3, r3, lsl #12
 800b3b2:	465a      	movle	r2, fp
 800b3b4:	462f      	mov	r7, r5
 800b3b6:	46d9      	mov	r9, fp
 800b3b8:	bfcc      	ite	gt
 800b3ba:	eb02 5703 	addgt.w	r7, r2, r3, lsl #20
 800b3be:	eb02 5903 	addle.w	r9, r2, r3, lsl #20
 800b3c2:	464b      	mov	r3, r9
 800b3c4:	4652      	mov	r2, sl
 800b3c6:	4620      	mov	r0, r4
 800b3c8:	4639      	mov	r1, r7
 800b3ca:	f7f5 fa5f 	bl	800088c <__aeabi_ddiv>
 800b3ce:	ec41 0b10 	vmov	d0, r0, r1
 800b3d2:	b005      	add	sp, #20
 800b3d4:	e8bd 8ff0 	ldmia.w	sp!, {r4, r5, r6, r7, r8, r9, sl, fp, pc}

0800b3d8 <__copybits>:
 800b3d8:	3901      	subs	r1, #1
 800b3da:	b570      	push	{r4, r5, r6, lr}
 800b3dc:	1149      	asrs	r1, r1, #5
 800b3de:	6914      	ldr	r4, [r2, #16]
 800b3e0:	3101      	adds	r1, #1
 800b3e2:	f102 0314 	add.w	r3, r2, #20
 800b3e6:	eb00 0181 	add.w	r1, r0, r1, lsl #2
 800b3ea:	eb03 0484 	add.w	r4, r3, r4, lsl #2
 800b3ee:	1f05      	subs	r5, r0, #4
 800b3f0:	42a3      	cmp	r3, r4
 800b3f2:	d30c      	bcc.n	800b40e <__copybits+0x36>
 800b3f4:	1aa3      	subs	r3, r4, r2
 800b3f6:	3b11      	subs	r3, #17
 800b3f8:	f023 0303 	bic.w	r3, r3, #3
 800b3fc:	3211      	adds	r2, #17
 800b3fe:	42a2      	cmp	r2, r4
 800b400:	bf88      	it	hi
 800b402:	2300      	movhi	r3, #0
 800b404:	4418      	add	r0, r3
 800b406:	2300      	movs	r3, #0
 800b408:	4288      	cmp	r0, r1
 800b40a:	d305      	bcc.n	800b418 <__copybits+0x40>
 800b40c:	bd70      	pop	{r4, r5, r6, pc}
 800b40e:	f853 6b04 	ldr.w	r6, [r3], #4
 800b412:	f845 6f04 	str.w	r6, [r5, #4]!
 800b416:	e7eb      	b.n	800b3f0 <__copybits+0x18>
 800b418:	f840 3b04 	str.w	r3, [r0], #4
 800b41c:	e7f4      	b.n	800b408 <__copybits+0x30>

0800b41e <__any_on>:
 800b41e:	f100 0214 	add.w	r2, r0, #20
 800b422:	6900      	ldr	r0, [r0, #16]
 800b424:	114b      	asrs	r3, r1, #5
 800b426:	4298      	cmp	r0, r3
 800b428:	b510      	push	{r4, lr}
 800b42a:	db11      	blt.n	800b450 <__any_on+0x32>
 800b42c:	dd0a      	ble.n	800b444 <__any_on+0x26>
 800b42e:	f011 011f 	ands.w	r1, r1, #31
 800b432:	d007      	beq.n	800b444 <__any_on+0x26>
 800b434:	f852 4023 	ldr.w	r4, [r2, r3, lsl #2]
 800b438:	fa24 f001 	lsr.w	r0, r4, r1
 800b43c:	fa00 f101 	lsl.w	r1, r0, r1
 800b440:	428c      	cmp	r4, r1
 800b442:	d10b      	bne.n	800b45c <__any_on+0x3e>
 800b444:	eb02 0383 	add.w	r3, r2, r3, lsl #2
 800b448:	4293      	cmp	r3, r2
 800b44a:	d803      	bhi.n	800b454 <__any_on+0x36>
 800b44c:	2000      	movs	r0, #0
 800b44e:	bd10      	pop	{r4, pc}
 800b450:	4603      	mov	r3, r0
 800b452:	e7f7      	b.n	800b444 <__any_on+0x26>
 800b454:	f853 1d04 	ldr.w	r1, [r3, #-4]!
 800b458:	2900      	cmp	r1, #0
 800b45a:	d0f5      	beq.n	800b448 <__any_on+0x2a>
 800b45c:	2001      	movs	r0, #1
 800b45e:	e7f6      	b.n	800b44e <__any_on+0x30>

0800b460 <__sread>:
 800b460:	b510      	push	{r4, lr}
 800b462:	460c      	mov	r4, r1
 800b464:	f9b1 100e 	ldrsh.w	r1, [r1, #14]
 800b468:	f000 f964 	bl	800b734 <_read_r>
 800b46c:	2800      	cmp	r0, #0
 800b46e:	bfab      	itete	ge
 800b470:	6d63      	ldrge	r3, [r4, #84]	@ 0x54
 800b472:	89a3      	ldrhlt	r3, [r4, #12]
 800b474:	181b      	addge	r3, r3, r0
 800b476:	f423 5380 	biclt.w	r3, r3, #4096	@ 0x1000
 800b47a:	bfac      	ite	ge
 800b47c:	6563      	strge	r3, [r4, #84]	@ 0x54
 800b47e:	81a3      	strhlt	r3, [r4, #12]
 800b480:	bd10      	pop	{r4, pc}

0800b482 <__swrite>:
 800b482:	e92d 41f0 	stmdb	sp!, {r4, r5, r6, r7, r8, lr}
 800b486:	461f      	mov	r7, r3
 800b488:	898b      	ldrh	r3, [r1, #12]
 800b48a:	05db      	lsls	r3, r3, #23
 800b48c:	4605      	mov	r5, r0
 800b48e:	460c      	mov	r4, r1
 800b490:	4616      	mov	r6, r2
 800b492:	d505      	bpl.n	800b4a0 <__swrite+0x1e>
 800b494:	f9b1 100e 	ldrsh.w	r1, [r1, #14]
 800b498:	2302      	movs	r3, #2
 800b49a:	2200      	movs	r2, #0
 800b49c:	f000 f938 	bl	800b710 <_lseek_r>
 800b4a0:	89a3      	ldrh	r3, [r4, #12]
 800b4a2:	f9b4 100e 	ldrsh.w	r1, [r4, #14]
 800b4a6:	f423 5380 	bic.w	r3, r3, #4096	@ 0x1000
 800b4aa:	81a3      	strh	r3, [r4, #12]
 800b4ac:	4632      	mov	r2, r6
 800b4ae:	463b      	mov	r3, r7
 800b4b0:	4628      	mov	r0, r5
 800b4b2:	e8bd 41f0 	ldmia.w	sp!, {r4, r5, r6, r7, r8, lr}
 800b4b6:	f000 b95f 	b.w	800b778 <_write_r>

0800b4ba <__sseek>:
 800b4ba:	b510      	push	{r4, lr}
 800b4bc:	460c      	mov	r4, r1
 800b4be:	f9b1 100e 	ldrsh.w	r1, [r1, #14]
 800b4c2:	f000 f925 	bl	800b710 <_lseek_r>
 800b4c6:	1c43      	adds	r3, r0, #1
 800b4c8:	89a3      	ldrh	r3, [r4, #12]
 800b4ca:	bf15      	itete	ne
 800b4cc:	6560      	strne	r0, [r4, #84]	@ 0x54
 800b4ce:	f423 5380 	biceq.w	r3, r3, #4096	@ 0x1000
 800b4d2:	f443 5380 	orrne.w	r3, r3, #4096	@ 0x1000
 800b4d6:	81a3      	strheq	r3, [r4, #12]
 800b4d8:	bf18      	it	ne
 800b4da:	81a3      	strhne	r3, [r4, #12]
 800b4dc:	bd10      	pop	{r4, pc}

0800b4de <__sclose>:
 800b4de:	f9b1 100e 	ldrsh.w	r1, [r1, #14]
 800b4e2:	f000 b95b 	b.w	800b79c <_close_r>

0800b4e6 <__swbuf_r>:
 800b4e6:	b5f8      	push	{r3, r4, r5, r6, r7, lr}
 800b4e8:	460e      	mov	r6, r1
 800b4ea:	4614      	mov	r4, r2
 800b4ec:	4605      	mov	r5, r0
 800b4ee:	b118      	cbz	r0, 800b4f8 <__swbuf_r+0x12>
 800b4f0:	6a03      	ldr	r3, [r0, #32]
 800b4f2:	b90b      	cbnz	r3, 800b4f8 <__swbuf_r+0x12>
 800b4f4:	f7fc ffac 	bl	8008450 <__sinit>
 800b4f8:	69a3      	ldr	r3, [r4, #24]
 800b4fa:	60a3      	str	r3, [r4, #8]
 800b4fc:	89a3      	ldrh	r3, [r4, #12]
 800b4fe:	071a      	lsls	r2, r3, #28
 800b500:	d501      	bpl.n	800b506 <__swbuf_r+0x20>
 800b502:	6923      	ldr	r3, [r4, #16]
 800b504:	b943      	cbnz	r3, 800b518 <__swbuf_r+0x32>
 800b506:	4621      	mov	r1, r4
 800b508:	4628      	mov	r0, r5
 800b50a:	f000 f82b 	bl	800b564 <__swsetup_r>
 800b50e:	b118      	cbz	r0, 800b518 <__swbuf_r+0x32>
 800b510:	f04f 37ff 	mov.w	r7, #4294967295	@ 0xffffffff
 800b514:	4638      	mov	r0, r7
 800b516:	bdf8      	pop	{r3, r4, r5, r6, r7, pc}
 800b518:	6823      	ldr	r3, [r4, #0]
 800b51a:	6922      	ldr	r2, [r4, #16]
 800b51c:	1a98      	subs	r0, r3, r2
 800b51e:	6963      	ldr	r3, [r4, #20]
 800b520:	b2f6      	uxtb	r6, r6
 800b522:	4283      	cmp	r3, r0
 800b524:	4637      	mov	r7, r6
 800b526:	dc05      	bgt.n	800b534 <__swbuf_r+0x4e>
 800b528:	4621      	mov	r1, r4
 800b52a:	4628      	mov	r0, r5
 800b52c:	f7ff faba 	bl	800aaa4 <_fflush_r>
 800b530:	2800      	cmp	r0, #0
 800b532:	d1ed      	bne.n	800b510 <__swbuf_r+0x2a>
 800b534:	68a3      	ldr	r3, [r4, #8]
 800b536:	3b01      	subs	r3, #1
 800b538:	60a3      	str	r3, [r4, #8]
 800b53a:	6823      	ldr	r3, [r4, #0]
 800b53c:	1c5a      	adds	r2, r3, #1
 800b53e:	6022      	str	r2, [r4, #0]
 800b540:	701e      	strb	r6, [r3, #0]
 800b542:	6962      	ldr	r2, [r4, #20]
 800b544:	1c43      	adds	r3, r0, #1
 800b546:	429a      	cmp	r2, r3
 800b548:	d004      	beq.n	800b554 <__swbuf_r+0x6e>
 800b54a:	89a3      	ldrh	r3, [r4, #12]
 800b54c:	07db      	lsls	r3, r3, #31
 800b54e:	d5e1      	bpl.n	800b514 <__swbuf_r+0x2e>
 800b550:	2e0a      	cmp	r6, #10
 800b552:	d1df      	bne.n	800b514 <__swbuf_r+0x2e>
 800b554:	4621      	mov	r1, r4
 800b556:	4628      	mov	r0, r5
 800b558:	f7ff faa4 	bl	800aaa4 <_fflush_r>
 800b55c:	2800      	cmp	r0, #0
 800b55e:	d0d9      	beq.n	800b514 <__swbuf_r+0x2e>
 800b560:	e7d6      	b.n	800b510 <__swbuf_r+0x2a>
	...

0800b564 <__swsetup_r>:
 800b564:	b538      	push	{r3, r4, r5, lr}
 800b566:	4b29      	ldr	r3, [pc, #164]	@ (800b60c <__swsetup_r+0xa8>)
 800b568:	4605      	mov	r5, r0
 800b56a:	6818      	ldr	r0, [r3, #0]
 800b56c:	460c      	mov	r4, r1
 800b56e:	b118      	cbz	r0, 800b578 <__swsetup_r+0x14>
 800b570:	6a03      	ldr	r3, [r0, #32]
 800b572:	b90b      	cbnz	r3, 800b578 <__swsetup_r+0x14>
 800b574:	f7fc ff6c 	bl	8008450 <__sinit>
 800b578:	f9b4 300c 	ldrsh.w	r3, [r4, #12]
 800b57c:	0719      	lsls	r1, r3, #28
 800b57e:	d422      	bmi.n	800b5c6 <__swsetup_r+0x62>
 800b580:	06da      	lsls	r2, r3, #27
 800b582:	d407      	bmi.n	800b594 <__swsetup_r+0x30>
 800b584:	2209      	movs	r2, #9
 800b586:	602a      	str	r2, [r5, #0]
 800b588:	f043 0340 	orr.w	r3, r3, #64	@ 0x40
 800b58c:	81a3      	strh	r3, [r4, #12]
 800b58e:	f04f 30ff 	mov.w	r0, #4294967295	@ 0xffffffff
 800b592:	e033      	b.n	800b5fc <__swsetup_r+0x98>
 800b594:	0758      	lsls	r0, r3, #29
 800b596:	d512      	bpl.n	800b5be <__swsetup_r+0x5a>
 800b598:	6b61      	ldr	r1, [r4, #52]	@ 0x34
 800b59a:	b141      	cbz	r1, 800b5ae <__swsetup_r+0x4a>
 800b59c:	f104 0344 	add.w	r3, r4, #68	@ 0x44
 800b5a0:	4299      	cmp	r1, r3
 800b5a2:	d002      	beq.n	800b5aa <__swsetup_r+0x46>
 800b5a4:	4628      	mov	r0, r5
 800b5a6:	f000 f94d 	bl	800b844 <_free_r>
 800b5aa:	2300      	movs	r3, #0
 800b5ac:	6363      	str	r3, [r4, #52]	@ 0x34
 800b5ae:	89a3      	ldrh	r3, [r4, #12]
 800b5b0:	f023 0324 	bic.w	r3, r3, #36	@ 0x24
 800b5b4:	81a3      	strh	r3, [r4, #12]
 800b5b6:	2300      	movs	r3, #0
 800b5b8:	6063      	str	r3, [r4, #4]
 800b5ba:	6923      	ldr	r3, [r4, #16]
 800b5bc:	6023      	str	r3, [r4, #0]
 800b5be:	89a3      	ldrh	r3, [r4, #12]
 800b5c0:	f043 0308 	orr.w	r3, r3, #8
 800b5c4:	81a3      	strh	r3, [r4, #12]
 800b5c6:	6923      	ldr	r3, [r4, #16]
 800b5c8:	b94b      	cbnz	r3, 800b5de <__swsetup_r+0x7a>
 800b5ca:	89a3      	ldrh	r3, [r4, #12]
 800b5cc:	f403 7320 	and.w	r3, r3, #640	@ 0x280
 800b5d0:	f5b3 7f00 	cmp.w	r3, #512	@ 0x200
 800b5d4:	d003      	beq.n	800b5de <__swsetup_r+0x7a>
 800b5d6:	4621      	mov	r1, r4
 800b5d8:	4628      	mov	r0, r5
 800b5da:	f000 f84c 	bl	800b676 <__smakebuf_r>
 800b5de:	f9b4 300c 	ldrsh.w	r3, [r4, #12]
 800b5e2:	f013 0201 	ands.w	r2, r3, #1
 800b5e6:	d00a      	beq.n	800b5fe <__swsetup_r+0x9a>
 800b5e8:	2200      	movs	r2, #0
 800b5ea:	60a2      	str	r2, [r4, #8]
 800b5ec:	6962      	ldr	r2, [r4, #20]
 800b5ee:	4252      	negs	r2, r2
 800b5f0:	61a2      	str	r2, [r4, #24]
 800b5f2:	6922      	ldr	r2, [r4, #16]
 800b5f4:	b942      	cbnz	r2, 800b608 <__swsetup_r+0xa4>
 800b5f6:	f013 0080 	ands.w	r0, r3, #128	@ 0x80
 800b5fa:	d1c5      	bne.n	800b588 <__swsetup_r+0x24>
 800b5fc:	bd38      	pop	{r3, r4, r5, pc}
 800b5fe:	0799      	lsls	r1, r3, #30
 800b600:	bf58      	it	pl
 800b602:	6962      	ldrpl	r2, [r4, #20]
 800b604:	60a2      	str	r2, [r4, #8]
 800b606:	e7f4      	b.n	800b5f2 <__swsetup_r+0x8e>
 800b608:	2000      	movs	r0, #0
 800b60a:	e7f7      	b.n	800b5fc <__swsetup_r+0x98>
 800b60c:	20000188 	.word	0x20000188

0800b610 <__ascii_wctomb>:
 800b610:	4603      	mov	r3, r0
 800b612:	4608      	mov	r0, r1
 800b614:	b141      	cbz	r1, 800b628 <__ascii_wctomb+0x18>
 800b616:	2aff      	cmp	r2, #255	@ 0xff
 800b618:	d904      	bls.n	800b624 <__ascii_wctomb+0x14>
 800b61a:	228a      	movs	r2, #138	@ 0x8a
 800b61c:	601a      	str	r2, [r3, #0]
 800b61e:	f04f 30ff 	mov.w	r0, #4294967295	@ 0xffffffff
 800b622:	4770      	bx	lr
 800b624:	700a      	strb	r2, [r1, #0]
 800b626:	2001      	movs	r0, #1
 800b628:	4770      	bx	lr

0800b62a <__swhatbuf_r>:
 800b62a:	b570      	push	{r4, r5, r6, lr}
 800b62c:	460c      	mov	r4, r1
 800b62e:	f9b1 100e 	ldrsh.w	r1, [r1, #14]
 800b632:	2900      	cmp	r1, #0
 800b634:	b096      	sub	sp, #88	@ 0x58
 800b636:	4615      	mov	r5, r2
 800b638:	461e      	mov	r6, r3
 800b63a:	da0d      	bge.n	800b658 <__swhatbuf_r+0x2e>
 800b63c:	89a3      	ldrh	r3, [r4, #12]
 800b63e:	f013 0f80 	tst.w	r3, #128	@ 0x80
 800b642:	f04f 0100 	mov.w	r1, #0
 800b646:	bf14      	ite	ne
 800b648:	2340      	movne	r3, #64	@ 0x40
 800b64a:	f44f 6380 	moveq.w	r3, #1024	@ 0x400
 800b64e:	2000      	movs	r0, #0
 800b650:	6031      	str	r1, [r6, #0]
 800b652:	602b      	str	r3, [r5, #0]
 800b654:	b016      	add	sp, #88	@ 0x58
 800b656:	bd70      	pop	{r4, r5, r6, pc}
 800b658:	466a      	mov	r2, sp
 800b65a:	f000 f8af 	bl	800b7bc <_fstat_r>
 800b65e:	2800      	cmp	r0, #0
 800b660:	dbec      	blt.n	800b63c <__swhatbuf_r+0x12>
 800b662:	9901      	ldr	r1, [sp, #4]
 800b664:	f401 4170 	and.w	r1, r1, #61440	@ 0xf000
 800b668:	f5a1 5300 	sub.w	r3, r1, #8192	@ 0x2000
 800b66c:	4259      	negs	r1, r3
 800b66e:	4159      	adcs	r1, r3
 800b670:	f44f 6380 	mov.w	r3, #1024	@ 0x400
 800b674:	e7eb      	b.n	800b64e <__swhatbuf_r+0x24>

0800b676 <__smakebuf_r>:
 800b676:	898b      	ldrh	r3, [r1, #12]
 800b678:	b5f7      	push	{r0, r1, r2, r4, r5, r6, r7, lr}
 800b67a:	079d      	lsls	r5, r3, #30
 800b67c:	4606      	mov	r6, r0
 800b67e:	460c      	mov	r4, r1
 800b680:	d507      	bpl.n	800b692 <__smakebuf_r+0x1c>
 800b682:	f104 0347 	add.w	r3, r4, #71	@ 0x47
 800b686:	6023      	str	r3, [r4, #0]
 800b688:	6123      	str	r3, [r4, #16]
 800b68a:	2301      	movs	r3, #1
 800b68c:	6163      	str	r3, [r4, #20]
 800b68e:	b003      	add	sp, #12
 800b690:	bdf0      	pop	{r4, r5, r6, r7, pc}
 800b692:	ab01      	add	r3, sp, #4
 800b694:	466a      	mov	r2, sp
 800b696:	f7ff ffc8 	bl	800b62a <__swhatbuf_r>
 800b69a:	9f00      	ldr	r7, [sp, #0]
 800b69c:	4605      	mov	r5, r0
 800b69e:	4639      	mov	r1, r7
 800b6a0:	4630      	mov	r0, r6
 800b6a2:	f7ff f8e9 	bl	800a878 <_malloc_r>
 800b6a6:	b948      	cbnz	r0, 800b6bc <__smakebuf_r+0x46>
 800b6a8:	f9b4 300c 	ldrsh.w	r3, [r4, #12]
 800b6ac:	059a      	lsls	r2, r3, #22
 800b6ae:	d4ee      	bmi.n	800b68e <__smakebuf_r+0x18>
 800b6b0:	f023 0303 	bic.w	r3, r3, #3
 800b6b4:	f043 0302 	orr.w	r3, r3, #2
 800b6b8:	81a3      	strh	r3, [r4, #12]
 800b6ba:	e7e2      	b.n	800b682 <__smakebuf_r+0xc>
 800b6bc:	89a3      	ldrh	r3, [r4, #12]
 800b6be:	6020      	str	r0, [r4, #0]
 800b6c0:	f043 0380 	orr.w	r3, r3, #128	@ 0x80
 800b6c4:	81a3      	strh	r3, [r4, #12]
 800b6c6:	9b01      	ldr	r3, [sp, #4]
 800b6c8:	e9c4 0704 	strd	r0, r7, [r4, #16]
 800b6cc:	b15b      	cbz	r3, 800b6e6 <__smakebuf_r+0x70>
 800b6ce:	f9b4 100e 	ldrsh.w	r1, [r4, #14]
 800b6d2:	4630      	mov	r0, r6
 800b6d4:	f000 f80c 	bl	800b6f0 <_isatty_r>
 800b6d8:	b128      	cbz	r0, 800b6e6 <__smakebuf_r+0x70>
 800b6da:	89a3      	ldrh	r3, [r4, #12]
 800b6dc:	f023 0303 	bic.w	r3, r3, #3
 800b6e0:	f043 0301 	orr.w	r3, r3, #1
 800b6e4:	81a3      	strh	r3, [r4, #12]
 800b6e6:	89a3      	ldrh	r3, [r4, #12]
 800b6e8:	431d      	orrs	r5, r3
 800b6ea:	81a5      	strh	r5, [r4, #12]
 800b6ec:	e7cf      	b.n	800b68e <__smakebuf_r+0x18>
	...

0800b6f0 <_isatty_r>:
 800b6f0:	b538      	push	{r3, r4, r5, lr}
 800b6f2:	4d06      	ldr	r5, [pc, #24]	@ (800b70c <_isatty_r+0x1c>)
 800b6f4:	2300      	movs	r3, #0
 800b6f6:	4604      	mov	r4, r0
 800b6f8:	4608      	mov	r0, r1
 800b6fa:	602b      	str	r3, [r5, #0]
 800b6fc:	f7f5 ffec 	bl	80016d8 <_isatty>
 800b700:	1c43      	adds	r3, r0, #1
 800b702:	d102      	bne.n	800b70a <_isatty_r+0x1a>
 800b704:	682b      	ldr	r3, [r5, #0]
 800b706:	b103      	cbz	r3, 800b70a <_isatty_r+0x1a>
 800b708:	6023      	str	r3, [r4, #0]
 800b70a:	bd38      	pop	{r3, r4, r5, pc}
 800b70c:	20005340 	.word	0x20005340

0800b710 <_lseek_r>:
 800b710:	b538      	push	{r3, r4, r5, lr}
 800b712:	4d07      	ldr	r5, [pc, #28]	@ (800b730 <_lseek_r+0x20>)
 800b714:	4604      	mov	r4, r0
 800b716:	4608      	mov	r0, r1
 800b718:	4611      	mov	r1, r2
 800b71a:	2200      	movs	r2, #0
 800b71c:	602a      	str	r2, [r5, #0]
 800b71e:	461a      	mov	r2, r3
 800b720:	f7f5 ffe5 	bl	80016ee <_lseek>
 800b724:	1c43      	adds	r3, r0, #1
 800b726:	d102      	bne.n	800b72e <_lseek_r+0x1e>
 800b728:	682b      	ldr	r3, [r5, #0]
 800b72a:	b103      	cbz	r3, 800b72e <_lseek_r+0x1e>
 800b72c:	6023      	str	r3, [r4, #0]
 800b72e:	bd38      	pop	{r3, r4, r5, pc}
 800b730:	20005340 	.word	0x20005340

0800b734 <_read_r>:
 800b734:	b538      	push	{r3, r4, r5, lr}
 800b736:	4d07      	ldr	r5, [pc, #28]	@ (800b754 <_read_r+0x20>)
 800b738:	4604      	mov	r4, r0
 800b73a:	4608      	mov	r0, r1
 800b73c:	4611      	mov	r1, r2
 800b73e:	2200      	movs	r2, #0
 800b740:	602a      	str	r2, [r5, #0]
 800b742:	461a      	mov	r2, r3
 800b744:	f7f5 ff73 	bl	800162e <_read>
 800b748:	1c43      	adds	r3, r0, #1
 800b74a:	d102      	bne.n	800b752 <_read_r+0x1e>
 800b74c:	682b      	ldr	r3, [r5, #0]
 800b74e:	b103      	cbz	r3, 800b752 <_read_r+0x1e>
 800b750:	6023      	str	r3, [r4, #0]
 800b752:	bd38      	pop	{r3, r4, r5, pc}
 800b754:	20005340 	.word	0x20005340

0800b758 <_sbrk_r>:
 800b758:	b538      	push	{r3, r4, r5, lr}
 800b75a:	4d06      	ldr	r5, [pc, #24]	@ (800b774 <_sbrk_r+0x1c>)
 800b75c:	2300      	movs	r3, #0
 800b75e:	4604      	mov	r4, r0
 800b760:	4608      	mov	r0, r1
 800b762:	602b      	str	r3, [r5, #0]
 800b764:	f7f5 ffd0 	bl	8001708 <_sbrk>
 800b768:	1c43      	adds	r3, r0, #1
 800b76a:	d102      	bne.n	800b772 <_sbrk_r+0x1a>
 800b76c:	682b      	ldr	r3, [r5, #0]
 800b76e:	b103      	cbz	r3, 800b772 <_sbrk_r+0x1a>
 800b770:	6023      	str	r3, [r4, #0]
 800b772:	bd38      	pop	{r3, r4, r5, pc}
 800b774:	20005340 	.word	0x20005340

0800b778 <_write_r>:
 800b778:	b538      	push	{r3, r4, r5, lr}
 800b77a:	4d07      	ldr	r5, [pc, #28]	@ (800b798 <_write_r+0x20>)
 800b77c:	4604      	mov	r4, r0
 800b77e:	4608      	mov	r0, r1
 800b780:	4611      	mov	r1, r2
 800b782:	2200      	movs	r2, #0
 800b784:	602a      	str	r2, [r5, #0]
 800b786:	461a      	mov	r2, r3
 800b788:	f7f5 ff6e 	bl	8001668 <_write>
 800b78c:	1c43      	adds	r3, r0, #1
 800b78e:	d102      	bne.n	800b796 <_write_r+0x1e>
 800b790:	682b      	ldr	r3, [r5, #0]
 800b792:	b103      	cbz	r3, 800b796 <_write_r+0x1e>
 800b794:	6023      	str	r3, [r4, #0]
 800b796:	bd38      	pop	{r3, r4, r5, pc}
 800b798:	20005340 	.word	0x20005340

0800b79c <_close_r>:
 800b79c:	b538      	push	{r3, r4, r5, lr}
 800b79e:	4d06      	ldr	r5, [pc, #24]	@ (800b7b8 <_close_r+0x1c>)
 800b7a0:	2300      	movs	r3, #0
 800b7a2:	4604      	mov	r4, r0
 800b7a4:	4608      	mov	r0, r1
 800b7a6:	602b      	str	r3, [r5, #0]
 800b7a8:	f7f5 ff7a 	bl	80016a0 <_close>
 800b7ac:	1c43      	adds	r3, r0, #1
 800b7ae:	d102      	bne.n	800b7b6 <_close_r+0x1a>
 800b7b0:	682b      	ldr	r3, [r5, #0]
 800b7b2:	b103      	cbz	r3, 800b7b6 <_close_r+0x1a>
 800b7b4:	6023      	str	r3, [r4, #0]
 800b7b6:	bd38      	pop	{r3, r4, r5, pc}
 800b7b8:	20005340 	.word	0x20005340

0800b7bc <_fstat_r>:
 800b7bc:	b538      	push	{r3, r4, r5, lr}
 800b7be:	4d07      	ldr	r5, [pc, #28]	@ (800b7dc <_fstat_r+0x20>)
 800b7c0:	2300      	movs	r3, #0
 800b7c2:	4604      	mov	r4, r0
 800b7c4:	4608      	mov	r0, r1
 800b7c6:	4611      	mov	r1, r2
 800b7c8:	602b      	str	r3, [r5, #0]
 800b7ca:	f7f5 ff75 	bl	80016b8 <_fstat>
 800b7ce:	1c43      	adds	r3, r0, #1
 800b7d0:	d102      	bne.n	800b7d8 <_fstat_r+0x1c>
 800b7d2:	682b      	ldr	r3, [r5, #0]
 800b7d4:	b103      	cbz	r3, 800b7d8 <_fstat_r+0x1c>
 800b7d6:	6023      	str	r3, [r4, #0]
 800b7d8:	bd38      	pop	{r3, r4, r5, pc}
 800b7da:	bf00      	nop
 800b7dc:	20005340 	.word	0x20005340

0800b7e0 <__assert_func>:
 800b7e0:	b51f      	push	{r0, r1, r2, r3, r4, lr}
 800b7e2:	4614      	mov	r4, r2
 800b7e4:	461a      	mov	r2, r3
 800b7e6:	4b09      	ldr	r3, [pc, #36]	@ (800b80c <__assert_func+0x2c>)
 800b7e8:	681b      	ldr	r3, [r3, #0]
 800b7ea:	4605      	mov	r5, r0
 800b7ec:	68d8      	ldr	r0, [r3, #12]
 800b7ee:	b14c      	cbz	r4, 800b804 <__assert_func+0x24>
 800b7f0:	4b07      	ldr	r3, [pc, #28]	@ (800b810 <__assert_func+0x30>)
 800b7f2:	9100      	str	r1, [sp, #0]
 800b7f4:	e9cd 3401 	strd	r3, r4, [sp, #4]
 800b7f8:	4906      	ldr	r1, [pc, #24]	@ (800b814 <__assert_func+0x34>)
 800b7fa:	462b      	mov	r3, r5
 800b7fc:	f000 f86c 	bl	800b8d8 <fiprintf>
 800b800:	f000 f87c 	bl	800b8fc <abort>
 800b804:	4b04      	ldr	r3, [pc, #16]	@ (800b818 <__assert_func+0x38>)
 800b806:	461c      	mov	r4, r3
 800b808:	e7f3      	b.n	800b7f2 <__assert_func+0x12>
 800b80a:	bf00      	nop
 800b80c:	20000188 	.word	0x20000188
 800b810:	0800bbd5 	.word	0x0800bbd5
 800b814:	0800bbe2 	.word	0x0800bbe2
 800b818:	0800bc10 	.word	0x0800bc10

0800b81c <_calloc_r>:
 800b81c:	b570      	push	{r4, r5, r6, lr}
 800b81e:	fba1 5402 	umull	r5, r4, r1, r2
 800b822:	b934      	cbnz	r4, 800b832 <_calloc_r+0x16>
 800b824:	4629      	mov	r1, r5
 800b826:	f7ff f827 	bl	800a878 <_malloc_r>
 800b82a:	4606      	mov	r6, r0
 800b82c:	b928      	cbnz	r0, 800b83a <_calloc_r+0x1e>
 800b82e:	4630      	mov	r0, r6
 800b830:	bd70      	pop	{r4, r5, r6, pc}
 800b832:	220c      	movs	r2, #12
 800b834:	6002      	str	r2, [r0, #0]
 800b836:	2600      	movs	r6, #0
 800b838:	e7f9      	b.n	800b82e <_calloc_r+0x12>
 800b83a:	462a      	mov	r2, r5
 800b83c:	4621      	mov	r1, r4
 800b83e:	f7fd fcbd 	bl	80091bc <memset>
 800b842:	e7f4      	b.n	800b82e <_calloc_r+0x12>

0800b844 <_free_r>:
 800b844:	b538      	push	{r3, r4, r5, lr}
 800b846:	4605      	mov	r5, r0
 800b848:	2900      	cmp	r1, #0
 800b84a:	d041      	beq.n	800b8d0 <_free_r+0x8c>
 800b84c:	f851 3c04 	ldr.w	r3, [r1, #-4]
 800b850:	1f0c      	subs	r4, r1, #4
 800b852:	2b00      	cmp	r3, #0
 800b854:	bfb8      	it	lt
 800b856:	18e4      	addlt	r4, r4, r3
 800b858:	f7ff f94c 	bl	800aaf4 <__malloc_lock>
 800b85c:	4a1d      	ldr	r2, [pc, #116]	@ (800b8d4 <_free_r+0x90>)
 800b85e:	6813      	ldr	r3, [r2, #0]
 800b860:	b933      	cbnz	r3, 800b870 <_free_r+0x2c>
 800b862:	6063      	str	r3, [r4, #4]
 800b864:	6014      	str	r4, [r2, #0]
 800b866:	4628      	mov	r0, r5
 800b868:	e8bd 4038 	ldmia.w	sp!, {r3, r4, r5, lr}
 800b86c:	f7ff b948 	b.w	800ab00 <__malloc_unlock>
 800b870:	42a3      	cmp	r3, r4
 800b872:	d908      	bls.n	800b886 <_free_r+0x42>
 800b874:	6820      	ldr	r0, [r4, #0]
 800b876:	1821      	adds	r1, r4, r0
 800b878:	428b      	cmp	r3, r1
 800b87a:	bf01      	itttt	eq
 800b87c:	6819      	ldreq	r1, [r3, #0]
 800b87e:	685b      	ldreq	r3, [r3, #4]
 800b880:	1809      	addeq	r1, r1, r0
 800b882:	6021      	streq	r1, [r4, #0]
 800b884:	e7ed      	b.n	800b862 <_free_r+0x1e>
 800b886:	461a      	mov	r2, r3
 800b888:	685b      	ldr	r3, [r3, #4]
 800b88a:	b10b      	cbz	r3, 800b890 <_free_r+0x4c>
 800b88c:	42a3      	cmp	r3, r4
 800b88e:	d9fa      	bls.n	800b886 <_free_r+0x42>
 800b890:	6811      	ldr	r1, [r2, #0]
 800b892:	1850      	adds	r0, r2, r1
 800b894:	42a0      	cmp	r0, r4
 800b896:	d10b      	bne.n	800b8b0 <_free_r+0x6c>
 800b898:	6820      	ldr	r0, [r4, #0]
 800b89a:	4401      	add	r1, r0
 800b89c:	1850      	adds	r0, r2, r1
 800b89e:	4283      	cmp	r3, r0
 800b8a0:	6011      	str	r1, [r2, #0]
 800b8a2:	d1e0      	bne.n	800b866 <_free_r+0x22>
 800b8a4:	6818      	ldr	r0, [r3, #0]
 800b8a6:	685b      	ldr	r3, [r3, #4]
 800b8a8:	6053      	str	r3, [r2, #4]
 800b8aa:	4408      	add	r0, r1
 800b8ac:	6010      	str	r0, [r2, #0]
 800b8ae:	e7da      	b.n	800b866 <_free_r+0x22>
 800b8b0:	d902      	bls.n	800b8b8 <_free_r+0x74>
 800b8b2:	230c      	movs	r3, #12
 800b8b4:	602b      	str	r3, [r5, #0]
 800b8b6:	e7d6      	b.n	800b866 <_free_r+0x22>
 800b8b8:	6820      	ldr	r0, [r4, #0]
 800b8ba:	1821      	adds	r1, r4, r0
 800b8bc:	428b      	cmp	r3, r1
 800b8be:	bf04      	itt	eq
 800b8c0:	6819      	ldreq	r1, [r3, #0]
 800b8c2:	685b      	ldreq	r3, [r3, #4]
 800b8c4:	6063      	str	r3, [r4, #4]
 800b8c6:	bf04      	itt	eq
 800b8c8:	1809      	addeq	r1, r1, r0
 800b8ca:	6021      	streq	r1, [r4, #0]
 800b8cc:	6054      	str	r4, [r2, #4]
 800b8ce:	e7ca      	b.n	800b866 <_free_r+0x22>
 800b8d0:	bd38      	pop	{r3, r4, r5, pc}
 800b8d2:	bf00      	nop
 800b8d4:	2000533c 	.word	0x2000533c

0800b8d8 <fiprintf>:
 800b8d8:	b40e      	push	{r1, r2, r3}
 800b8da:	b503      	push	{r0, r1, lr}
 800b8dc:	4601      	mov	r1, r0
 800b8de:	ab03      	add	r3, sp, #12
 800b8e0:	4805      	ldr	r0, [pc, #20]	@ (800b8f8 <fiprintf+0x20>)
 800b8e2:	f853 2b04 	ldr.w	r2, [r3], #4
 800b8e6:	6800      	ldr	r0, [r0, #0]
 800b8e8:	9301      	str	r3, [sp, #4]
 800b8ea:	f7fe fe83 	bl	800a5f4 <_vfiprintf_r>
 800b8ee:	b002      	add	sp, #8
 800b8f0:	f85d eb04 	ldr.w	lr, [sp], #4
 800b8f4:	b003      	add	sp, #12
 800b8f6:	4770      	bx	lr
 800b8f8:	20000188 	.word	0x20000188

0800b8fc <abort>:
 800b8fc:	b508      	push	{r3, lr}
 800b8fe:	2006      	movs	r0, #6
 800b900:	f000 f82c 	bl	800b95c <raise>
 800b904:	2001      	movs	r0, #1
 800b906:	f7f5 fe87 	bl	8001618 <_exit>

0800b90a <_raise_r>:
 800b90a:	291f      	cmp	r1, #31
 800b90c:	b538      	push	{r3, r4, r5, lr}
 800b90e:	4605      	mov	r5, r0
 800b910:	460c      	mov	r4, r1
 800b912:	d904      	bls.n	800b91e <_raise_r+0x14>
 800b914:	2316      	movs	r3, #22
 800b916:	6003      	str	r3, [r0, #0]
 800b918:	f04f 30ff 	mov.w	r0, #4294967295	@ 0xffffffff
 800b91c:	bd38      	pop	{r3, r4, r5, pc}
 800b91e:	6bc2      	ldr	r2, [r0, #60]	@ 0x3c
 800b920:	b112      	cbz	r2, 800b928 <_raise_r+0x1e>
 800b922:	f852 3021 	ldr.w	r3, [r2, r1, lsl #2]
 800b926:	b94b      	cbnz	r3, 800b93c <_raise_r+0x32>
 800b928:	4628      	mov	r0, r5
 800b92a:	f000 f831 	bl	800b990 <_getpid_r>
 800b92e:	4622      	mov	r2, r4
 800b930:	4601      	mov	r1, r0
 800b932:	4628      	mov	r0, r5
 800b934:	e8bd 4038 	ldmia.w	sp!, {r3, r4, r5, lr}
 800b938:	f000 b818 	b.w	800b96c <_kill_r>
 800b93c:	2b01      	cmp	r3, #1
 800b93e:	d00a      	beq.n	800b956 <_raise_r+0x4c>
 800b940:	1c59      	adds	r1, r3, #1
 800b942:	d103      	bne.n	800b94c <_raise_r+0x42>
 800b944:	2316      	movs	r3, #22
 800b946:	6003      	str	r3, [r0, #0]
 800b948:	2001      	movs	r0, #1
 800b94a:	e7e7      	b.n	800b91c <_raise_r+0x12>
 800b94c:	2100      	movs	r1, #0
 800b94e:	f842 1024 	str.w	r1, [r2, r4, lsl #2]
 800b952:	4620      	mov	r0, r4
 800b954:	4798      	blx	r3
 800b956:	2000      	movs	r0, #0
 800b958:	e7e0      	b.n	800b91c <_raise_r+0x12>
	...

0800b95c <raise>:
 800b95c:	4b02      	ldr	r3, [pc, #8]	@ (800b968 <raise+0xc>)
 800b95e:	4601      	mov	r1, r0
 800b960:	6818      	ldr	r0, [r3, #0]
 800b962:	f7ff bfd2 	b.w	800b90a <_raise_r>
 800b966:	bf00      	nop
 800b968:	20000188 	.word	0x20000188

0800b96c <_kill_r>:
 800b96c:	b538      	push	{r3, r4, r5, lr}
 800b96e:	4d07      	ldr	r5, [pc, #28]	@ (800b98c <_kill_r+0x20>)
 800b970:	2300      	movs	r3, #0
 800b972:	4604      	mov	r4, r0
 800b974:	4608      	mov	r0, r1
 800b976:	4611      	mov	r1, r2
 800b978:	602b      	str	r3, [r5, #0]
 800b97a:	f7f5 fe3d 	bl	80015f8 <_kill>
 800b97e:	1c43      	adds	r3, r0, #1
 800b980:	d102      	bne.n	800b988 <_kill_r+0x1c>
 800b982:	682b      	ldr	r3, [r5, #0]
 800b984:	b103      	cbz	r3, 800b988 <_kill_r+0x1c>
 800b986:	6023      	str	r3, [r4, #0]
 800b988:	bd38      	pop	{r3, r4, r5, pc}
 800b98a:	bf00      	nop
 800b98c:	20005340 	.word	0x20005340

0800b990 <_getpid_r>:
 800b990:	f7f5 be2a 	b.w	80015e8 <_getpid>

0800b994 <_init>:
 800b994:	b5f8      	push	{r3, r4, r5, r6, r7, lr}
 800b996:	bf00      	nop
 800b998:	bcf8      	pop	{r3, r4, r5, r6, r7}
 800b99a:	bc08      	pop	{r3}
 800b99c:	469e      	mov	lr, r3
 800b99e:	4770      	bx	lr

0800b9a0 <_fini>:
 800b9a0:	b5f8      	push	{r3, r4, r5, r6, r7, lr}
 800b9a2:	bf00      	nop
 800b9a4:	bcf8      	pop	{r3, r4, r5, r6, r7}
 800b9a6:	bc08      	pop	{r3}
 800b9a8:	469e      	mov	lr, r3
 800b9aa:	4770      	bx	lr
